{
   <insert_a_suppression_name_here>
   Memcheck:Addr8
   fun:strncmp
   fun:is_dst
   fun:_dl_dst_count
   fun:expand_dynamic_string_token
   fun:fillin_rpath.isra.0
   fun:decompose_rpath
   fun:cache_rpath
   fun:cache_rpath
   fun:_dl_map_object
   fun:dl_open_worker_begin
   fun:_dl_catch_exception
   fun:dl_open_worker
   fun:_dl_catch_exception
   fun:_dl_open
   fun:dlopen_doit
}
{
   <insert_a_suppression_name_here>
   Memcheck:Addr8
   fun:strncmp
   fun:is_dst
   fun:_dl_dst_substitute
   fun:fillin_rpath.isra.0
   fun:decompose_rpath
   fun:cache_rpath
   fun:cache_rpath
   fun:_dl_map_object
   fun:dl_open_worker_begin
   fun:_dl_catch_exception
   fun:dl_open_worker
   fun:_dl_catch_exception
   fun:_dl_open
   fun:dlopen_doit
}
{
   <insert_a_suppression_name_here>
   Memcheck:Leak
   match-leak-kinds: reachable
   fun:malloc
   obj:/home/lvand/workspace/neuralwindow/libtorch/lib/libgomp-a34b3233.so.1
   obj:/home/lvand/workspace/neuralwindow/libtorch/lib/libgomp-a34b3233.so.1
   obj:/home/lvand/workspace/neuralwindow/libtorch/lib/libgomp-a34b3233.so.1
   fun:call_init.part.0
   fun:call_init
   fun:_dl_init
   obj:/usr/lib/x86_64-linux-gnu/ld-linux-x86-64.so.2
}
{
   <insert_a_suppression_name_here>
   Memcheck:Leak
   match-leak-kinds: reachable
   fun:malloc
   obj:/home/runner/work/neuralwindow/neuralwindow/libtorch/lib/libgomp-a34b3233.so.1
   obj:/home/runner/work/neuralwindow/neuralwindow/libtorch/lib/libgomp-a34b3233.so.1
   obj:/home/runner/work/neuralwindow/neuralwindow/libtorch/lib/libgomp-a34b3233.so.1
   fun:call_init.part.0
   fun:call_init
   fun:_dl_init
   obj:/usr/lib/x86_64-linux-gnu/ld-linux-x86-64.so.2
}
{
   <insert_a_suppression_name_here>
   Memcheck:Leak
   match-leak-kinds: reachable
   fun:_Znwm
   fun:_GLOBAL__sub_I_CPUGuardImpl.cpp
   fun:call_init.part.0
   fun:call_init
   fun:_dl_init
   obj:/usr/lib/x86_64-linux-gnu/ld-linux-x86-64.so.2
}
{
   <insert_a_suppression_name_here>
   Memcheck:Leak
   match-leak-kinds: reachable
   fun:_Znwm
   fun:_GLOBAL__sub_I_MetaGuardImpl.cpp
   fun:call_init.part.0
   fun:call_init
   fun:_dl_init
   obj:/usr/lib/x86_64-linux-gnu/ld-linux-x86-64.so.2
}
{
   <insert_a_suppression_name_here>
   Memcheck:Leak
   match-leak-kinds: reachable
   fun:_Znwm
   fun:_GLOBAL__sub_I_logging.cpp
   fun:call_init.part.0
   fun:call_init
   fun:_dl_init
   obj:/usr/lib/x86_64-linux-gnu/ld-linux-x86-64.so.2
}
{
   <insert_a_suppression_name_here>
   Memcheck:Leak
   match-leak-kinds: reachable
   fun:_Znwm
   fun:_ZN3c1013demangle_typeIN5torch3jit31SROperatorFunctor_aten_absoluteEEEPKcv
   fun:_Z41__static_initialization_and_destruction_0ii.constprop.0
   fun:call_init.part.0
   fun:call_init
   fun:_dl_init
   obj:/usr/lib/x86_64-linux-gnu/ld-linux-x86-64.so.2
}
{
   <insert_a_suppression_name_here>
   Memcheck:Leak
   match-leak-kinds: reachable
   fun:_Znwm
   fun:_ZN3c1013demangle_typeIN5torch3jit28SROperatorFunctor_aten_angleEEEPKcv
   fun:_Z41__static_initialization_and_destruction_0ii.constprop.0
   fun:call_init.part.0
   fun:call_init
   fun:_dl_init
   obj:/usr/lib/x86_64-linux-gnu/ld-linux-x86-64.so.2
}
{
   <insert_a_suppression_name_here>
   Memcheck:Leak
   match-leak-kinds: reachable
   fun:_Znwm
   fun:_ZN3c1013demangle_typeIN5torch3jit26SROperatorFunctor_aten_sgnEEEPKcv
   fun:_Z41__static_initialization_and_destruction_0ii.constprop.0
   fun:call_init.part.0
   fun:call_init
   fun:_dl_init
   obj:/usr/lib/x86_64-linux-gnu/ld-linux-x86-64.so.2
}
{
   <insert_a_suppression_name_here>
   Memcheck:Leak
   match-leak-kinds: reachable
   fun:_Znwm
   fun:_ZN3c1013demangle_typeIN5torch3jit27SROperatorFunctor_aten_acosEEEPKcv
   fun:_Z41__static_initialization_and_destruction_0ii.constprop.0
   fun:call_init.part.0
   fun:call_init
   fun:_dl_init
   obj:/usr/lib/x86_64-linux-gnu/ld-linux-x86-64.so.2
}
{
   <insert_a_suppression_name_here>
   Memcheck:Leak
   match-leak-kinds: reachable
   fun:_Znwm
   fun:_ZN3c1013demangle_typeIN5torch3jit29SROperatorFunctor_aten_arccosEEEPKcv
   fun:_Z41__static_initialization_and_destruction_0ii.constprop.0
   fun:call_init.part.0
   fun:call_init
   fun:_dl_init
   obj:/usr/lib/x86_64-linux-gnu/ld-linux-x86-64.so.2
}
{
   <insert_a_suppression_name_here>
   Memcheck:Leak
   match-leak-kinds: reachable
   fun:_Znwm
   fun:_ZN3c1013demangle_typeIN5torch3jit32SROperatorFunctor_aten__add_reluEEEPKcv
   fun:_Z41__static_initialization_and_destruction_0ii.constprop.0
   fun:call_init.part.0
   fun:call_init
   fun:_dl_init
   obj:/usr/lib/x86_64-linux-gnu/ld-linux-x86-64.so.2
}
{
   <insert_a_suppression_name_here>
   Memcheck:Leak
   match-leak-kinds: reachable
   fun:_Znwm
   fun:_ZN3c1013demangle_typeIN5torch3jit28SROperatorFunctor_aten_addmvEEEPKcv
   fun:_Z41__static_initialization_and_destruction_0ii.constprop.0
   fun:call_init.part.0
   fun:call_init
   fun:_dl_init
   obj:/usr/lib/x86_64-linux-gnu/ld-linux-x86-64.so.2
}
{
   <insert_a_suppression_name_here>
   Memcheck:Leak
   match-leak-kinds: reachable
   fun:_Znwm
   fun:_ZN3c1013demangle_typeIN5torch3jit27SROperatorFunctor_aten_addrEEEPKcv
   fun:_Z41__static_initialization_and_destruction_0ii.constprop.0
   fun:call_init.part.0
   fun:call_init
   fun:_dl_init
   obj:/usr/lib/x86_64-linux-gnu/ld-linux-x86-64.so.2
}
{
   <insert_a_suppression_name_here>
   Memcheck:Leak
   match-leak-kinds: reachable
   fun:_Znwm
   fun:_ZN3c1013demangle_typeIN5torch3jit29SROperatorFunctor_aten_argmaxEEEPKcv
   fun:_Z41__static_initialization_and_destruction_0ii.constprop.0
   fun:call_init.part.0
   fun:call_init
   fun:_dl_init
   obj:/usr/lib/x86_64-linux-gnu/ld-linux-x86-64.so.2
}
{
   <insert_a_suppression_name_here>
   Memcheck:Leak
   match-leak-kinds: reachable
   fun:_Znwm
   fun:_ZN3c1013demangle_typeIN5torch3jit28SROperatorFunctor_aten_acoshEEEPKcv
   fun:_Z41__static_initialization_and_destruction_0ii.constprop.0
   fun:call_init.part.0
   fun:call_init
   fun:_dl_init
   obj:/usr/lib/x86_64-linux-gnu/ld-linux-x86-64.so.2
}
{
   <insert_a_suppression_name_here>
   Memcheck:Leak
   match-leak-kinds: reachable
   fun:_Znwm
   fun:_ZN3c1013demangle_typeIN5torch3jit28SROperatorFunctor_aten_asinhEEEPKcv
   fun:_Z41__static_initialization_and_destruction_0ii.constprop.0
   fun:call_init.part.0
   fun:call_init
   fun:_dl_init
   obj:/usr/lib/x86_64-linux-gnu/ld-linux-x86-64.so.2
}
{
   <insert_a_suppression_name_here>
   Memcheck:Leak
   match-leak-kinds: reachable
   fun:_Znwm
   fun:_ZN3c1013demangle_typeIN5torch3jit30SROperatorFunctor_aten_arcsinhEEEPKcv
   fun:_Z41__static_initialization_and_destruction_0ii.constprop.0
   fun:call_init.part.0
   fun:call_init
   fun:_dl_init
   obj:/usr/lib/x86_64-linux-gnu/ld-linux-x86-64.so.2
}
{
   <insert_a_suppression_name_here>
   Memcheck:Leak
   match-leak-kinds: reachable
   fun:_Znwm
   fun:_ZN3c1013demangle_typeIN5torch3jit28SROperatorFunctor_aten_atanhEEEPKcv
   fun:_Z41__static_initialization_and_destruction_0ii.constprop.0
   fun:call_init.part.0
   fun:call_init
   fun:_dl_init
   obj:/usr/lib/x86_64-linux-gnu/ld-linux-x86-64.so.2
}
{
   <insert_a_suppression_name_here>
   Memcheck:Leak
   match-leak-kinds: reachable
   fun:_Znwm
   fun:_ZN3c1013demangle_typeIN5torch3jit30SROperatorFunctor_aten_arctanhEEEPKcv
   fun:_Z41__static_initialization_and_destruction_0ii.constprop.0
   fun:call_init.part.0
   fun:call_init
   fun:_dl_init
   obj:/usr/lib/x86_64-linux-gnu/ld-linux-x86-64.so.2
}
{
   <insert_a_suppression_name_here>
   Memcheck:Leak
   match-leak-kinds: reachable
   fun:_Znwm
   fun:_ZN3c1013demangle_typeIN5torch3jit27SROperatorFunctor_aten_asinEEEPKcv
   fun:_Z41__static_initialization_and_destruction_0ii.constprop.0
   fun:call_init.part.0
   fun:call_init
   fun:_dl_init
   obj:/usr/lib/x86_64-linux-gnu/ld-linux-x86-64.so.2
}
{
   <insert_a_suppression_name_here>
   Memcheck:Leak
   match-leak-kinds: reachable
   fun:_Znwm
   fun:_ZN3c1013demangle_typeIN5torch3jit29SROperatorFunctor_aten_arcsinEEEPKcv
   fun:_Z41__static_initialization_and_destruction_0ii.constprop.0
   fun:call_init.part.0
   fun:call_init
   fun:_dl_init
   obj:/usr/lib/x86_64-linux-gnu/ld-linux-x86-64.so.2
}
{
   <insert_a_suppression_name_here>
   Memcheck:Leak
   match-leak-kinds: reachable
   fun:_Znwm
   fun:_ZN3c1013demangle_typeIN5torch3jit27SROperatorFunctor_aten_atanEEEPKcv
   fun:_Z41__static_initialization_and_destruction_0ii.constprop.0
   fun:call_init.part.0
   fun:call_init
   fun:_dl_init
   obj:/usr/lib/x86_64-linux-gnu/ld-linux-x86-64.so.2
}
{
   <insert_a_suppression_name_here>
   Memcheck:Leak
   match-leak-kinds: reachable
   fun:_Znwm
   fun:_ZN3c1013demangle_typeIN5torch3jit29SROperatorFunctor_aten_arctanEEEPKcv
   fun:_Z41__static_initialization_and_destruction_0ii.constprop.0
   fun:call_init.part.0
   fun:call_init
   fun:_dl_init
   obj:/usr/lib/x86_64-linux-gnu/ld-linux-x86-64.so.2
}
{
   <insert_a_suppression_name_here>
   Memcheck:Leak
   match-leak-kinds: reachable
   fun:_Znwm
   fun:_ZN3c1013demangle_typeIN5torch3jit30SROperatorFunctor_aten_baddbmmEEEPKcv
   fun:_Z41__static_initialization_and_destruction_0ii.constprop.0
   fun:call_init.part.0
   fun:call_init
   fun:_dl_init
   obj:/usr/lib/x86_64-linux-gnu/ld-linux-x86-64.so.2
}
{
   <insert_a_suppression_name_here>
   Memcheck:Leak
   match-leak-kinds: reachable
   fun:_Znwm
   fun:_ZN3c1013demangle_typeIN5torch3jit34SROperatorFunctor_aten_bitwise_notEEEPKcv
   fun:_Z41__static_initialization_and_destruction_0ii.constprop.0
   fun:call_init.part.0
   fun:call_init
   fun:_dl_init
   obj:/usr/lib/x86_64-linux-gnu/ld-linux-x86-64.so.2
}
{
   <insert_a_suppression_name_here>
   Memcheck:Leak
   match-leak-kinds: reachable
   fun:_Znwm
   fun:_ZN3c1013demangle_typeIN5torch3jit31SROperatorFunctor_aten_copysignEEEPKcv
   fun:_Z41__static_initialization_and_destruction_0ii.constprop.0
   fun:call_init.part.0
   fun:call_init
   fun:_dl_init
   obj:/usr/lib/x86_64-linux-gnu/ld-linux-x86-64.so.2
}
{
   <insert_a_suppression_name_here>
   Memcheck:Leak
   match-leak-kinds: reachable
   fun:_Znwm
   fun:_ZN3c1013demangle_typeIN5torch3jit34SROperatorFunctor_aten_logical_notEEEPKcv
   fun:_Z41__static_initialization_and_destruction_0ii.constprop.0
   fun:call_init.part.0
   fun:call_init
   fun:_dl_init
   obj:/usr/lib/x86_64-linux-gnu/ld-linux-x86-64.so.2
}
{
   <insert_a_suppression_name_here>
   Memcheck:Leak
   match-leak-kinds: reachable
   fun:_Znwm
   fun:_ZN3c1013demangle_typeIN5torch3jit34SROperatorFunctor_aten_logical_xorEEEPKcv
   fun:_Z41__static_initialization_and_destruction_0ii.constprop.0
   fun:call_init.part.0
   fun:call_init
   fun:_dl_init
   obj:/usr/lib/x86_64-linux-gnu/ld-linux-x86-64.so.2
}
{
   <insert_a_suppression_name_here>
   Memcheck:Leak
   match-leak-kinds: reachable
   fun:_Znwm
   fun:_ZN3c1013demangle_typeIN5torch3jit34SROperatorFunctor_aten_logical_andEEEPKcv
   fun:_Z41__static_initialization_and_destruction_0ii.constprop.0
   fun:call_init.part.0
   fun:call_init
   fun:_dl_init
   obj:/usr/lib/x86_64-linux-gnu/ld-linux-x86-64.so.2
}
{
   <insert_a_suppression_name_here>
   Memcheck:Leak
   match-leak-kinds: reachable
   fun:_Znwm
   fun:_ZN3c1013demangle_typeIN5torch3jit33SROperatorFunctor_aten_logical_orEEEPKcv
   fun:_Z41__static_initialization_and_destruction_0ii.constprop.0
   fun:call_init.part.0
   fun:call_init
   fun:_dl_init
   obj:/usr/lib/x86_64-linux-gnu/ld-linux-x86-64.so.2
}
{
   <insert_a_suppression_name_here>
   Memcheck:Leak
   match-leak-kinds: reachable
   fun:_Znwm
   fun:_ZN3c1013demangle_typeIN5torch3jit27SROperatorFunctor_aten_ceilEEEPKcv
   fun:_Z41__static_initialization_and_destruction_0ii.constprop.0
   fun:call_init.part.0
   fun:call_init
   fun:_dl_init
   obj:/usr/lib/x86_64-linux-gnu/ld-linux-x86-64.so.2
}
{
   <insert_a_suppression_name_here>
   Memcheck:Leak
   match-leak-kinds: reachable
   fun:_Znwm
   fun:_ZN3c1013demangle_typeIN5torch3jit32SROperatorFunctor_aten_clamp_maxEEEPKcv
   fun:_Z41__static_initialization_and_destruction_0ii.constprop.0
   fun:call_init.part.0
   fun:call_init
   fun:_dl_init
   obj:/usr/lib/x86_64-linux-gnu/ld-linux-x86-64.so.2
}
{
   <insert_a_suppression_name_here>
   Memcheck:Leak
   match-leak-kinds: reachable
   fun:_Znwm
   fun:_ZN3c1013demangle_typeIN5torch3jit27SROperatorFunctor_aten_clipEEEPKcv
   fun:_Z41__static_initialization_and_destruction_0ii.constprop.0
   fun:call_init.part.0
   fun:call_init
   fun:_dl_init
   obj:/usr/lib/x86_64-linux-gnu/ld-linux-x86-64.so.2
}
{
   <insert_a_suppression_name_here>
   Memcheck:Leak
   match-leak-kinds: reachable
   fun:_Znwm
   fun:_ZN3c1013demangle_typeIN5torch3jit30SROperatorFunctor_aten_complexEEEPKcv
   fun:_Z41__static_initialization_and_destruction_0ii.constprop.0
   fun:call_init.part.0
   fun:call_init
   fun:_dl_init
   obj:/usr/lib/x86_64-linux-gnu/ld-linux-x86-64.so.2
}
{
   <insert_a_suppression_name_here>
   Memcheck:Leak
   match-leak-kinds: reachable
   fun:_Znwm
   fun:_ZN3c1013demangle_typeIN5torch3jit28SROperatorFunctor_aten_polarEEEPKcv
   fun:_Z41__static_initialization_and_destruction_0ii.constprop.0
   fun:call_init.part.0
   fun:call_init
   fun:_dl_init
   obj:/usr/lib/x86_64-linux-gnu/ld-linux-x86-64.so.2
}
{
   <insert_a_suppression_name_here>
   Memcheck:Leak
   match-leak-kinds: reachable
   fun:_Znwm
   fun:_ZN3c1013demangle_typeIN5torch3jit26SROperatorFunctor_aten_cosEEEPKcv
   fun:_Z41__static_initialization_and_destruction_0ii.constprop.0
   fun:call_init.part.0
   fun:call_init
   fun:_dl_init
   obj:/usr/lib/x86_64-linux-gnu/ld-linux-x86-64.so.2
}
{
   <insert_a_suppression_name_here>
   Memcheck:Leak
   match-leak-kinds: reachable
   fun:_Znwm
   fun:_ZN3c1013demangle_typeIN5torch3jit27SROperatorFunctor_aten_coshEEEPKcv
   fun:_Z41__static_initialization_and_destruction_0ii.constprop.0
   fun:call_init.part.0
   fun:call_init
   fun:_dl_init
   obj:/usr/lib/x86_64-linux-gnu/ld-linux-x86-64.so.2
}
{
   <insert_a_suppression_name_here>
   Memcheck:Leak
   match-leak-kinds: reachable
   fun:_Znwm
   fun:_ZN3c1013demangle_typeIN5torch3jit30SROperatorFunctor_aten_cumprodEEEPKcv
   fun:_Z41__static_initialization_and_destruction_0ii.constprop.0
   fun:call_init.part.0
   fun:call_init
   fun:_dl_init
   obj:/usr/lib/x86_64-linux-gnu/ld-linux-x86-64.so.2
}
{
   <insert_a_suppression_name_here>
   Memcheck:Leak
   match-leak-kinds: reachable
   fun:_Znwm
   fun:_ZN3c1013demangle_typeIN5torch3jit27SROperatorFunctor_aten_diffEEEPKcv
   fun:_Z41__static_initialization_and_destruction_0ii.constprop.0
   fun:call_init.part.0
   fun:call_init
   fun:_dl_init
   obj:/usr/lib/x86_64-linux-gnu/ld-linux-x86-64.so.2
}
{
   <insert_a_suppression_name_here>
   Memcheck:Leak
   match-leak-kinds: reachable
   fun:_Znwm
   fun:_ZN3c1013demangle_typeIN5torch3jit29SROperatorFunctor_aten_divideEEEPKcv
   fun:_Z41__static_initialization_and_destruction_0ii.constprop.0
   fun:call_init.part.0
   fun:call_init
   fun:_dl_init
   obj:/usr/lib/x86_64-linux-gnu/ld-linux-x86-64.so.2
}
{
   <insert_a_suppression_name_here>
   Memcheck:Leak
   match-leak-kinds: reachable
   fun:_Znwm
   fun:_ZN3c1013demangle_typeIN5torch3jit34SROperatorFunctor_aten_true_divideEEEPKcv
   fun:_Z41__static_initialization_and_destruction_0ii.constprop.0
   fun:call_init.part.0
   fun:call_init
   fun:_dl_init
   obj:/usr/lib/x86_64-linux-gnu/ld-linux-x86-64.so.2
}
{
   <insert_a_suppression_name_here>
   Memcheck:Leak
   match-leak-kinds: reachable
   fun:_Znwm
   fun:_ZN3c1013demangle_typeIN5torch3jit26SROperatorFunctor_aten_dotEEEPKcv
   fun:_Z41__static_initialization_and_destruction_0ii.constprop.0
   fun:call_init.part.0
   fun:call_init
   fun:_dl_init
   obj:/usr/lib/x86_64-linux-gnu/ld-linux-x86-64.so.2
}
{
   <insert_a_suppression_name_here>
   Memcheck:Leak
   match-leak-kinds: reachable
   fun:_Znwm
   fun:_ZN3c1013demangle_typeIN5torch3jit27SROperatorFunctor_aten_vdotEEEPKcv
   fun:_Z41__static_initialization_and_destruction_0ii.constprop.0
   fun:call_init.part.0
   fun:call_init
   fun:_dl_init
   obj:/usr/lib/x86_64-linux-gnu/ld-linux-x86-64.so.2
}
{
   <insert_a_suppression_name_here>
   Memcheck:Leak
   match-leak-kinds: reachable
   fun:_Znwm
   fun:_ZN3c1013demangle_typeIN5torch3jit26SROperatorFunctor_aten_erfEEEPKcv
   fun:_Z41__static_initialization_and_destruction_0ii.constprop.0
   fun:call_init.part.0
   fun:call_init
   fun:_dl_init
   obj:/usr/lib/x86_64-linux-gnu/ld-linux-x86-64.so.2
}
{
   <insert_a_suppression_name_here>
   Memcheck:Leak
   match-leak-kinds: reachable
   fun:_Znwm
   fun:_ZN3c1013demangle_typeIN5torch3jit27SROperatorFunctor_aten_erfcEEEPKcv
   fun:_Z41__static_initialization_and_destruction_0ii.constprop.0
   fun:call_init.part.0
   fun:call_init
   fun:_dl_init
   obj:/usr/lib/x86_64-linux-gnu/ld-linux-x86-64.so.2
}
{
   <insert_a_suppression_name_here>
   Memcheck:Leak
   match-leak-kinds: reachable
   fun:_Znwm
   fun:_ZN3c1013demangle_typeIN5torch3jit26SROperatorFunctor_aten_expEEEPKcv
   fun:_Z41__static_initialization_and_destruction_0ii.constprop.0
   fun:call_init.part.0
   fun:call_init
   fun:_dl_init
   obj:/usr/lib/x86_64-linux-gnu/ld-linux-x86-64.so.2
}
{
   <insert_a_suppression_name_here>
   Memcheck:Leak
   match-leak-kinds: reachable
   fun:_Znwm
   fun:_ZN3c1013demangle_typeIN5torch3jit27SROperatorFunctor_aten_exp2EEEPKcv
   fun:_Z41__static_initialization_and_destruction_0ii.constprop.0
   fun:call_init.part.0
   fun:call_init
   fun:_dl_init
   obj:/usr/lib/x86_64-linux-gnu/ld-linux-x86-64.so.2
}
{
   <insert_a_suppression_name_here>
   Memcheck:Leak
   match-leak-kinds: reachable
   fun:_Znwm
   fun:_ZN3c1013demangle_typeIN5torch3jit28SROperatorFunctor_aten_expm1EEEPKcv
   fun:_Z41__static_initialization_and_destruction_0ii.constprop.0
   fun:call_init.part.0
   fun:call_init
   fun:_dl_init
   obj:/usr/lib/x86_64-linux-gnu/ld-linux-x86-64.so.2
}
{
   <insert_a_suppression_name_here>
   Memcheck:Leak
   match-leak-kinds: reachable
   fun:_Znwm
   fun:_ZN3c1013demangle_typeIN5torch3jit28SROperatorFunctor_aten_floorEEEPKcv
   fun:_Z41__static_initialization_and_destruction_0ii.constprop.0
   fun:call_init.part.0
   fun:call_init
   fun:_dl_init
   obj:/usr/lib/x86_64-linux-gnu/ld-linux-x86-64.so.2
}
{
   <insert_a_suppression_name_here>
   Memcheck:Leak
   match-leak-kinds: reachable
   fun:_Znwm
   fun:_ZN3c1013demangle_typeIN5torch3jit27SROperatorFunctor_aten_fracEEEPKcv
   fun:_Z41__static_initialization_and_destruction_0ii.constprop.0
   fun:call_init.part.0
   fun:call_init
   fun:_dl_init
   obj:/usr/lib/x86_64-linux-gnu/ld-linux-x86-64.so.2
}
{
   <insert_a_suppression_name_here>
   Memcheck:Leak
   match-leak-kinds: reachable
   fun:_Znwm
   fun:_ZN3c1013demangle_typeIN5torch3jit26SROperatorFunctor_aten_gcdEEEPKcv
   fun:_Z41__static_initialization_and_destruction_0ii.constprop.0
   fun:call_init.part.0
   fun:call_init
   fun:_dl_init
   obj:/usr/lib/x86_64-linux-gnu/ld-linux-x86-64.so.2
}
{
   <insert_a_suppression_name_here>
   Memcheck:Leak
   match-leak-kinds: reachable
   fun:_Znwm
   fun:_ZN3c1013demangle_typeIN5torch3jit26SROperatorFunctor_aten_lcmEEEPKcv
   fun:_Z41__static_initialization_and_destruction_0ii.constprop.0
   fun:call_init.part.0
   fun:call_init
   fun:_dl_init
   obj:/usr/lib/x86_64-linux-gnu/ld-linux-x86-64.so.2
}
{
   <insert_a_suppression_name_here>
   Memcheck:Leak
   match-leak-kinds: reachable
   fun:_Znwm
   fun:_ZN3c1013demangle_typeIN5torch3jit33SROperatorFunctor_aten_index_copyEEEPKcv
   fun:_Z41__static_initialization_and_destruction_0ii.constprop.0
   fun:call_init.part.0
   fun:call_init
   fun:_dl_init
   obj:/usr/lib/x86_64-linux-gnu/ld-linux-x86-64.so.2
}
{
   <insert_a_suppression_name_here>
   Memcheck:Leak
   match-leak-kinds: reachable
   fun:_Znwm
   fun:_ZN3c1013demangle_typeIN5torch3jit27SROperatorFunctor_aten_isinEEEPKcv
   fun:_Z41__static_initialization_and_destruction_0ii.constprop.0
   fun:call_init.part.0
   fun:call_init
   fun:_dl_init
   obj:/usr/lib/x86_64-linux-gnu/ld-linux-x86-64.so.2
}
{
   <insert_a_suppression_name_here>
   Memcheck:Leak
   match-leak-kinds: reachable
   fun:_Znwm
   fun:_ZN3c1013demangle_typeIN5torch3jit27SROperatorFunctor_aten_kronEEEPKcv
   fun:_Z41__static_initialization_and_destruction_0ii.constprop.0
   fun:call_init.part.0
   fun:call_init
   fun:_dl_init
   obj:/usr/lib/x86_64-linux-gnu/ld-linux-x86-64.so.2
}
{
   <insert_a_suppression_name_here>
   Memcheck:Leak
   match-leak-kinds: reachable
   fun:_Znwm
   fun:_ZN3c1013demangle_typeIN5torch3jit28SROperatorFunctor_aten_ldexpEEEPKcv
   fun:_Z41__static_initialization_and_destruction_0ii.constprop.0
   fun:call_init.part.0
   fun:call_init
   fun:_dl_init
   obj:/usr/lib/x86_64-linux-gnu/ld-linux-x86-64.so.2
}
{
   <insert_a_suppression_name_here>
   Memcheck:Leak
   match-leak-kinds: reachable
   fun:_Znwm
   fun:_ZN3c1013demangle_typeIN5torch3jit28SROperatorFunctor_aten_log10EEEPKcv
   fun:_Z41__static_initialization_and_destruction_0ii.constprop.0
   fun:call_init.part.0
   fun:call_init
   fun:_dl_init
   obj:/usr/lib/x86_64-linux-gnu/ld-linux-x86-64.so.2
}
{
   <insert_a_suppression_name_here>
   Memcheck:Leak
   match-leak-kinds: reachable
   fun:_Znwm
   fun:_ZN3c1013demangle_typeIN5torch3jit28SROperatorFunctor_aten_log1pEEEPKcv
   fun:_Z41__static_initialization_and_destruction_0ii.constprop.0
   fun:call_init.part.0
   fun:call_init
   fun:_dl_init
   obj:/usr/lib/x86_64-linux-gnu/ld-linux-x86-64.so.2
}
{
   <insert_a_suppression_name_here>
   Memcheck:Leak
   match-leak-kinds: reachable
   fun:_Znwm
   fun:_ZN3c1013demangle_typeIN5torch3jit27SROperatorFunctor_aten_log2EEEPKcv
   fun:_Z41__static_initialization_and_destruction_0ii.constprop.0
   fun:call_init.part.0
   fun:call_init
   fun:_dl_init
   obj:/usr/lib/x86_64-linux-gnu/ld-linux-x86-64.so.2
}
{
   <insert_a_suppression_name_here>
   Memcheck:Leak
   match-leak-kinds: reachable
   fun:_Znwm
   fun:_ZN3c1013demangle_typeIN5torch3jit32SROperatorFunctor_aten_logaddexpEEEPKcv
   fun:_Z41__static_initialization_and_destruction_0ii.constprop.0
   fun:call_init.part.0
   fun:call_init
   fun:_dl_init
   obj:/usr/lib/x86_64-linux-gnu/ld-linux-x86-64.so.2
}
{
   <insert_a_suppression_name_here>
   Memcheck:Leak
   match-leak-kinds: reachable
   fun:_Znwm
   fun:_ZN3c1013demangle_typeIN5torch3jit33SROperatorFunctor_aten_logaddexp2EEEPKcv
   fun:_Z41__static_initialization_and_destruction_0ii.constprop.0
   fun:call_init.part.0
   fun:call_init
   fun:_dl_init
   obj:/usr/lib/x86_64-linux-gnu/ld-linux-x86-64.so.2
}
{
   <insert_a_suppression_name_here>
   Memcheck:Leak
   match-leak-kinds: reachable
   fun:_Znwm
   fun:_ZN3c1013demangle_typeIN5torch3jit28SROperatorFunctor_aten_xlogyEEEPKcv
   fun:_Z41__static_initialization_and_destruction_0ii.constprop.0
   fun:call_init.part.0
   fun:call_init
   fun:_dl_init
   obj:/usr/lib/x86_64-linux-gnu/ld-linux-x86-64.so.2
}
{
   <insert_a_suppression_name_here>
   Memcheck:Leak
   match-leak-kinds: reachable
   fun:_Znwm
   fun:_ZN3c1013demangle_typeIN5torch3jit35SROperatorFunctor_aten__log_softmaxEEEPKcv
   fun:_Z41__static_initialization_and_destruction_0ii.constprop.0
   fun:call_init.part.0
   fun:call_init
   fun:_dl_init
   obj:/usr/lib/x86_64-linux-gnu/ld-linux-x86-64.so.2
}
{
   <insert_a_suppression_name_here>
   Memcheck:Leak
   match-leak-kinds: reachable
   fun:_Znwm
   fun:_ZN3c1013demangle_typeIN5torch3jit49SROperatorFunctor_aten__log_softmax_backward_dataEEEPKcv
   fun:_Z41__static_initialization_and_destruction_0ii.constprop.0
   fun:call_init.part.0
   fun:call_init
   fun:_dl_init
   obj:/usr/lib/x86_64-linux-gnu/ld-linux-x86-64.so.2
}
{
   <insert_a_suppression_name_here>
   Memcheck:Leak
   match-leak-kinds: reachable
   fun:_Znwm
   fun:_ZN3c1013demangle_typeIN5torch3jit36SROperatorFunctor_aten__logcumsumexpEEEPKcv
   fun:_Z41__static_initialization_and_destruction_0ii.constprop.0
   fun:call_init.part.0
   fun:call_init
   fun:_dl_init
   obj:/usr/lib/x86_64-linux-gnu/ld-linux-x86-64.so.2
}
{
   <insert_a_suppression_name_here>
   Memcheck:Leak
   match-leak-kinds: reachable
   fun:_Znwm
   fun:_ZN3c1013demangle_typeIN5torch3jit35SROperatorFunctor_aten_logcumsumexpEEEPKcv
   fun:_Z41__static_initialization_and_destruction_0ii.constprop.0
   fun:call_init.part.0
   fun:call_init
   fun:_dl_init
   obj:/usr/lib/x86_64-linux-gnu/ld-linux-x86-64.so.2
}
{
   <insert_a_suppression_name_here>
   Memcheck:Leak
   match-leak-kinds: reachable
   fun:_Znwm
   fun:_ZN3c1013demangle_typeIN5torch3jit35SROperatorFunctor_aten_matrix_powerEEEPKcv
   fun:_Z41__static_initialization_and_destruction_0ii.constprop.0
   fun:call_init.part.0
   fun:call_init
   fun:_dl_init
   obj:/usr/lib/x86_64-linux-gnu/ld-linux-x86-64.so.2
}
{
   <insert_a_suppression_name_here>
   Memcheck:Leak
   match-leak-kinds: reachable
   fun:_Znwm
   fun:_ZN3c1013demangle_typeIN5torch3jit25SROperatorFunctor_aten_mmEEEPKcv
   fun:_Z41__static_initialization_and_destruction_0ii.constprop.0
   fun:call_init.part.0
   fun:call_init
   fun:_dl_init
   obj:/usr/lib/x86_64-linux-gnu/ld-linux-x86-64.so.2
}
{
   <insert_a_suppression_name_here>
   Memcheck:Leak
   match-leak-kinds: reachable
   fun:_Znwm
   fun:_ZN3c1013demangle_typeIN5torch3jit31SROperatorFunctor_aten_multiplyEEEPKcv
   fun:_Z41__static_initialization_and_destruction_0ii.constprop.0
   fun:call_init.part.0
   fun:call_init
   fun:_dl_init
   obj:/usr/lib/x86_64-linux-gnu/ld-linux-x86-64.so.2
}
{
   <insert_a_suppression_name_here>
   Memcheck:Leak
   match-leak-kinds: reachable
   fun:_Znwm
   fun:_ZN3c1013demangle_typeIN5torch3jit25SROperatorFunctor_aten_mvEEEPKcv
   fun:_Z41__static_initialization_and_destruction_0ii.constprop.0
   fun:call_init.part.0
   fun:call_init
   fun:_dl_init
   obj:/usr/lib/x86_64-linux-gnu/ld-linux-x86-64.so.2
}
{
   <insert_a_suppression_name_here>
   Memcheck:Leak
   match-leak-kinds: reachable
   fun:_Znwm
   fun:_ZN3c1013demangle_typeIN5torch3jit31SROperatorFunctor_aten_mvlgammaEEEPKcv
   fun:_Z41__static_initialization_and_destruction_0ii.constprop.0
   fun:call_init.part.0
   fun:call_init
   fun:_dl_init
   obj:/usr/lib/x86_64-linux-gnu/ld-linux-x86-64.so.2
}
{
   <insert_a_suppression_name_here>
   Memcheck:Leak
   match-leak-kinds: reachable
   fun:_Znwm
   fun:_ZN3c1013demangle_typeIN5torch3jit30SROperatorFunctor_aten_rad2degEEEPKcv
   fun:_Z41__static_initialization_and_destruction_0ii.constprop.0
   fun:call_init.part.0
   fun:call_init
   fun:_dl_init
   obj:/usr/lib/x86_64-linux-gnu/ld-linux-x86-64.so.2
}
{
   <insert_a_suppression_name_here>
   Memcheck:Leak
   match-leak-kinds: reachable
   fun:_Znwm
   fun:_ZN3c1013demangle_typeIN5torch3jit30SROperatorFunctor_aten_deg2radEEEPKcv
   fun:_Z41__static_initialization_and_destruction_0ii.constprop.0
   fun:call_init.part.0
   fun:call_init
   fun:_dl_init
   obj:/usr/lib/x86_64-linux-gnu/ld-linux-x86-64.so.2
}
{
   <insert_a_suppression_name_here>
   Memcheck:Leak
   match-leak-kinds: reachable
   fun:_Znwm
   fun:_ZN3c1013demangle_typeIN5torch3jit33SROperatorFunctor_aten_reciprocalEEEPKcv
   fun:_Z41__static_initialization_and_destruction_0ii.constprop.0
   fun:call_init.part.0
   fun:call_init
   fun:_dl_init
   obj:/usr/lib/x86_64-linux-gnu/ld-linux-x86-64.so.2
}
{
   <insert_a_suppression_name_here>
   Memcheck:Leak
   match-leak-kinds: reachable
   fun:_Znwm
   fun:_ZN3c1013demangle_typeIN5torch3jit26SROperatorFunctor_aten_negEEEPKcv
   fun:_Z41__static_initialization_and_destruction_0ii.constprop.0
   fun:call_init.part.0
   fun:call_init
   fun:_dl_init
   obj:/usr/lib/x86_64-linux-gnu/ld-linux-x86-64.so.2
}
{
   <insert_a_suppression_name_here>
   Memcheck:Leak
   match-leak-kinds: reachable
   fun:_Znwm
   fun:_ZN3c1013demangle_typeIN5torch3jit31SROperatorFunctor_aten_negativeEEEPKcv
   fun:_Z41__static_initialization_and_destruction_0ii.constprop.0
   fun:call_init.part.0
   fun:call_init
   fun:_dl_init
   obj:/usr/lib/x86_64-linux-gnu/ld-linux-x86-64.so.2
}
{
   <insert_a_suppression_name_here>
   Memcheck:Leak
   match-leak-kinds: reachable
   fun:_Znwm
   fun:_ZN3c1013demangle_typeIN5torch3jit28SROperatorFunctor_aten_roundEEEPKcv
   fun:_Z41__static_initialization_and_destruction_0ii.constprop.0
   fun:call_init.part.0
   fun:call_init
   fun:_dl_init
   obj:/usr/lib/x86_64-linux-gnu/ld-linux-x86-64.so.2
}
{
   <insert_a_suppression_name_here>
   Memcheck:Leak
   match-leak-kinds: reachable
   fun:_Znwm
   fun:_ZN3c1013demangle_typeIN5torch3jit27SROperatorFunctor_aten_geluEEEPKcv
   fun:_Z41__static_initialization_and_destruction_0ii.constprop.0
   fun:call_init.part.0
   fun:call_init
   fun:_dl_init
   obj:/usr/lib/x86_64-linux-gnu/ld-linux-x86-64.so.2
}
{
   <insert_a_suppression_name_here>
   Memcheck:Leak
   match-leak-kinds: reachable
   fun:_Znwm
   fun:_ZN3c1013demangle_typeIN5torch3jit36SROperatorFunctor_aten_gelu_backwardEEEPKcv
   fun:_Z41__static_initialization_and_destruction_0ii.constprop.0
   fun:call_init.part.0
   fun:call_init
   fun:_dl_init
   obj:/usr/lib/x86_64-linux-gnu/ld-linux-x86-64.so.2
}
{
   <insert_a_suppression_name_here>
   Memcheck:Leak
   match-leak-kinds: reachable
   fun:_Znwm
   fun:_ZN3c1013demangle_typeIN5torch3jit33SROperatorFunctor_aten_hardshrinkEEEPKcv
   fun:_Z41__static_initialization_and_destruction_0ii.constprop.0
   fun:call_init.part.0
   fun:call_init
   fun:_dl_init
   obj:/usr/lib/x86_64-linux-gnu/ld-linux-x86-64.so.2
}
{
   <insert_a_suppression_name_here>
   Memcheck:Leak
   match-leak-kinds: reachable
   fun:_Znwm
   fun:_ZN3c1013demangle_typeIN5torch3jit42SROperatorFunctor_aten_hardshrink_backwardEEEPKcv
   fun:_Z41__static_initialization_and_destruction_0ii.constprop.0
   fun:call_init.part.0
   fun:call_init
   fun:_dl_init
   obj:/usr/lib/x86_64-linux-gnu/ld-linux-x86-64.so.2
}
{
   <insert_a_suppression_name_here>
   Memcheck:Leak
   match-leak-kinds: reachable
   fun:_Znwm
   fun:_ZN3c1013demangle_typeIN5torch3jit28SROperatorFunctor_aten_rsqrtEEEPKcv
   fun:_Z41__static_initialization_and_destruction_0ii.constprop.0
   fun:call_init.part.0
   fun:call_init
   fun:_dl_init
   obj:/usr/lib/x86_64-linux-gnu/ld-linux-x86-64.so.2
}
{
   <insert_a_suppression_name_here>
   Memcheck:Leak
   match-leak-kinds: reachable
   fun:_Znwm
   fun:_ZN3c1013demangle_typeIN5torch3jit27SROperatorFunctor_aten_siluEEEPKcv
   fun:_Z41__static_initialization_and_destruction_0ii.constprop.0
   fun:call_init.part.0
   fun:call_init
   fun:_dl_init
   obj:/usr/lib/x86_64-linux-gnu/ld-linux-x86-64.so.2
}
{
   <insert_a_suppression_name_here>
   Memcheck:Leak
   match-leak-kinds: reachable
   fun:_Znwm
   fun:_ZN3c1013demangle_typeIN5torch3jit36SROperatorFunctor_aten_silu_backwardEEEPKcv
   fun:_Z41__static_initialization_and_destruction_0ii.constprop.0
   fun:call_init.part.0
   fun:call_init
   fun:_dl_init
   obj:/usr/lib/x86_64-linux-gnu/ld-linux-x86-64.so.2
}
{
   <insert_a_suppression_name_here>
   Memcheck:Leak
   match-leak-kinds: reachable
   fun:_Znwm
   fun:_ZN3c1013demangle_typeIN5torch3jit27SROperatorFunctor_aten_mishEEEPKcv
   fun:_Z41__static_initialization_and_destruction_0ii.constprop.0
   fun:call_init.part.0
   fun:call_init
   fun:_dl_init
   obj:/usr/lib/x86_64-linux-gnu/ld-linux-x86-64.so.2
}
{
   <insert_a_suppression_name_here>
   Memcheck:Leak
   match-leak-kinds: reachable
   fun:_Znwm
   fun:_ZN3c1013demangle_typeIN5torch3jit26SROperatorFunctor_aten_sinEEEPKcv
   fun:_Z41__static_initialization_and_destruction_0ii.constprop.0
   fun:call_init.part.0
   fun:call_init
   fun:_dl_init
   obj:/usr/lib/x86_64-linux-gnu/ld-linux-x86-64.so.2
}
{
   <insert_a_suppression_name_here>
   Memcheck:Leak
   match-leak-kinds: reachable
   fun:_Znwm
   fun:_ZN3c1013demangle_typeIN5torch3jit27SROperatorFunctor_aten_sincEEEPKcv
   fun:_Z41__static_initialization_and_destruction_0ii.constprop.0
   fun:call_init.part.0
   fun:call_init
   fun:_dl_init
   obj:/usr/lib/x86_64-linux-gnu/ld-linux-x86-64.so.2
}
{
   <insert_a_suppression_name_here>
   Memcheck:Leak
   match-leak-kinds: reachable
   fun:_Znwm
   fun:_ZN3c1013demangle_typeIN5torch3jit27SROperatorFunctor_aten_sinhEEEPKcv
   fun:_Z41__static_initialization_and_destruction_0ii.constprop.0
   fun:call_init.part.0
   fun:call_init
   fun:_dl_init
   obj:/usr/lib/x86_64-linux-gnu/ld-linux-x86-64.so.2
}
{
   <insert_a_suppression_name_here>
   Memcheck:Leak
   match-leak-kinds: reachable
   fun:_Znwm
   fun:_ZN3c1013demangle_typeIN5torch3jit31SROperatorFunctor_aten__softmaxEEEPKcv
   fun:_Z41__static_initialization_and_destruction_0ii.constprop.0
   fun:call_init.part.0
   fun:call_init
   fun:_dl_init
   obj:/usr/lib/x86_64-linux-gnu/ld-linux-x86-64.so.2
}
{
   <insert_a_suppression_name_here>
   Memcheck:Leak
   match-leak-kinds: reachable
   fun:_Znwm
   fun:_ZN3c1013demangle_typeIN5torch3jit45SROperatorFunctor_aten__softmax_backward_dataEEEPKcv
   fun:_Z41__static_initialization_and_destruction_0ii.constprop.0
   fun:call_init.part.0
   fun:call_init
   fun:_dl_init
   obj:/usr/lib/x86_64-linux-gnu/ld-linux-x86-64.so.2
}
{
   <insert_a_suppression_name_here>
   Memcheck:Leak
   match-leak-kinds: reachable
   fun:_Znwm
   fun:_ZN3c1013demangle_typeIN5torch3jit27SROperatorFunctor_aten_sqrtEEEPKcv
   fun:_Z41__static_initialization_and_destruction_0ii.constprop.0
   fun:call_init.part.0
   fun:call_init
   fun:_dl_init
   obj:/usr/lib/x86_64-linux-gnu/ld-linux-x86-64.so.2
}
{
   <insert_a_suppression_name_here>
   Memcheck:Leak
   match-leak-kinds: reachable
   fun:_Znwm
   fun:_ZN3c1013demangle_typeIN5torch3jit29SROperatorFunctor_aten_squareEEEPKcv
   fun:_Z41__static_initialization_and_destruction_0ii.constprop.0
   fun:call_init.part.0
   fun:call_init
   fun:_dl_init
   obj:/usr/lib/x86_64-linux-gnu/ld-linux-x86-64.so.2
}
{
   <insert_a_suppression_name_here>
   Memcheck:Leak
   match-leak-kinds: reachable
   fun:_Znwm
   fun:_ZN3c1013demangle_typeIN5torch3jit27SROperatorFunctor_aten_prodEEEPKcv
   fun:_Z41__static_initialization_and_destruction_0ii.constprop.0
   fun:call_init.part.0
   fun:call_init
   fun:_dl_init
   obj:/usr/lib/x86_64-linux-gnu/ld-linux-x86-64.so.2
}
{
   <insert_a_suppression_name_here>
   Memcheck:Leak
   match-leak-kinds: reachable
   fun:_Znwm
   fun:_ZN3c1013demangle_typeIN5torch3jit26SROperatorFunctor_aten_tanEEEPKcv
   fun:_Z41__static_initialization_and_destruction_0ii.constprop.0
   fun:call_init.part.0
   fun:call_init
   fun:_dl_init
   obj:/usr/lib/x86_64-linux-gnu/ld-linux-x86-64.so.2
}
{
   <insert_a_suppression_name_here>
   Memcheck:Leak
   match-leak-kinds: reachable
   fun:_Znwm
   fun:_ZN3c1013demangle_typeIN5torch3jit32SROperatorFunctor_aten_thresholdEEEPKcv
   fun:_Z41__static_initialization_and_destruction_0ii.constprop.0
   fun:call_init.part.0
   fun:call_init
   fun:_dl_init
   obj:/usr/lib/x86_64-linux-gnu/ld-linux-x86-64.so.2
}
{
   <insert_a_suppression_name_here>
   Memcheck:Leak
   match-leak-kinds: reachable
   fun:_Znwm
   fun:_ZN3c1013demangle_typeIN5torch3jit41SROperatorFunctor_aten_threshold_backwardEEEPKcv
   fun:_Z41__static_initialization_and_destruction_0ii.constprop.0
   fun:call_init.part.0
   fun:call_init
   fun:_dl_init
   obj:/usr/lib/x86_64-linux-gnu/ld-linux-x86-64.so.2
}
{
   <insert_a_suppression_name_here>
   Memcheck:Leak
   match-leak-kinds: reachable
   fun:_Znwm
   fun:_ZN3c1013demangle_typeIN5torch3jit28SROperatorFunctor_aten_truncEEEPKcv
   fun:_Z41__static_initialization_and_destruction_0ii.constprop.0
   fun:call_init.part.0
   fun:call_init
   fun:_dl_init
   obj:/usr/lib/x86_64-linux-gnu/ld-linux-x86-64.so.2
}
{
   <insert_a_suppression_name_here>
   Memcheck:Leak
   match-leak-kinds: reachable
   fun:_Znwm
   fun:_ZN3c1013demangle_typeIN5torch3jit26SROperatorFunctor_aten_fixEEEPKcv
   fun:_Z41__static_initialization_and_destruction_0ii.constprop.0
   fun:call_init.part.0
   fun:call_init
   fun:_dl_init
   obj:/usr/lib/x86_64-linux-gnu/ld-linux-x86-64.so.2
}
{
   <insert_a_suppression_name_here>
   Memcheck:Leak
   match-leak-kinds: reachable
   fun:_Znwm
   fun:_ZN3c1013demangle_typeIN5torch3jit35SROperatorFunctor_aten_nuclear_normEEEPKcv
   fun:_Z41__static_initialization_and_destruction_0ii.constprop.0
   fun:call_init.part.0
   fun:call_init
   fun:_dl_init
   obj:/usr/lib/x86_64-linux-gnu/ld-linux-x86-64.so.2
}
{
   <insert_a_suppression_name_here>
   Memcheck:Leak
   match-leak-kinds: reachable
   fun:_Znwm
   fun:_ZN3c1013demangle_typeIN5torch3jit31SROperatorFunctor_aten_subtractEEEPKcv
   fun:_Z41__static_initialization_and_destruction_0ii.constprop.0
   fun:call_init.part.0
   fun:call_init
   fun:_dl_init
   obj:/usr/lib/x86_64-linux-gnu/ld-linux-x86-64.so.2
}
{
   <insert_a_suppression_name_here>
   Memcheck:Leak
   match-leak-kinds: reachable
   fun:_Znwm
   fun:_ZN3c1013demangle_typeIN5torch3jit32SROperatorFunctor_aten_heavisideEEEPKcv
   fun:_Z41__static_initialization_and_destruction_0ii.constprop.0
   fun:call_init.part.0
   fun:call_init
   fun:_dl_init
   obj:/usr/lib/x86_64-linux-gnu/ld-linux-x86-64.so.2
}
{
   <insert_a_suppression_name_here>
   Memcheck:Leak
   match-leak-kinds: reachable
   fun:_Znwm
   fun:_ZN3c1013demangle_typeIN5torch3jit40SROperatorFunctor_aten__addmm_activationEEEPKcv
   fun:_Z41__static_initialization_and_destruction_0ii.constprop.0
   fun:call_init.part.0
   fun:call_init
   fun:_dl_init
   obj:/usr/lib/x86_64-linux-gnu/ld-linux-x86-64.so.2
}
{
   <insert_a_suppression_name_here>
   Memcheck:Leak
   match-leak-kinds: reachable
   fun:_Znwm
   fun:_ZN3c1013demangle_typeIN5torch3jit32SROperatorFunctor_aten_index_addEEEPKcv
   fun:_Z41__static_initialization_and_destruction_0ii.constprop.0
   fun:call_init.part.0
   fun:call_init
   fun:_dl_init
   obj:/usr/lib/x86_64-linux-gnu/ld-linux-x86-64.so.2
}
{
   <insert_a_suppression_name_here>
   Memcheck:Leak
   match-leak-kinds: reachable
   fun:_Znwm
   fun:_ZN3c1013demangle_typeIN5torch3jit30SROperatorFunctor_aten_scatterEEEPKcv
   fun:_Z41__static_initialization_and_destruction_0ii.constprop.0
   fun:call_init.part.0
   fun:call_init
   fun:_dl_init
   obj:/usr/lib/x86_64-linux-gnu/ld-linux-x86-64.so.2
}
{
   <insert_a_suppression_name_here>
   Memcheck:Leak
   match-leak-kinds: reachable
   fun:_Znwm
   fun:_ZN3c1013demangle_typeIN5torch3jit34SROperatorFunctor_aten_scatter_addEEEPKcv
   fun:_Z41__static_initialization_and_destruction_0ii.constprop.0
   fun:call_init.part.0
   fun:call_init
   fun:_dl_init
   obj:/usr/lib/x86_64-linux-gnu/ld-linux-x86-64.so.2
}
{
   <insert_a_suppression_name_here>
   Memcheck:Leak
   match-leak-kinds: reachable
   fun:_Znwm
   fun:_ZN3c1013demangle_typeIN5torch3jit37SROperatorFunctor_aten_scatter_reduceEEEPKcv
   fun:_Z41__static_initialization_and_destruction_0ii.constprop.0
   fun:call_init.part.0
   fun:call_init
   fun:_dl_init
   obj:/usr/lib/x86_64-linux-gnu/ld-linux-x86-64.so.2
}
{
   <insert_a_suppression_name_here>
   Memcheck:Leak
   match-leak-kinds: reachable
   fun:_Znwm
   fun:_ZN3c1013demangle_typeIN5torch3jit25SROperatorFunctor_aten_eqEEEPKcv
   fun:_Z41__static_initialization_and_destruction_0ii.constprop.0
   fun:call_init.part.0
   fun:call_init
   fun:_dl_init
   obj:/usr/lib/x86_64-linux-gnu/ld-linux-x86-64.so.2
}
{
   <insert_a_suppression_name_here>
   Memcheck:Leak
   match-leak-kinds: reachable
   fun:_Znwm
   fun:_ZN3c1013demangle_typeIN5torch3jit34SROperatorFunctor_aten_bitwise_andEEEPKcv
   fun:_Z41__static_initialization_and_destruction_0ii.constprop.0
   fun:call_init.part.0
   fun:call_init
   fun:_dl_init
   obj:/usr/lib/x86_64-linux-gnu/ld-linux-x86-64.so.2
}
{
   <insert_a_suppression_name_here>
   Memcheck:Leak
   match-leak-kinds: reachable
   fun:_Znwm
   fun:_ZN3c1013demangle_typeIN5torch3jit33SROperatorFunctor_aten_bitwise_orEEEPKcv
   fun:_Z41__static_initialization_and_destruction_0ii.constprop.0
   fun:call_init.part.0
   fun:call_init
   fun:_dl_init
   obj:/usr/lib/x86_64-linux-gnu/ld-linux-x86-64.so.2
}
{
   <insert_a_suppression_name_here>
   Memcheck:Leak
   match-leak-kinds: reachable
   fun:_Znwm
   fun:_ZN3c1013demangle_typeIN5torch3jit34SROperatorFunctor_aten_bitwise_xorEEEPKcv
   fun:_Z41__static_initialization_and_destruction_0ii.constprop.0
   fun:call_init.part.0
   fun:call_init
   fun:_dl_init
   obj:/usr/lib/x86_64-linux-gnu/ld-linux-x86-64.so.2
}
{
   <insert_a_suppression_name_here>
   Memcheck:Leak
   match-leak-kinds: reachable
   fun:_Znwm
   fun:_ZN3c1013demangle_typeIN5torch3jit41SROperatorFunctor_aten_bitwise_left_shiftEEEPKcv
   fun:_Z41__static_initialization_and_destruction_0ii.constprop.0
   fun:call_init.part.0
   fun:call_init
   fun:_dl_init
   obj:/usr/lib/x86_64-linux-gnu/ld-linux-x86-64.so.2
}
{
   <insert_a_suppression_name_here>
   Memcheck:Leak
   match-leak-kinds: reachable
   fun:_Znwm
   fun:_ZN3c1013demangle_typeIN5torch3jit42SROperatorFunctor_aten_bitwise_right_shiftEEEPKcv
   fun:_Z41__static_initialization_and_destruction_0ii.constprop.0
   fun:call_init.part.0
   fun:call_init
   fun:_dl_init
   obj:/usr/lib/x86_64-linux-gnu/ld-linux-x86-64.so.2
}
{
   <insert_a_suppression_name_here>
   Memcheck:Leak
   match-leak-kinds: reachable
   fun:_Znwm
   fun:_ZN3c1013demangle_typeIN5torch3jit27SROperatorFunctor_aten_trilEEEPKcv
   fun:_Z41__static_initialization_and_destruction_0ii.constprop.0
   fun:call_init.part.0
   fun:call_init
   fun:_dl_init
   obj:/usr/lib/x86_64-linux-gnu/ld-linux-x86-64.so.2
}
{
   <insert_a_suppression_name_here>
   Memcheck:Leak
   match-leak-kinds: reachable
   fun:_Znwm
   fun:_ZN3c1013demangle_typeIN5torch3jit27SROperatorFunctor_aten_triuEEEPKcv
   fun:_Z41__static_initialization_and_destruction_0ii.constprop.0
   fun:call_init.part.0
   fun:call_init
   fun:_dl_init
   obj:/usr/lib/x86_64-linux-gnu/ld-linux-x86-64.so.2
}
{
   <insert_a_suppression_name_here>
   Memcheck:Leak
   match-leak-kinds: reachable
   fun:_Znwm
   fun:_ZN3c1013demangle_typeIN5torch3jit30SROperatorFunctor_aten_digammaEEEPKcv
   fun:_Z41__static_initialization_and_destruction_0ii.constprop.0
   fun:call_init.part.0
   fun:call_init
   fun:_dl_init
   obj:/usr/lib/x86_64-linux-gnu/ld-linux-x86-64.so.2
}
{
   <insert_a_suppression_name_here>
   Memcheck:Leak
   match-leak-kinds: reachable
   fun:_Znwm
   fun:_ZN3c1013demangle_typeIN5torch3jit27SROperatorFunctor_aten_lerpEEEPKcv
   fun:_Z41__static_initialization_and_destruction_0ii.constprop.0
   fun:call_init.part.0
   fun:call_init
   fun:_dl_init
   obj:/usr/lib/x86_64-linux-gnu/ld-linux-x86-64.so.2
}
{
   <insert_a_suppression_name_here>
   Memcheck:Leak
   match-leak-kinds: reachable
   fun:_Znwm
   fun:_ZN3c1013demangle_typeIN5torch3jit29SROperatorFunctor_aten_addbmmEEEPKcv
   fun:_Z41__static_initialization_and_destruction_0ii.constprop.0
   fun:call_init.part.0
   fun:call_init
   fun:_dl_init
   obj:/usr/lib/x86_64-linux-gnu/ld-linux-x86-64.so.2
}
{
   <insert_a_suppression_name_here>
   Memcheck:Leak
   match-leak-kinds: reachable
   fun:_Znwm
   fun:_ZN3c1013demangle_typeIN5torch3jit28SROperatorFunctor_aten_crossEEEPKcv
   fun:_Z41__static_initialization_and_destruction_0ii.constprop.0
   fun:call_init.part.0
   fun:call_init
   fun:_dl_init
   obj:/usr/lib/x86_64-linux-gnu/ld-linux-x86-64.so.2
}
{
   <insert_a_suppression_name_here>
   Memcheck:Leak
   match-leak-kinds: reachable
   fun:_Znwm
   fun:_ZN3c1013demangle_typeIN5torch3jit25SROperatorFunctor_aten_neEEEPKcv
   fun:_Z41__static_initialization_and_destruction_0ii.constprop.0
   fun:call_init.part.0
   fun:call_init
   fun:_dl_init
   obj:/usr/lib/x86_64-linux-gnu/ld-linux-x86-64.so.2
}
{
   <insert_a_suppression_name_here>
   Memcheck:Leak
   match-leak-kinds: reachable
   fun:_Znwm
   fun:_ZN3c1013demangle_typeIN5torch3jit25SROperatorFunctor_aten_geEEEPKcv
   fun:_Z41__static_initialization_and_destruction_0ii.constprop.0
   fun:call_init.part.0
   fun:call_init
   fun:_dl_init
   obj:/usr/lib/x86_64-linux-gnu/ld-linux-x86-64.so.2
}
{
   <insert_a_suppression_name_here>
   Memcheck:Leak
   match-leak-kinds: reachable
   fun:_Znwm
   fun:_ZN3c1013demangle_typeIN5torch3jit25SROperatorFunctor_aten_leEEEPKcv
   fun:_Z41__static_initialization_and_destruction_0ii.constprop.0
   fun:call_init.part.0
   fun:call_init
   fun:_dl_init
   obj:/usr/lib/x86_64-linux-gnu/ld-linux-x86-64.so.2
}
{
   <insert_a_suppression_name_here>
   Memcheck:Leak
   match-leak-kinds: reachable
   fun:_Znwm
   fun:_ZN3c1013demangle_typeIN5torch3jit25SROperatorFunctor_aten_gtEEEPKcv
   fun:_Z41__static_initialization_and_destruction_0ii.constprop.0
   fun:call_init.part.0
   fun:call_init
   fun:_dl_init
   obj:/usr/lib/x86_64-linux-gnu/ld-linux-x86-64.so.2
}
{
   <insert_a_suppression_name_here>
   Memcheck:Leak
   match-leak-kinds: reachable
   fun:_Znwm
   fun:_ZN3c1013demangle_typeIN5torch3jit25SROperatorFunctor_aten_ltEEEPKcv
   fun:_Z41__static_initialization_and_destruction_0ii.constprop.0
   fun:call_init.part.0
   fun:call_init
   fun:_dl_init
   obj:/usr/lib/x86_64-linux-gnu/ld-linux-x86-64.so.2
}
{
   <insert_a_suppression_name_here>
   Memcheck:Leak
   match-leak-kinds: reachable
   fun:_Znwm
   fun:_ZN3c1013demangle_typeIN5torch3jit27SROperatorFunctor_aten_takeEEEPKcv
   fun:_Z41__static_initialization_and_destruction_0ii.constprop.0
   fun:call_init.part.0
   fun:call_init
   fun:_dl_init
   obj:/usr/lib/x86_64-linux-gnu/ld-linux-x86-64.so.2
}
{
   <insert_a_suppression_name_here>
   Memcheck:Leak
   match-leak-kinds: reachable
   fun:_Znwm
   fun:_ZN3c1013demangle_typeIN5torch3jit37SROperatorFunctor_aten_take_along_dimEEEPKcv
   fun:_Z41__static_initialization_and_destruction_0ii.constprop.0
   fun:call_init.part.0
   fun:call_init
   fun:_dl_init
   obj:/usr/lib/x86_64-linux-gnu/ld-linux-x86-64.so.2
}
{
   <insert_a_suppression_name_here>
   Memcheck:Leak
   match-leak-kinds: reachable
   fun:_Znwm
   fun:_ZN3c1013demangle_typeIN5torch3jit36SROperatorFunctor_aten_masked_selectEEEPKcv
   fun:_Z41__static_initialization_and_destruction_0ii.constprop.0
   fun:call_init.part.0
   fun:call_init
   fun:_dl_init
   obj:/usr/lib/x86_64-linux-gnu/ld-linux-x86-64.so.2
}
{
   <insert_a_suppression_name_here>
   Memcheck:Leak
   match-leak-kinds: reachable
   fun:_Znwm
   fun:_ZN3c1013demangle_typeIN5torch3jit29SROperatorFunctor_aten_gatherEEEPKcv
   fun:_Z41__static_initialization_and_destruction_0ii.constprop.0
   fun:call_init.part.0
   fun:call_init
   fun:_dl_init
   obj:/usr/lib/x86_64-linux-gnu/ld-linux-x86-64.so.2
}
{
   <insert_a_suppression_name_here>
   Memcheck:Leak
   match-leak-kinds: reachable
   fun:_Znwm
   fun:_ZN3c1013demangle_typeIN5torch3jit30SROperatorFunctor_aten_addcmulEEEPKcv
   fun:_Z41__static_initialization_and_destruction_0ii.constprop.0
   fun:call_init.part.0
   fun:call_init
   fun:_dl_init
   obj:/usr/lib/x86_64-linux-gnu/ld-linux-x86-64.so.2
}
{
   <insert_a_suppression_name_here>
   Memcheck:Leak
   match-leak-kinds: reachable
   fun:_Znwm
   fun:_ZN3c1013demangle_typeIN5torch3jit30SROperatorFunctor_aten_addcdivEEEPKcv
   fun:_Z41__static_initialization_and_destruction_0ii.constprop.0
   fun:call_init.part.0
   fun:call_init
   fun:_dl_init
   obj:/usr/lib/x86_64-linux-gnu/ld-linux-x86-64.so.2
}
{
   <insert_a_suppression_name_here>
   Memcheck:Leak
   match-leak-kinds: reachable
   fun:_Znwm
   fun:_ZN3c1013demangle_typeIN5torch3jit46SROperatorFunctor_aten_linalg_solve_triangularEEEPKcv
   fun:_Z41__static_initialization_and_destruction_0ii.constprop.0
   fun:call_init.part.0
   fun:call_init
   fun:_dl_init
   obj:/usr/lib/x86_64-linux-gnu/ld-linux-x86-64.so.2
}
{
   <insert_a_suppression_name_here>
   Memcheck:Leak
   match-leak-kinds: reachable
   fun:_Znwm
   fun:_ZN3c1013demangle_typeIN5torch3jit37SROperatorFunctor_aten_cholesky_solveEEEPKcv
   fun:_Z41__static_initialization_and_destruction_0ii.constprop.0
   fun:call_init.part.0
   fun:call_init
   fun:_dl_init
   obj:/usr/lib/x86_64-linux-gnu/ld-linux-x86-64.so.2
}
{
   <insert_a_suppression_name_here>
   Memcheck:Leak
   match-leak-kinds: reachable
   fun:_Znwm
   fun:_ZN3c1013demangle_typeIN5torch3jit39SROperatorFunctor_aten_cholesky_inverseEEEPKcv
   fun:_Z41__static_initialization_and_destruction_0ii.constprop.0
   fun:call_init.part.0
   fun:call_init
   fun:_dl_init
   obj:/usr/lib/x86_64-linux-gnu/ld-linux-x86-64.so.2
}
{
   <insert_a_suppression_name_here>
   Memcheck:Leak
   match-leak-kinds: reachable
   fun:_Znwm
   fun:_ZN3c1013demangle_typeIN5torch3jit28SROperatorFunctor_aten_orgqrEEEPKcv
   fun:_Z41__static_initialization_and_destruction_0ii.constprop.0
   fun:call_init.part.0
   fun:call_init
   fun:_dl_init
   obj:/usr/lib/x86_64-linux-gnu/ld-linux-x86-64.so.2
}
{
   <insert_a_suppression_name_here>
   Memcheck:Leak
   match-leak-kinds: reachable
   fun:_Znwm
   fun:_ZN3c1013demangle_typeIN5torch3jit28SROperatorFunctor_aten_ormqrEEEPKcv
   fun:_Z41__static_initialization_and_destruction_0ii.constprop.0
   fun:call_init.part.0
   fun:call_init
   fun:_dl_init
   obj:/usr/lib/x86_64-linux-gnu/ld-linux-x86-64.so.2
}
{
   <insert_a_suppression_name_here>
   Memcheck:Leak
   match-leak-kinds: reachable
   fun:_Znwm
   fun:_ZN3c1013demangle_typeIN5torch3jit29SROperatorFunctor_aten_lgammaEEEPKcv
   fun:_Z41__static_initialization_and_destruction_0ii.constprop.0
   fun:call_init.part.0
   fun:call_init
   fun:_dl_init
   obj:/usr/lib/x86_64-linux-gnu/ld-linux-x86-64.so.2
}
{
   <insert_a_suppression_name_here>
   Memcheck:Leak
   match-leak-kinds: reachable
   fun:_Znwm
   fun:_ZN3c1013demangle_typeIN5torch3jit32SROperatorFunctor_aten_polygammaEEEPKcv
   fun:_Z41__static_initialization_and_destruction_0ii.constprop.0
   fun:call_init.part.0
   fun:call_init
   fun:_dl_init
   obj:/usr/lib/x86_64-linux-gnu/ld-linux-x86-64.so.2
}
{
   <insert_a_suppression_name_here>
   Memcheck:Leak
   match-leak-kinds: reachable
   fun:_Znwm
   fun:_ZN3c1013demangle_typeIN5torch3jit29SROperatorFunctor_aten_erfinvEEEPKcv
   fun:_Z41__static_initialization_and_destruction_0ii.constprop.0
   fun:call_init.part.0
   fun:call_init
   fun:_dl_init
   obj:/usr/lib/x86_64-linux-gnu/ld-linux-x86-64.so.2
}
{
   <insert_a_suppression_name_here>
   Memcheck:Leak
   match-leak-kinds: reachable
   fun:_Znwm
   fun:_ZN3c1013demangle_typeIN5torch3jit25SROperatorFunctor_aten_i0EEEPKcv
   fun:_Z41__static_initialization_and_destruction_0ii.constprop.0
   fun:call_init.part.0
   fun:call_init
   fun:_dl_init
   obj:/usr/lib/x86_64-linux-gnu/ld-linux-x86-64.so.2
}
{
   <insert_a_suppression_name_here>
   Memcheck:Leak
   match-leak-kinds: reachable
   fun:_Znwm
   fun:_ZN3c1013demangle_typeIN5torch3jit30SROperatorFunctor_aten_signbitEEEPKcv
   fun:_Z41__static_initialization_and_destruction_0ii.constprop.0
   fun:call_init.part.0
   fun:call_init
   fun:_dl_init
   obj:/usr/lib/x86_64-linux-gnu/ld-linux-x86-64.so.2
}
{
   <insert_a_suppression_name_here>
   Memcheck:Leak
   match-leak-kinds: reachable
   fun:_Znwm
   fun:_ZN3c1013demangle_typeIN5torch3jit28SROperatorFunctor_aten_atan2EEEPKcv
   fun:_Z41__static_initialization_and_destruction_0ii.constprop.0
   fun:call_init.part.0
   fun:call_init
   fun:_dl_init
   obj:/usr/lib/x86_64-linux-gnu/ld-linux-x86-64.so.2
}
{
   <insert_a_suppression_name_here>
   Memcheck:Leak
   match-leak-kinds: reachable
   fun:_Znwm
   fun:_ZN3c1013demangle_typeIN5torch3jit30SROperatorFunctor_aten_arctan2EEEPKcv
   fun:_Z41__static_initialization_and_destruction_0ii.constprop.0
   fun:call_init.part.0
   fun:call_init
   fun:_dl_init
   obj:/usr/lib/x86_64-linux-gnu/ld-linux-x86-64.so.2
}
{
   <insert_a_suppression_name_here>
   Memcheck:Leak
   match-leak-kinds: reachable
   fun:_Znwm
   fun:_ZN3c1013demangle_typeIN5torch3jit28SROperatorFunctor_aten_histcEEEPKcv
   fun:_Z41__static_initialization_and_destruction_0ii.constprop.0
   fun:call_init.part.0
   fun:call_init
   fun:_dl_init
   obj:/usr/lib/x86_64-linux-gnu/ld-linux-x86-64.so.2
}
{
   <insert_a_suppression_name_here>
   Memcheck:Leak
   match-leak-kinds: reachable
   fun:_Znwm
   fun:_ZN3c1013demangle_typeIN5torch3jit28SROperatorFunctor_aten_hypotEEEPKcv
   fun:_Z41__static_initialization_and_destruction_0ii.constprop.0
   fun:call_init.part.0
   fun:call_init
   fun:_dl_init
   obj:/usr/lib/x86_64-linux-gnu/ld-linux-x86-64.so.2
}
{
   <insert_a_suppression_name_here>
   Memcheck:Leak
   match-leak-kinds: reachable
   fun:_Znwm
   fun:_ZN3c1013demangle_typeIN5torch3jit29SROperatorFunctor_aten_igammaEEEPKcv
   fun:_Z41__static_initialization_and_destruction_0ii.constprop.0
   fun:call_init.part.0
   fun:call_init
   fun:_dl_init
   obj:/usr/lib/x86_64-linux-gnu/ld-linux-x86-64.so.2
}
{
   <insert_a_suppression_name_here>
   Memcheck:Leak
   match-leak-kinds: reachable
   fun:_Znwm
   fun:_ZN3c1013demangle_typeIN5torch3jit30SROperatorFunctor_aten_igammacEEEPKcv
   fun:_Z41__static_initialization_and_destruction_0ii.constprop.0
   fun:call_init.part.0
   fun:call_init
   fun:_dl_init
   obj:/usr/lib/x86_64-linux-gnu/ld-linux-x86-64.so.2
}
{
   <insert_a_suppression_name_here>
   Memcheck:Leak
   match-leak-kinds: reachable
   fun:_Znwm
   fun:_ZN3c1013demangle_typeIN5torch3jit32SROperatorFunctor_aten_nextafterEEEPKcv
   fun:_Z41__static_initialization_and_destruction_0ii.constprop.0
   fun:call_init.part.0
   fun:call_init
   fun:_dl_init
   obj:/usr/lib/x86_64-linux-gnu/ld-linux-x86-64.so.2
}
{
   <insert_a_suppression_name_here>
   Memcheck:Leak
   match-leak-kinds: reachable
   fun:_Znwm
   fun:_ZN3c1013demangle_typeIN5torch3jit27SROperatorFunctor_aten_fminEEEPKcv
   fun:_Z41__static_initialization_and_destruction_0ii.constprop.0
   fun:call_init.part.0
   fun:call_init
   fun:_dl_init
   obj:/usr/lib/x86_64-linux-gnu/ld-linux-x86-64.so.2
}
{
   <insert_a_suppression_name_here>
   Memcheck:Leak
   match-leak-kinds: reachable
   fun:_Znwm
   fun:_ZN3c1013demangle_typeIN5torch3jit27SROperatorFunctor_aten_fmaxEEEPKcv
   fun:_Z41__static_initialization_and_destruction_0ii.constprop.0
   fun:call_init.part.0
   fun:call_init
   fun:_dl_init
   obj:/usr/lib/x86_64-linux-gnu/ld-linux-x86-64.so.2
}
{
   <insert_a_suppression_name_here>
   Memcheck:Leak
   match-leak-kinds: reachable
   fun:_Znwm
   fun:_ZN3c1013demangle_typeIN5torch3jit30SROperatorFunctor_aten_maximumEEEPKcv
   fun:_Z41__static_initialization_and_destruction_0ii.constprop.0
   fun:call_init.part.0
   fun:call_init
   fun:_dl_init
   obj:/usr/lib/x86_64-linux-gnu/ld-linux-x86-64.so.2
}
{
   <insert_a_suppression_name_here>
   Memcheck:Leak
   match-leak-kinds: reachable
   fun:_Znwm
   fun:_ZN3c1013demangle_typeIN5torch3jit30SROperatorFunctor_aten_minimumEEEPKcv
   fun:_Z41__static_initialization_and_destruction_0ii.constprop.0
   fun:call_init.part.0
   fun:call_init
   fun:_dl_init
   obj:/usr/lib/x86_64-linux-gnu/ld-linux-x86-64.so.2
}
{
   <insert_a_suppression_name_here>
   Memcheck:Leak
   match-leak-kinds: reachable
   fun:_Znwm
   fun:_ZN3c1013demangle_typeIN5torch3jit26SROperatorFunctor_aten_minEEEPKcv
   fun:_Z41__static_initialization_and_destruction_0ii.constprop.0
   fun:call_init.part.0
   fun:call_init
   fun:_dl_init
   obj:/usr/lib/x86_64-linux-gnu/ld-linux-x86-64.so.2
}
{
   <insert_a_suppression_name_here>
   Memcheck:Leak
   match-leak-kinds: reachable
   fun:_Znwm
   fun:_ZN3c1013demangle_typeIN5torch3jit31SROperatorFunctor_aten_quantileEEEPKcv
   fun:_Z41__static_initialization_and_destruction_0ii.constprop.0
   fun:call_init.part.0
   fun:call_init
   fun:_dl_init
   obj:/usr/lib/x86_64-linux-gnu/ld-linux-x86-64.so.2
}
{
   <insert_a_suppression_name_here>
   Memcheck:Leak
   match-leak-kinds: reachable
   fun:_Znwm
   fun:_ZN3c1013demangle_typeIN5torch3jit34SROperatorFunctor_aten_nanquantileEEEPKcv
   fun:_Z41__static_initialization_and_destruction_0ii.constprop.0
   fun:call_init.part.0
   fun:call_init
   fun:_dl_init
   obj:/usr/lib/x86_64-linux-gnu/ld-linux-x86-64.so.2
}
{
   <insert_a_suppression_name_here>
   Memcheck:Leak
   match-leak-kinds: reachable
   fun:_Znwm
   fun:_ZN3c1013demangle_typeIN5torch3jit28SROperatorFunctor_aten_msortEEEPKcv
   fun:_Z41__static_initialization_and_destruction_0ii.constprop.0
   fun:call_init.part.0
   fun:call_init
   fun:_dl_init
   obj:/usr/lib/x86_64-linux-gnu/ld-linux-x86-64.so.2
}
{
   <insert_a_suppression_name_here>
   Memcheck:Leak
   match-leak-kinds: reachable
   fun:_Znwm
   fun:_ZN3c1013demangle_typeIN5torch3jit29SROperatorFunctor_aten_renormEEEPKcv
   fun:_Z41__static_initialization_and_destruction_0ii.constprop.0
   fun:call_init.part.0
   fun:call_init
   fun:_dl_init
   obj:/usr/lib/x86_64-linux-gnu/ld-linux-x86-64.so.2
}
{
   <insert_a_suppression_name_here>
   Memcheck:Leak
   match-leak-kinds: reachable
   fun:_Znwm
   fun:_ZN3c1013demangle_typeIN5torch3jit55SROperatorFunctor_aten__convert_indices_from_coo_to_csrEEEPKcv
   fun:_Z41__static_initialization_and_destruction_0ii.constprop.0
   fun:call_init.part.0
   fun:call_init
   fun:_dl_init
   obj:/usr/lib/x86_64-linux-gnu/ld-linux-x86-64.so.2
}
{
   <insert_a_suppression_name_here>
   Memcheck:Leak
   match-leak-kinds: reachable
   fun:_Znwm
   fun:_ZN3c1013demangle_typeIN5torch3jit55SROperatorFunctor_aten__convert_indices_from_csr_to_cooEEEPKcv
   fun:_Z41__static_initialization_and_destruction_0ii.constprop.0
   fun:call_init.part.0
   fun:call_init
   fun:_dl_init
   obj:/usr/lib/x86_64-linux-gnu/ld-linux-x86-64.so.2
}
{
   <insert_a_suppression_name_here>
   Memcheck:Leak
   match-leak-kinds: reachable
   fun:_Znwm
   fun:_ZN3c1013demangle_typeIN5torch3jit31SROperatorFunctor_aten_mse_lossEEEPKcv
   fun:_Z41__static_initialization_and_destruction_0ii.constprop.0
   fun:call_init.part.0
   fun:call_init
   fun:_dl_init
   obj:/usr/lib/x86_64-linux-gnu/ld-linux-x86-64.so.2
}
{
   <insert_a_suppression_name_here>
   Memcheck:Leak
   match-leak-kinds: reachable
   fun:_Znwm
   fun:_ZN3c1013demangle_typeIN5torch3jit40SROperatorFunctor_aten_multi_margin_lossEEEPKcv
   fun:_Z41__static_initialization_and_destruction_0ii.constprop.0
   fun:call_init.part.0
   fun:call_init
   fun:_dl_init
   obj:/usr/lib/x86_64-linux-gnu/ld-linux-x86-64.so.2
}
{
   <insert_a_suppression_name_here>
   Memcheck:Leak
   match-leak-kinds: reachable
   fun:_Znwm
   fun:_ZN3c1013demangle_typeIN5torch3jit45SROperatorFunctor_aten_multilabel_margin_lossEEEPKcv
   fun:_Z41__static_initialization_and_destruction_0ii.constprop.0
   fun:call_init.part.0
   fun:call_init
   fun:_dl_init
   obj:/usr/lib/x86_64-linux-gnu/ld-linux-x86-64.so.2
}
{
   <insert_a_suppression_name_here>
   Memcheck:Leak
   match-leak-kinds: reachable
   fun:_Znwm
   fun:_ZN3c1013demangle_typeIN5torch3jit39SROperatorFunctor_aten_soft_margin_lossEEEPKcv
   fun:_Z41__static_initialization_and_destruction_0ii.constprop.0
   fun:call_init.part.0
   fun:call_init
   fun:_dl_init
   obj:/usr/lib/x86_64-linux-gnu/ld-linux-x86-64.so.2
}
{
   <insert_a_suppression_name_here>
   Memcheck:Leak
   match-leak-kinds: reachable
   fun:_Znwm
   fun:_ZN3c1013demangle_typeIN5torch3jit26SROperatorFunctor_aten_eluEEEPKcv
   fun:_Z41__static_initialization_and_destruction_0ii.constprop.0
   fun:call_init.part.0
   fun:call_init
   fun:_dl_init
   obj:/usr/lib/x86_64-linux-gnu/ld-linux-x86-64.so.2
}
{
   <insert_a_suppression_name_here>
   Memcheck:Leak
   match-leak-kinds: reachable
   fun:_Znwm
   fun:_ZN3c1013demangle_typeIN5torch3jit35SROperatorFunctor_aten_elu_backwardEEEPKcv
   fun:_Z41__static_initialization_and_destruction_0ii.constprop.0
   fun:call_init.part.0
   fun:call_init
   fun:_dl_init
   obj:/usr/lib/x86_64-linux-gnu/ld-linux-x86-64.so.2
}
{
   <insert_a_suppression_name_here>
   Memcheck:Leak
   match-leak-kinds: reachable
   fun:_Znwm
   fun:_ZN3c1013demangle_typeIN5torch3jit26SROperatorFunctor_aten_gluEEEPKcv
   fun:_Z41__static_initialization_and_destruction_0ii.constprop.0
   fun:call_init.part.0
   fun:call_init
   fun:_dl_init
   obj:/usr/lib/x86_64-linux-gnu/ld-linux-x86-64.so.2
}
{
   <insert_a_suppression_name_here>
   Memcheck:Leak
   match-leak-kinds: reachable
   fun:_Znwm
   fun:_ZN3c1013demangle_typeIN5torch3jit34SROperatorFunctor_aten_hardsigmoidEEEPKcv
   fun:_Z41__static_initialization_and_destruction_0ii.constprop.0
   fun:call_init.part.0
   fun:call_init
   fun:_dl_init
   obj:/usr/lib/x86_64-linux-gnu/ld-linux-x86-64.so.2
}
{
   <insert_a_suppression_name_here>
   Memcheck:Leak
   match-leak-kinds: reachable
   fun:_Znwm
   fun:_ZN3c1013demangle_typeIN5torch3jit43SROperatorFunctor_aten_hardsigmoid_backwardEEEPKcv
   fun:_Z41__static_initialization_and_destruction_0ii.constprop.0
   fun:call_init.part.0
   fun:call_init
   fun:_dl_init
   obj:/usr/lib/x86_64-linux-gnu/ld-linux-x86-64.so.2
}
{
   <insert_a_suppression_name_here>
   Memcheck:Leak
   match-leak-kinds: reachable
   fun:_Znwm
   fun:_ZN3c1013demangle_typeIN5torch3jit31SROperatorFunctor_aten_hardtanhEEEPKcv
   fun:_Z41__static_initialization_and_destruction_0ii.constprop.0
   fun:call_init.part.0
   fun:call_init
   fun:_dl_init
   obj:/usr/lib/x86_64-linux-gnu/ld-linux-x86-64.so.2
}
{
   <insert_a_suppression_name_here>
   Memcheck:Leak
   match-leak-kinds: reachable
   fun:_Znwm
   fun:_ZN3c1013demangle_typeIN5torch3jit32SROperatorFunctor_aten_hardswishEEEPKcv
   fun:_Z41__static_initialization_and_destruction_0ii.constprop.0
   fun:call_init.part.0
   fun:call_init
   fun:_dl_init
   obj:/usr/lib/x86_64-linux-gnu/ld-linux-x86-64.so.2
}
{
   <insert_a_suppression_name_here>
   Memcheck:Leak
   match-leak-kinds: reachable
   fun:_Znwm
   fun:_ZN3c1013demangle_typeIN5torch3jit42SROperatorFunctor_aten_leaky_relu_backwardEEEPKcv
   fun:_Z41__static_initialization_and_destruction_0ii.constprop.0
   fun:call_init.part.0
   fun:call_init
   fun:_dl_init
   obj:/usr/lib/x86_64-linux-gnu/ld-linux-x86-64.so.2
}
{
   <insert_a_suppression_name_here>
   Memcheck:Leak
   match-leak-kinds: reachable
   fun:_Znwm
   fun:_ZN3c1013demangle_typeIN5torch3jit34SROperatorFunctor_aten_log_sigmoidEEEPKcv
   fun:_Z41__static_initialization_and_destruction_0ii.constprop.0
   fun:call_init.part.0
   fun:call_init
   fun:_dl_init
   obj:/usr/lib/x86_64-linux-gnu/ld-linux-x86-64.so.2
}
{
   <insert_a_suppression_name_here>
   Memcheck:Leak
   match-leak-kinds: reachable
   fun:_Znwm
   fun:_ZN3c1013demangle_typeIN5torch3jit31SROperatorFunctor_aten_softplusEEEPKcv
   fun:_Z41__static_initialization_and_destruction_0ii.constprop.0
   fun:call_init.part.0
   fun:call_init
   fun:_dl_init
   obj:/usr/lib/x86_64-linux-gnu/ld-linux-x86-64.so.2
}
{
   <insert_a_suppression_name_here>
   Memcheck:Leak
   match-leak-kinds: reachable
   fun:_Znwm
   fun:_ZN3c1013demangle_typeIN5torch3jit40SROperatorFunctor_aten_softplus_backwardEEEPKcv
   fun:_Z41__static_initialization_and_destruction_0ii.constprop.0
   fun:call_init.part.0
   fun:call_init
   fun:_dl_init
   obj:/usr/lib/x86_64-linux-gnu/ld-linux-x86-64.so.2
}
{
   <insert_a_suppression_name_here>
   Memcheck:Leak
   match-leak-kinds: reachable
   fun:_Znwm
   fun:_ZN3c1013demangle_typeIN5torch3jit33SROperatorFunctor_aten_softshrinkEEEPKcv
   fun:_Z41__static_initialization_and_destruction_0ii.constprop.0
   fun:call_init.part.0
   fun:call_init
   fun:_dl_init
   obj:/usr/lib/x86_64-linux-gnu/ld-linux-x86-64.so.2
}
{
   <insert_a_suppression_name_here>
   Memcheck:Leak
   match-leak-kinds: reachable
   fun:_Znwm
   fun:_ZN3c1013demangle_typeIN5torch3jit42SROperatorFunctor_aten_softshrink_backwardEEEPKcv
   fun:_Z41__static_initialization_and_destruction_0ii.constprop.0
   fun:call_init.part.0
   fun:call_init
   fun:_dl_init
   obj:/usr/lib/x86_64-linux-gnu/ld-linux-x86-64.so.2
}
{
   <insert_a_suppression_name_here>
   Memcheck:Leak
   match-leak-kinds: reachable
   fun:_Znwm
   fun:_ZN3c1013demangle_typeIN5torch3jit51SROperatorFunctor_aten_adaptive_max_pool2d_backwardEEEPKcv
   fun:_Z41__static_initialization_and_destruction_0ii.constprop.0
   fun:call_init.part.0
   fun:call_init
   fun:_dl_init
   obj:/usr/lib/x86_64-linux-gnu/ld-linux-x86-64.so.2
}
{
   <insert_a_suppression_name_here>
   Memcheck:Leak
   match-leak-kinds: reachable
   fun:_Znwm
   fun:_ZN3c1013demangle_typeIN5torch3jit51SROperatorFunctor_aten_adaptive_max_pool3d_backwardEEEPKcv
   fun:_Z41__static_initialization_and_destruction_0ii.constprop.0
   fun:call_init.part.0
   fun:call_init
   fun:_dl_init
   obj:/usr/lib/x86_64-linux-gnu/ld-linux-x86-64.so.2
}
{
   <insert_a_suppression_name_here>
   Memcheck:Leak
   match-leak-kinds: reachable
   fun:_Znwm
   fun:_ZN3c1013demangle_typeIN5torch3jit39SROperatorFunctor_aten_sigmoid_backwardEEEPKcv
   fun:_Z41__static_initialization_and_destruction_0ii.constprop.0
   fun:call_init.part.0
   fun:call_init
   fun:_dl_init
   obj:/usr/lib/x86_64-linux-gnu/ld-linux-x86-64.so.2
}
{
   <insert_a_suppression_name_here>
   Memcheck:Leak
   match-leak-kinds: reachable
   fun:_Znwm
   fun:_ZN3c1013demangle_typeIN5torch3jit36SROperatorFunctor_aten_tanh_backwardEEEPKcv
   fun:_Z41__static_initialization_and_destruction_0ii.constprop.0
   fun:call_init.part.0
   fun:call_init
   fun:_dl_init
   obj:/usr/lib/x86_64-linux-gnu/ld-linux-x86-64.so.2
}
{
   <insert_a_suppression_name_here>
   Memcheck:Leak
   match-leak-kinds: reachable
   fun:_Znwm
   fun:_ZN3c1013demangle_typeIN5torch3jit31SROperatorFunctor_aten_isposinfEEEPKcv
   fun:_Z41__static_initialization_and_destruction_0ii.constprop.0
   fun:call_init.part.0
   fun:call_init
   fun:_dl_init
   obj:/usr/lib/x86_64-linux-gnu/ld-linux-x86-64.so.2
}
{
   <insert_a_suppression_name_here>
   Memcheck:Leak
   match-leak-kinds: reachable
   fun:_Znwm
   fun:_ZN3c1013demangle_typeIN5torch3jit31SROperatorFunctor_aten_isneginfEEEPKcv
   fun:_Z41__static_initialization_and_destruction_0ii.constprop.0
   fun:call_init.part.0
   fun:call_init
   fun:_dl_init
   obj:/usr/lib/x86_64-linux-gnu/ld-linux-x86-64.so.2
}
{
   <insert_a_suppression_name_here>
   Memcheck:Leak
   match-leak-kinds: reachable
   fun:_Znwm
   fun:_ZN3c1013demangle_typeIN5torch3jit35SROperatorFunctor_aten_special_entrEEEPKcv
   fun:_Z41__static_initialization_and_destruction_0ii.constprop.0
   fun:call_init.part.0
   fun:call_init
   fun:_dl_init
   obj:/usr/lib/x86_64-linux-gnu/ld-linux-x86-64.so.2
}
{
   <insert_a_suppression_name_here>
   Memcheck:Leak
   match-leak-kinds: reachable
   fun:_Znwm
   fun:_ZN3c1013demangle_typeIN5torch3jit36SROperatorFunctor_aten_special_ndtriEEEPKcv
   fun:_Z41__static_initialization_and_destruction_0ii.constprop.0
   fun:call_init.part.0
   fun:call_init
   fun:_dl_init
   obj:/usr/lib/x86_64-linux-gnu/ld-linux-x86-64.so.2
}
{
   <insert_a_suppression_name_here>
   Memcheck:Leak
   match-leak-kinds: reachable
   fun:_Znwm
   fun:_ZN3c1013demangle_typeIN5torch3jit39SROperatorFunctor_aten_special_log_ndtrEEEPKcv
   fun:_Z41__static_initialization_and_destruction_0ii.constprop.0
   fun:call_init.part.0
   fun:call_init
   fun:_dl_init
   obj:/usr/lib/x86_64-linux-gnu/ld-linux-x86-64.so.2
}
{
   <insert_a_suppression_name_here>
   Memcheck:Leak
   match-leak-kinds: reachable
   fun:_Znwm
   fun:_ZN3c1013demangle_typeIN5torch3jit36SROperatorFunctor_aten_special_expm1EEEPKcv
   fun:_Z41__static_initialization_and_destruction_0ii.constprop.0
   fun:call_init.part.0
   fun:call_init
   fun:_dl_init
   obj:/usr/lib/x86_64-linux-gnu/ld-linux-x86-64.so.2
}
{
   <insert_a_suppression_name_here>
   Memcheck:Leak
   match-leak-kinds: reachable
   fun:_Znwm
   fun:_ZN3c1013demangle_typeIN5torch3jit35SROperatorFunctor_aten_special_exp2EEEPKcv
   fun:_Z41__static_initialization_and_destruction_0ii.constprop.0
   fun:call_init.part.0
   fun:call_init
   fun:_dl_init
   obj:/usr/lib/x86_64-linux-gnu/ld-linux-x86-64.so.2
}
{
   <insert_a_suppression_name_here>
   Memcheck:Leak
   match-leak-kinds: reachable
   fun:_Znwm
   fun:_ZN3c1013demangle_typeIN5torch3jit34SROperatorFunctor_aten_special_psiEEEPKcv
   fun:_Z41__static_initialization_and_destruction_0ii.constprop.0
   fun:call_init.part.0
   fun:call_init
   fun:_dl_init
   obj:/usr/lib/x86_64-linux-gnu/ld-linux-x86-64.so.2
}
{
   <insert_a_suppression_name_here>
   Memcheck:Leak
   match-leak-kinds: reachable
   fun:_Znwm
   fun:_ZN3c1013demangle_typeIN5torch3jit38SROperatorFunctor_aten_special_digammaEEEPKcv
   fun:_Z41__static_initialization_and_destruction_0ii.constprop.0
   fun:call_init.part.0
   fun:call_init
   fun:_dl_init
   obj:/usr/lib/x86_64-linux-gnu/ld-linux-x86-64.so.2
}
{
   <insert_a_suppression_name_here>
   Memcheck:Leak
   match-leak-kinds: reachable
   fun:_Znwm
   fun:_ZN3c1013demangle_typeIN5torch3jit38SROperatorFunctor_aten_special_gammalnEEEPKcv
   fun:_Z41__static_initialization_and_destruction_0ii.constprop.0
   fun:call_init.part.0
   fun:call_init
   fun:_dl_init
   obj:/usr/lib/x86_64-linux-gnu/ld-linux-x86-64.so.2
}
{
   <insert_a_suppression_name_here>
   Memcheck:Leak
   match-leak-kinds: reachable
   fun:_Znwm
   fun:_ZN3c1013demangle_typeIN5torch3jit34SROperatorFunctor_aten_special_erfEEEPKcv
   fun:_Z41__static_initialization_and_destruction_0ii.constprop.0
   fun:call_init.part.0
   fun:call_init
   fun:_dl_init
   obj:/usr/lib/x86_64-linux-gnu/ld-linux-x86-64.so.2
}
{
   <insert_a_suppression_name_here>
   Memcheck:Leak
   match-leak-kinds: reachable
   fun:_Znwm
   fun:_ZN3c1013demangle_typeIN5torch3jit35SROperatorFunctor_aten_special_erfcEEEPKcv
   fun:_Z41__static_initialization_and_destruction_0ii.constprop.0
   fun:call_init.part.0
   fun:call_init
   fun:_dl_init
   obj:/usr/lib/x86_64-linux-gnu/ld-linux-x86-64.so.2
}
{
   <insert_a_suppression_name_here>
   Memcheck:Leak
   match-leak-kinds: reachable
   fun:_Znwm
   fun:_ZN3c1013demangle_typeIN5torch3jit36SROperatorFunctor_aten_special_erfcxEEEPKcv
   fun:_Z41__static_initialization_and_destruction_0ii.constprop.0
   fun:call_init.part.0
   fun:call_init
   fun:_dl_init
   obj:/usr/lib/x86_64-linux-gnu/ld-linux-x86-64.so.2
}
{
   <insert_a_suppression_name_here>
   Memcheck:Leak
   match-leak-kinds: reachable
   fun:_Znwm
   fun:_ZN3c1013demangle_typeIN5torch3jit37SROperatorFunctor_aten_special_erfinvEEEPKcv
   fun:_Z41__static_initialization_and_destruction_0ii.constprop.0
   fun:call_init.part.0
   fun:call_init
   fun:_dl_init
   obj:/usr/lib/x86_64-linux-gnu/ld-linux-x86-64.so.2
}
{
   <insert_a_suppression_name_here>
   Memcheck:Leak
   match-leak-kinds: reachable
   fun:_Znwm
   fun:_ZN3c1013demangle_typeIN5torch3jit35SROperatorFunctor_aten_special_ndtrEEEPKcv
   fun:_Z41__static_initialization_and_destruction_0ii.constprop.0
   fun:call_init.part.0
   fun:call_init
   fun:_dl_init
   obj:/usr/lib/x86_64-linux-gnu/ld-linux-x86-64.so.2
}
{
   <insert_a_suppression_name_here>
   Memcheck:Leak
   match-leak-kinds: reachable
   fun:_Znwm
   fun:_ZN3c1013demangle_typeIN5torch3jit38SROperatorFunctor_aten_special_xlog1pyEEEPKcv
   fun:_Z41__static_initialization_and_destruction_0ii.constprop.0
   fun:call_init.part.0
   fun:call_init
   fun:_dl_init
   obj:/usr/lib/x86_64-linux-gnu/ld-linux-x86-64.so.2
}
{
   <insert_a_suppression_name_here>
   Memcheck:Leak
   match-leak-kinds: reachable
   fun:_Znwm
   fun:_ZN3c1013demangle_typeIN5torch3jit36SROperatorFunctor_aten_special_xlogyEEEPKcv
   fun:_Z41__static_initialization_and_destruction_0ii.constprop.0
   fun:call_init.part.0
   fun:call_init
   fun:_dl_init
   obj:/usr/lib/x86_64-linux-gnu/ld-linux-x86-64.so.2
}
{
   <insert_a_suppression_name_here>
   Memcheck:Leak
   match-leak-kinds: reachable
   fun:_Znwm
   fun:_ZN3c1013demangle_typeIN5torch3jit35SROperatorFunctor_aten_special_zetaEEEPKcv
   fun:_Z41__static_initialization_and_destruction_0ii.constprop.0
   fun:call_init.part.0
   fun:call_init
   fun:_dl_init
   obj:/usr/lib/x86_64-linux-gnu/ld-linux-x86-64.so.2
}
{
   <insert_a_suppression_name_here>
   Memcheck:Leak
   match-leak-kinds: reachable
   fun:_Znwm
   fun:_ZN3c1013demangle_typeIN5torch3jit33SROperatorFunctor_aten_special_i0EEEPKcv
   fun:_Z41__static_initialization_and_destruction_0ii.constprop.0
   fun:call_init.part.0
   fun:call_init
   fun:_dl_init
   obj:/usr/lib/x86_64-linux-gnu/ld-linux-x86-64.so.2
}
{
   <insert_a_suppression_name_here>
   Memcheck:Leak
   match-leak-kinds: reachable
   fun:_Znwm
   fun:_ZN3c1013demangle_typeIN5torch3jit34SROperatorFunctor_aten_special_i0eEEEPKcv
   fun:_Z41__static_initialization_and_destruction_0ii.constprop.0
   fun:call_init.part.0
   fun:call_init
   fun:_dl_init
   obj:/usr/lib/x86_64-linux-gnu/ld-linux-x86-64.so.2
}
{
   <insert_a_suppression_name_here>
   Memcheck:Leak
   match-leak-kinds: reachable
   fun:_Znwm
   fun:_ZN3c1013demangle_typeIN5torch3jit33SROperatorFunctor_aten_special_i1EEEPKcv
   fun:_Z41__static_initialization_and_destruction_0ii.constprop.0
   fun:call_init.part.0
   fun:call_init
   fun:_dl_init
   obj:/usr/lib/x86_64-linux-gnu/ld-linux-x86-64.so.2
}
{
   <insert_a_suppression_name_here>
   Memcheck:Leak
   match-leak-kinds: reachable
   fun:_Znwm
   fun:_ZN3c1013demangle_typeIN5torch3jit34SROperatorFunctor_aten_special_i1eEEEPKcv
   fun:_Z41__static_initialization_and_destruction_0ii.constprop.0
   fun:call_init.part.0
   fun:call_init
   fun:_dl_init
   obj:/usr/lib/x86_64-linux-gnu/ld-linux-x86-64.so.2
}
{
   <insert_a_suppression_name_here>
   Memcheck:Leak
   match-leak-kinds: reachable
   fun:_Znwm
   fun:_ZN3c1013demangle_typeIN5torch3jit40SROperatorFunctor_aten_special_polygammaEEEPKcv
   fun:_Z41__static_initialization_and_destruction_0ii.constprop.0
   fun:call_init.part.0
   fun:call_init
   fun:_dl_init
   obj:/usr/lib/x86_64-linux-gnu/ld-linux-x86-64.so.2
}
{
   <insert_a_suppression_name_here>
   Memcheck:Leak
   match-leak-kinds: reachable
   fun:_Znwm
   fun:_ZN3c1013demangle_typeIN5torch3jit36SROperatorFunctor_aten_special_expitEEEPKcv
   fun:_Z41__static_initialization_and_destruction_0ii.constprop.0
   fun:call_init.part.0
   fun:call_init
   fun:_dl_init
   obj:/usr/lib/x86_64-linux-gnu/ld-linux-x86-64.so.2
}
{
   <insert_a_suppression_name_here>
   Memcheck:Leak
   match-leak-kinds: reachable
   fun:_Znwm
   fun:_ZN3c1013demangle_typeIN5torch3jit35SROperatorFunctor_aten_special_sincEEEPKcv
   fun:_Z41__static_initialization_and_destruction_0ii.constprop.0
   fun:call_init.part.0
   fun:call_init
   fun:_dl_init
   obj:/usr/lib/x86_64-linux-gnu/ld-linux-x86-64.so.2
}
{
   <insert_a_suppression_name_here>
   Memcheck:Leak
   match-leak-kinds: reachable
   fun:_Znwm
   fun:_ZN3c1013demangle_typeIN5torch3jit36SROperatorFunctor_aten_special_roundEEEPKcv
   fun:_Z41__static_initialization_and_destruction_0ii.constprop.0
   fun:call_init.part.0
   fun:call_init
   fun:_dl_init
   obj:/usr/lib/x86_64-linux-gnu/ld-linux-x86-64.so.2
}
{
   <insert_a_suppression_name_here>
   Memcheck:Leak
   match-leak-kinds: reachable
   fun:_Znwm
   fun:_ZN3c1013demangle_typeIN5torch3jit36SROperatorFunctor_aten_special_log1pEEEPKcv
   fun:_Z41__static_initialization_and_destruction_0ii.constprop.0
   fun:call_init.part.0
   fun:call_init
   fun:_dl_init
   obj:/usr/lib/x86_64-linux-gnu/ld-linux-x86-64.so.2
}
{
   <insert_a_suppression_name_here>
   Memcheck:Leak
   match-leak-kinds: reachable
   fun:_Znwm
   fun:_ZN3c1013demangle_typeIN5torch3jit39SROperatorFunctor_aten_special_gammaincEEEPKcv
   fun:_Z41__static_initialization_and_destruction_0ii.constprop.0
   fun:call_init.part.0
   fun:call_init
   fun:_dl_init
   obj:/usr/lib/x86_64-linux-gnu/ld-linux-x86-64.so.2
}
{
   <insert_a_suppression_name_here>
   Memcheck:Leak
   match-leak-kinds: reachable
   fun:_Znwm
   fun:_ZN3c1013demangle_typeIN5torch3jit40SROperatorFunctor_aten_special_gammainccEEEPKcv
   fun:_Z41__static_initialization_and_destruction_0ii.constprop.0
   fun:call_init.part.0
   fun:call_init
   fun:_dl_init
   obj:/usr/lib/x86_64-linux-gnu/ld-linux-x86-64.so.2
}
{
   <insert_a_suppression_name_here>
   Memcheck:Leak
   match-leak-kinds: reachable
   fun:_Znwm
   fun:_ZN3c1013demangle_typeIN5torch3jit43SROperatorFunctor_aten_special_multigammalnEEEPKcv
   fun:_Z41__static_initialization_and_destruction_0ii.constprop.0
   fun:call_init.part.0
   fun:call_init
   fun:_dl_init
   obj:/usr/lib/x86_64-linux-gnu/ld-linux-x86-64.so.2
}
{
   <insert_a_suppression_name_here>
   Memcheck:Leak
   match-leak-kinds: reachable
   fun:_Znwm
   fun:_ZN3c1013demangle_typeIN5torch3jit30SROperatorFunctor_aten_fft_fftEEEPKcv
   fun:_Z41__static_initialization_and_destruction_0ii.constprop.0
   fun:call_init.part.0
   fun:call_init
   fun:_dl_init
   obj:/usr/lib/x86_64-linux-gnu/ld-linux-x86-64.so.2
}
{
   <insert_a_suppression_name_here>
   Memcheck:Leak
   match-leak-kinds: reachable
   fun:_Znwm
   fun:_ZN3c1013demangle_typeIN5torch3jit31SROperatorFunctor_aten_fft_ifftEEEPKcv
   fun:_Z41__static_initialization_and_destruction_0ii.constprop.0
   fun:call_init.part.0
   fun:call_init
   fun:_dl_init
   obj:/usr/lib/x86_64-linux-gnu/ld-linux-x86-64.so.2
}
{
   <insert_a_suppression_name_here>
   Memcheck:Leak
   match-leak-kinds: reachable
   fun:_Znwm
   fun:_ZN3c1013demangle_typeIN5torch3jit31SROperatorFunctor_aten_fft_rfftEEEPKcv
   fun:_Z41__static_initialization_and_destruction_0ii.constprop.0
   fun:call_init.part.0
   fun:call_init
   fun:_dl_init
   obj:/usr/lib/x86_64-linux-gnu/ld-linux-x86-64.so.2
}
{
   <insert_a_suppression_name_here>
   Memcheck:Leak
   match-leak-kinds: reachable
   fun:_Znwm
   fun:_ZN3c1013demangle_typeIN5torch3jit32SROperatorFunctor_aten_fft_irfftEEEPKcv
   fun:_Z41__static_initialization_and_destruction_0ii.constprop.0
   fun:call_init.part.0
   fun:call_init
   fun:_dl_init
   obj:/usr/lib/x86_64-linux-gnu/ld-linux-x86-64.so.2
}
{
   <insert_a_suppression_name_here>
   Memcheck:Leak
   match-leak-kinds: reachable
   fun:_Znwm
   fun:_ZN3c1013demangle_typeIN5torch3jit31SROperatorFunctor_aten_fft_hfftEEEPKcv
   fun:_Z41__static_initialization_and_destruction_0ii.constprop.0
   fun:call_init.part.0
   fun:call_init
   fun:_dl_init
   obj:/usr/lib/x86_64-linux-gnu/ld-linux-x86-64.so.2
}
{
   <insert_a_suppression_name_here>
   Memcheck:Leak
   match-leak-kinds: reachable
   fun:_Znwm
   fun:_ZN3c1013demangle_typeIN5torch3jit32SROperatorFunctor_aten_fft_ihfftEEEPKcv
   fun:_Z41__static_initialization_and_destruction_0ii.constprop.0
   fun:call_init.part.0
   fun:call_init
   fun:_dl_init
   obj:/usr/lib/x86_64-linux-gnu/ld-linux-x86-64.so.2
}
{
   <insert_a_suppression_name_here>
   Memcheck:Leak
   match-leak-kinds: reachable
   fun:_Znwm
   fun:_ZN3c1013demangle_typeIN5torch3jit35SROperatorFunctor_aten_linalg_crossEEEPKcv
   fun:_Z41__static_initialization_and_destruction_0ii.constprop.0
   fun:call_init.part.0
   fun:call_init
   fun:_dl_init
   obj:/usr/lib/x86_64-linux-gnu/ld-linux-x86-64.so.2
}
{
   <insert_a_suppression_name_here>
   Memcheck:Leak
   match-leak-kinds: reachable
   fun:_Znwm
   fun:_ZN3c1013demangle_typeIN5torch3jit33SROperatorFunctor_aten_linalg_detEEEPKcv
   fun:_Z41__static_initialization_and_destruction_0ii.constprop.0
   fun:call_init.part.0
   fun:call_init
   fun:_dl_init
   obj:/usr/lib/x86_64-linux-gnu/ld-linux-x86-64.so.2
}
{
   <insert_a_suppression_name_here>
   Memcheck:Leak
   match-leak-kinds: reachable
   fun:_Znwm
   fun:_ZN3c1013demangle_typeIN5torch3jit36SROperatorFunctor_aten_linalg_matmulEEEPKcv
   fun:_Z41__static_initialization_and_destruction_0ii.constprop.0
   fun:call_init.part.0
   fun:call_init
   fun:_dl_init
   obj:/usr/lib/x86_64-linux-gnu/ld-linux-x86-64.so.2
}
{
   <insert_a_suppression_name_here>
   Memcheck:Leak
   match-leak-kinds: reachable
   fun:_Znwm
   fun:_ZN3c1013demangle_typeIN5torch3jit37SROperatorFunctor_aten_linalg_eigvalsEEEPKcv
   fun:_Z41__static_initialization_and_destruction_0ii.constprop.0
   fun:call_init.part.0
   fun:call_init
   fun:_dl_init
   obj:/usr/lib/x86_64-linux-gnu/ld-linux-x86-64.so.2
}
{
   <insert_a_suppression_name_here>
   Memcheck:Leak
   match-leak-kinds: reachable
   fun:_Znwm
   fun:_ZN3c1013demangle_typeIN5torch3jit33SROperatorFunctor_aten_linalg_invEEEPKcv
   fun:_Z41__static_initialization_and_destruction_0ii.constprop.0
   fun:call_init.part.0
   fun:call_init
   fun:_dl_init
   obj:/usr/lib/x86_64-linux-gnu/ld-linux-x86-64.so.2
}
{
   <insert_a_suppression_name_here>
   Memcheck:Leak
   match-leak-kinds: reachable
   fun:_Znwm
   fun:_ZN3c1013demangle_typeIN5torch3jit30SROperatorFunctor_aten_inverseEEEPKcv
   fun:_Z41__static_initialization_and_destruction_0ii.constprop.0
   fun:call_init.part.0
   fun:call_init
   fun:_dl_init
   obj:/usr/lib/x86_64-linux-gnu/ld-linux-x86-64.so.2
}
{
   <insert_a_suppression_name_here>
   Memcheck:Leak
   match-leak-kinds: reachable
   fun:_Znwm
   fun:_ZN3c1013demangle_typeIN5torch3jit28SROperatorFunctor_aten_innerEEEPKcv
   fun:_Z41__static_initialization_and_destruction_0ii.constprop.0
   fun:call_init.part.0
   fun:call_init
   fun:_dl_init
   obj:/usr/lib/x86_64-linux-gnu/ld-linux-x86-64.so.2
}
{
   <insert_a_suppression_name_here>
   Memcheck:Leak
   match-leak-kinds: reachable
   fun:_Znwm
   fun:_ZN3c1013demangle_typeIN5torch3jit28SROperatorFunctor_aten_outerEEEPKcv
   fun:_Z41__static_initialization_and_destruction_0ii.constprop.0
   fun:call_init.part.0
   fun:call_init
   fun:_dl_init
   obj:/usr/lib/x86_64-linux-gnu/ld-linux-x86-64.so.2
}
{
   <insert_a_suppression_name_here>
   Memcheck:Leak
   match-leak-kinds: reachable
   fun:_Znwm
   fun:_ZN3c1013demangle_typeIN5torch3jit34SROperatorFunctor_aten_linalg_condEEEPKcv
   fun:_Z41__static_initialization_and_destruction_0ii.constprop.0
   fun:call_init.part.0
   fun:call_init
   fun:_dl_init
   obj:/usr/lib/x86_64-linux-gnu/ld-linux-x86-64.so.2
}
{
   <insert_a_suppression_name_here>
   Memcheck:Leak
   match-leak-kinds: reachable
   fun:_Znwm
   fun:_ZN3c1013demangle_typeIN5torch3jit35SROperatorFunctor_aten_linalg_solveEEEPKcv
   fun:_Z41__static_initialization_and_destruction_0ii.constprop.0
   fun:call_init.part.0
   fun:call_init
   fun:_dl_init
   obj:/usr/lib/x86_64-linux-gnu/ld-linux-x86-64.so.2
}
{
   <insert_a_suppression_name_here>
   Memcheck:Leak
   match-leak-kinds: reachable
   fun:_Znwm
   fun:_ZN3c1013demangle_typeIN5torch3jit39SROperatorFunctor_aten_linalg_tensorinvEEEPKcv
   fun:_Z41__static_initialization_and_destruction_0ii.constprop.0
   fun:call_init.part.0
   fun:call_init
   fun:_dl_init
   obj:/usr/lib/x86_64-linux-gnu/ld-linux-x86-64.so.2
}
{
   <insert_a_suppression_name_here>
   Memcheck:Leak
   match-leak-kinds: reachable
   fun:_Znwm
   fun:_ZN3c1013demangle_typeIN5torch3jit42SROperatorFunctor_aten_linalg_matrix_powerEEEPKcv
   fun:_Z41__static_initialization_and_destruction_0ii.constprop.0
   fun:call_init.part.0
   fun:call_init
   fun:_dl_init
   obj:/usr/lib/x86_64-linux-gnu/ld-linux-x86-64.so.2
}
{
   <insert_a_suppression_name_here>
   Memcheck:Leak
   match-leak-kinds: reachable
   fun:_Znwm
   fun:_ZN3c1013demangle_typeIN5torch3jit41SRNativeOperatorFunctor_aten_view_as_realEEEPKcv
   fun:_Z41__static_initialization_and_destruction_0ii.constprop.0
   fun:call_init.part.0
   fun:call_init
   fun:_dl_init
   obj:/usr/lib/x86_64-linux-gnu/ld-linux-x86-64.so.2
}
{
   <insert_a_suppression_name_here>
   Memcheck:Leak
   match-leak-kinds: reachable
   fun:_Znwm
   fun:_ZN3c1013demangle_typeIN5torch3jit44SRNativeOperatorFunctor_aten_view_as_complexEEEPKcv
   fun:_Z41__static_initialization_and_destruction_0ii.constprop.0
   fun:call_init.part.0
   fun:call_init
   fun:_dl_init
   obj:/usr/lib/x86_64-linux-gnu/ld-linux-x86-64.so.2
}
{
   <insert_a_suppression_name_here>
   Memcheck:Leak
   match-leak-kinds: reachable
   fun:_Znwm
   fun:_ZN3c1013demangle_typeIN5torch3jit33SRNativeOperatorFunctor_aten_realEEEPKcv
   fun:_Z41__static_initialization_and_destruction_0ii.constprop.0
   fun:call_init.part.0
   fun:call_init
   fun:_dl_init
   obj:/usr/lib/x86_64-linux-gnu/ld-linux-x86-64.so.2
}
{
   <insert_a_suppression_name_here>
   Memcheck:Leak
   match-leak-kinds: reachable
   fun:_Znwm
   fun:_ZN3c1013demangle_typeIN5torch3jit33SRNativeOperatorFunctor_aten_imagEEEPKcv
   fun:_Z41__static_initialization_and_destruction_0ii.constprop.0
   fun:call_init.part.0
   fun:call_init
   fun:_dl_init
   obj:/usr/lib/x86_64-linux-gnu/ld-linux-x86-64.so.2
}
{
   <insert_a_suppression_name_here>
   Memcheck:Leak
   match-leak-kinds: reachable
   fun:_Znwm
   fun:_ZN3c1013demangle_typeIN5torch3jit34SRNativeOperatorFunctor_aten__conjEEEPKcv
   fun:_Z41__static_initialization_and_destruction_0ii.constprop.0
   fun:call_init.part.0
   fun:call_init
   fun:_dl_init
   obj:/usr/lib/x86_64-linux-gnu/ld-linux-x86-64.so.2
}
{
   <insert_a_suppression_name_here>
   Memcheck:Leak
   match-leak-kinds: reachable
   fun:_Znwm
   fun:_ZN3c1013demangle_typeIN5torch3jit33SRNativeOperatorFunctor_aten_conjEEEPKcv
   fun:_Z41__static_initialization_and_destruction_0ii.constprop.0
   fun:call_init.part.0
   fun:call_init
   fun:_dl_init
   obj:/usr/lib/x86_64-linux-gnu/ld-linux-x86-64.so.2
}
{
   <insert_a_suppression_name_here>
   Memcheck:Leak
   match-leak-kinds: reachable
   fun:_Znwm
   fun:_ZN3c1013demangle_typeIN5torch3jit41SRNativeOperatorFunctor_aten_resolve_conjEEEPKcv
   fun:_Z41__static_initialization_and_destruction_0ii.constprop.0
   fun:call_init.part.0
   fun:call_init
   fun:_dl_init
   obj:/usr/lib/x86_64-linux-gnu/ld-linux-x86-64.so.2
}
{
   <insert_a_suppression_name_here>
   Memcheck:Leak
   match-leak-kinds: reachable
   fun:_Znwm
   fun:_ZN3c1013demangle_typeIN5torch3jit40SRNativeOperatorFunctor_aten_resolve_negEEEPKcv
   fun:_Z41__static_initialization_and_destruction_0ii.constprop.0
   fun:call_init.part.0
   fun:call_init
   fun:_dl_init
   obj:/usr/lib/x86_64-linux-gnu/ld-linux-x86-64.so.2
}
{
   <insert_a_suppression_name_here>
   Memcheck:Leak
   match-leak-kinds: reachable
   fun:_Znwm
   fun:_ZN3c1013demangle_typeIN5torch3jit38SRNativeOperatorFunctor_aten__neg_viewEEEPKcv
   fun:_Z41__static_initialization_and_destruction_0ii.constprop.0
   fun:call_init.part.0
   fun:call_init
   fun:_dl_init
   obj:/usr/lib/x86_64-linux-gnu/ld-linux-x86-64.so.2
}
{
   <insert_a_suppression_name_here>
   Memcheck:Leak
   match-leak-kinds: reachable
   fun:_Znwm
   fun:_ZN3c1013demangle_typeIN5torch3jit37SRNativeOperatorFunctor_aten_diagonalEEEPKcv
   fun:_Z41__static_initialization_and_destruction_0ii.constprop.0
   fun:call_init.part.0
   fun:call_init
   fun:_dl_init
   obj:/usr/lib/x86_64-linux-gnu/ld-linux-x86-64.so.2
}
{
   <insert_a_suppression_name_here>
   Memcheck:Leak
   match-leak-kinds: reachable
   fun:_Znwm
   fun:_ZN3c1013demangle_typeIN5torch3jit44SRNativeOperatorFunctor_aten_linalg_diagonalEEEPKcv
   fun:_Z41__static_initialization_and_destruction_0ii.constprop.0
   fun:call_init.part.0
   fun:call_init
   fun:_dl_init
   obj:/usr/lib/x86_64-linux-gnu/ld-linux-x86-64.so.2
}
{
   <insert_a_suppression_name_here>
   Memcheck:Leak
   match-leak-kinds: reachable
   fun:_Znwm
   fun:_ZN3c1013demangle_typeIN5torch3jit36SRNativeOperatorFunctor_aten_movedimEEEPKcv
   fun:_Z41__static_initialization_and_destruction_0ii.constprop.0
   fun:call_init.part.0
   fun:call_init
   fun:_dl_init
   obj:/usr/lib/x86_64-linux-gnu/ld-linux-x86-64.so.2
}
{
   <insert_a_suppression_name_here>
   Memcheck:Leak
   match-leak-kinds: reachable
   fun:_Znwm
   fun:_ZN3c1013demangle_typeIN5torch3jit37SRNativeOperatorFunctor_aten_moveaxisEEEPKcv
   fun:_Z41__static_initialization_and_destruction_0ii.constprop.0
   fun:call_init.part.0
   fun:call_init
   fun:_dl_init
   obj:/usr/lib/x86_64-linux-gnu/ld-linux-x86-64.so.2
}
{
   <insert_a_suppression_name_here>
   Memcheck:Leak
   match-leak-kinds: reachable
   fun:_Znwm
   fun:_ZN3c1013demangle_typeIN5torch3jit36SRNativeOperatorFunctor_aten_numpy_TEEEPKcv
   fun:_Z41__static_initialization_and_destruction_0ii.constprop.0
   fun:call_init.part.0
   fun:call_init
   fun:_dl_init
   obj:/usr/lib/x86_64-linux-gnu/ld-linux-x86-64.so.2
}
{
   <insert_a_suppression_name_here>
   Memcheck:Leak
   match-leak-kinds: reachable
   fun:_Znwm
   fun:_ZN3c1013demangle_typeIN5torch3jit37SRNativeOperatorFunctor_aten_matrix_HEEEPKcv
   fun:_Z41__static_initialization_and_destruction_0ii.constprop.0
   fun:call_init.part.0
   fun:call_init
   fun:_dl_init
   obj:/usr/lib/x86_64-linux-gnu/ld-linux-x86-64.so.2
}
{
   <insert_a_suppression_name_here>
   Memcheck:Leak
   match-leak-kinds: reachable
   fun:_Znwm
   fun:_ZN3c1013demangle_typeIN5torch3jit31SRNativeOperatorFunctor_aten_mTEEEPKcv
   fun:_Z41__static_initialization_and_destruction_0ii.constprop.0
   fun:call_init.part.0
   fun:call_init
   fun:_dl_init
   obj:/usr/lib/x86_64-linux-gnu/ld-linux-x86-64.so.2
}
{
   <insert_a_suppression_name_here>
   Memcheck:Leak
   match-leak-kinds: reachable
   fun:_Znwm
   fun:_ZN3c1013demangle_typeIN5torch3jit31SRNativeOperatorFunctor_aten_mHEEEPKcv
   fun:_Z41__static_initialization_and_destruction_0ii.constprop.0
   fun:call_init.part.0
   fun:call_init
   fun:_dl_init
   obj:/usr/lib/x86_64-linux-gnu/ld-linux-x86-64.so.2
}
{
   <insert_a_suppression_name_here>
   Memcheck:Leak
   match-leak-kinds: reachable
   fun:_Znwm
   fun:_ZN3c1013demangle_typeIN5torch3jit36SRNativeOperatorFunctor_aten_adjointEEEPKcv
   fun:_Z41__static_initialization_and_destruction_0ii.constprop.0
   fun:call_init.part.0
   fun:call_init
   fun:_dl_init
   obj:/usr/lib/x86_64-linux-gnu/ld-linux-x86-64.so.2
}
{
   <insert_a_suppression_name_here>
   Memcheck:Leak
   match-leak-kinds: reachable
   fun:_Znwm
   fun:_ZN3c1013demangle_typeIN5torch3jit34SRNativeOperatorFunctor_aten_ravelEEEPKcv
   fun:_Z41__static_initialization_and_destruction_0ii.constprop.0
   fun:call_init.part.0
   fun:call_init
   fun:_dl_init
   obj:/usr/lib/x86_64-linux-gnu/ld-linux-x86-64.so.2
}
{
   <insert_a_suppression_name_here>
   Memcheck:Leak
   match-leak-kinds: reachable
   fun:_Znwm
   fun:_ZN3c1013demangle_typeIN5torch3jit30SRNativeOperatorFunctor_aten_tEEEPKcv
   fun:_Z41__static_initialization_and_destruction_0ii.constprop.0
   fun:call_init.part.0
   fun:call_init
   fun:_dl_init
   obj:/usr/lib/x86_64-linux-gnu/ld-linux-x86-64.so.2
}
{
   <insert_a_suppression_name_here>
   Memcheck:Leak
   match-leak-kinds: reachable
   fun:_Znwm
   fun:_ZN3c1013demangle_typeIN5torch3jit38SRNativeOperatorFunctor_aten_unsqueezeEEEPKcv
   fun:_Z41__static_initialization_and_destruction_0ii.constprop.0
   fun:call_init.part.0
   fun:call_init
   fun:_dl_init
   obj:/usr/lib/x86_64-linux-gnu/ld-linux-x86-64.so.2
}
{
   <insert_a_suppression_name_here>
   Memcheck:Leak
   match-leak-kinds: reachable
   fun:_Znwm
   fun:_ZN3c1013demangle_typeIN5torch3jit36SRNativeOperatorFunctor_aten_view_asEEEPKcv
   fun:_Z41__static_initialization_and_destruction_0ii.constprop.0
   fun:call_init.part.0
   fun:call_init
   fun:_dl_init
   obj:/usr/lib/x86_64-linux-gnu/ld-linux-x86-64.so.2
}
{
   <insert_a_suppression_name_here>
   Memcheck:Leak
   match-leak-kinds: reachable
   fun:_Znwm
   fun:_ZN3c1013demangle_typeIN5torch3jit37SRNativeOperatorFunctor_aten_positiveEEEPKcv
   fun:_Z41__static_initialization_and_destruction_0ii.constprop.0
   fun:call_init.part.0
   fun:call_init
   fun:_dl_init
   obj:/usr/lib/x86_64-linux-gnu/ld-linux-x86-64.so.2
}
{
   <insert_a_suppression_name_here>
   Memcheck:Leak
   match-leak-kinds: reachable
   fun:_Znwm
   fun:_ZN3c1013demangle_typeIN5torch3jit59SRNativeOperatorFunctor_aten__autocast_to_reduced_precisionEEEPKcv
   fun:_Z41__static_initialization_and_destruction_0ii.constprop.0
   fun:call_init.part.0
   fun:call_init
   fun:_dl_init
   obj:/usr/lib/x86_64-linux-gnu/ld-linux-x86-64.so.2
}
{
   <insert_a_suppression_name_here>
   Memcheck:Leak
   match-leak-kinds: reachable
   fun:_Znwm
   fun:_ZN3c1013demangle_typeIN5torch3jit56SRNativeOperatorFunctor_aten__autocast_to_full_precisionEEEPKcv
   fun:_Z41__static_initialization_and_destruction_0ii.constprop.0
   fun:call_init.part.0
   fun:call_init
   fun:_dl_init
   obj:/usr/lib/x86_64-linux-gnu/ld-linux-x86-64.so.2
}
{
   <insert_a_suppression_name_here>
   Memcheck:Leak
   match-leak-kinds: reachable
   fun:_Znwm
   fun:_ZN3c1013demangle_typeIN5torch3jit37SRNativeOperatorFunctor_aten_swapaxesEEEPKcv
   fun:_Z41__static_initialization_and_destruction_0ii.constprop.0
   fun:call_init.part.0
   fun:call_init
   fun:_dl_init
   obj:/usr/lib/x86_64-linux-gnu/ld-linux-x86-64.so.2
}
{
   <insert_a_suppression_name_here>
   Memcheck:Leak
   match-leak-kinds: reachable
   fun:_Znwm
   fun:_ZN3c1013demangle_typeIN5torch3jit37SRNativeOperatorFunctor_aten_swapdimsEEEPKcv
   fun:_Z41__static_initialization_and_destruction_0ii.constprop.0
   fun:call_init.part.0
   fun:call_init
   fun:_dl_init
   obj:/usr/lib/x86_64-linux-gnu/ld-linux-x86-64.so.2
}
{
   <insert_a_suppression_name_here>
   Memcheck:Leak
   match-leak-kinds: reachable
   fun:_Znwm
   fun:_ZN3c1013demangle_typeIN5torch3jit35SRNativeOperatorFunctor_aten_unfoldEEEPKcv
   fun:_Z41__static_initialization_and_destruction_0ii.constprop.0
   fun:call_init.part.0
   fun:call_init
   fun:_dl_init
   obj:/usr/lib/x86_64-linux-gnu/ld-linux-x86-64.so.2
}
{
   <insert_a_suppression_name_here>
   Memcheck:Leak
   match-leak-kinds: reachable
   fun:_Znwm
   fun:_ZN3c1013demangle_typeIN5torch3jit34SRNativeOperatorFunctor_aten_aliasEEEPKcv
   fun:_Z41__static_initialization_and_destruction_0ii.constprop.0
   fun:call_init.part.0
   fun:call_init
   fun:_dl_init
   obj:/usr/lib/x86_64-linux-gnu/ld-linux-x86-64.so.2
}
{
   <insert_a_suppression_name_here>
   Memcheck:Leak
   match-leak-kinds: reachable
   fun:_Znwm
   fun:_ZN3c1013demangle_typeIN5torch3jit43SRNativeOperatorFunctor_prim_TupleConstructEEEPKcv
   fun:_Z41__static_initialization_and_destruction_0ii.constprop.0
   fun:call_init.part.0
   fun:call_init
   fun:_dl_init
   obj:/usr/lib/x86_64-linux-gnu/ld-linux-x86-64.so.2
}
{
   <insert_a_suppression_name_here>
   Memcheck:Leak
   match-leak-kinds: reachable
   fun:_Znwm
   fun:_ZN3c1013demangle_typeIN5torch3jit40SRNativeOperatorFunctor_prim_TupleUnpackEEEPKcv
   fun:_Z41__static_initialization_and_destruction_0ii.constprop.0
   fun:call_init.part.0
   fun:call_init
   fun:_dl_init
   obj:/usr/lib/x86_64-linux-gnu/ld-linux-x86-64.so.2
}
{
   <insert_a_suppression_name_here>
   Memcheck:Leak
   match-leak-kinds: reachable
   fun:_Znwm
   fun:_ZN3c1013demangle_typeIN5torch3jit42SRNativeOperatorFunctor_prim_DictConstructEEEPKcv
   fun:_Z41__static_initialization_and_destruction_0ii.constprop.0
   fun:call_init.part.0
   fun:call_init
   fun:_dl_init
   obj:/usr/lib/x86_64-linux-gnu/ld-linux-x86-64.so.2
}
{
   <insert_a_suppression_name_here>
   Memcheck:Leak
   match-leak-kinds: reachable
   fun:_Znwm
   fun:_ZN3c1013demangle_typeIN5torch3jit50SRNativeOperatorFunctor_static_runtime_dict_unpackEEEPKcv
   fun:_Z41__static_initialization_and_destruction_0ii.constprop.0
   fun:call_init.part.0
   fun:call_init
   fun:_dl_init
   obj:/usr/lib/x86_64-linux-gnu/ld-linux-x86-64.so.2
}
{
   <insert_a_suppression_name_here>
   Memcheck:Leak
   match-leak-kinds: reachable
   fun:_Znwm
   fun:_ZN3c1013demangle_typeIN5torch3jit36SRNativeOperatorFunctor_aten_getitemEEEPKcv
   fun:_Z41__static_initialization_and_destruction_0ii.constprop.0
   fun:call_init.part.0
   fun:call_init
   fun:_dl_init
   obj:/usr/lib/x86_64-linux-gnu/ld-linux-x86-64.so.2
}
{
   <insert_a_suppression_name_here>
   Memcheck:Leak
   match-leak-kinds: reachable
   fun:_Znwm
   fun:_ZN3c1013demangle_typeIN5torch3jit42SRNativeOperatorFunctor_prim_ListConstructEEEPKcv
   fun:_Z41__static_initialization_and_destruction_0ii.constprop.0
   fun:call_init.part.0
   fun:call_init
   fun:_dl_init
   obj:/usr/lib/x86_64-linux-gnu/ld-linux-x86-64.so.2
}
{
   <insert_a_suppression_name_here>
   Memcheck:Leak
   match-leak-kinds: reachable
   fun:_Znwm
   fun:_ZN3c1013demangle_typeIN5torch3jit39SRNativeOperatorFunctor_prim_ListUnpackEEEPKcv
   fun:_Z41__static_initialization_and_destruction_0ii.constprop.0
   fun:call_init.part.0
   fun:call_init
   fun:_dl_init
   obj:/usr/lib/x86_64-linux-gnu/ld-linux-x86-64.so.2
}
{
   <insert_a_suppression_name_here>
   Memcheck:Leak
   match-leak-kinds: reachable
   fun:_Znwm
   fun:_ZN3c1013demangle_typeIN5torch3jit35SRNativeOperatorFunctor_aten_appendEEEPKcv
   fun:_Z41__static_initialization_and_destruction_0ii.constprop.0
   fun:call_init.part.0
   fun:call_init
   fun:_dl_init
   obj:/usr/lib/x86_64-linux-gnu/ld-linux-x86-64.so.2
}
{
   <insert_a_suppression_name_here>
   Memcheck:Leak
   match-leak-kinds: reachable
   fun:_Znwm
   fun:_ZN3c1013demangle_typeIN5torch3jit33SRNativeOperatorFunctor_aten_listEEEPKcv
   fun:_Z41__static_initialization_and_destruction_0ii.constprop.0
   fun:call_init.part.0
   fun:call_init
   fun:_dl_init
   obj:/usr/lib/x86_64-linux-gnu/ld-linux-x86-64.so.2
}
{
   <insert_a_suppression_name_here>
   Memcheck:Leak
   match-leak-kinds: reachable
   fun:_Znwm
   fun:_ZN3c1013demangle_typeIN5torch3jit34SRNativeOperatorFunctor_aten_numelEEEPKcv
   fun:_Z41__static_initialization_and_destruction_0ii.constprop.0
   fun:call_init.part.0
   fun:call_init
   fun:_dl_init
   obj:/usr/lib/x86_64-linux-gnu/ld-linux-x86-64.so.2
}
{
   <insert_a_suppression_name_here>
   Memcheck:Leak
   match-leak-kinds: reachable
   fun:_Znwm
   fun:_ZN3c1013demangle_typeIN5torch3jit32SRNativeOperatorFunctor_aten_cpuEEEPKcv
   fun:_Z41__static_initialization_and_destruction_0ii.constprop.0
   fun:call_init.part.0
   fun:call_init
   fun:_dl_init
   obj:/usr/lib/x86_64-linux-gnu/ld-linux-x86-64.so.2
}
{
   <insert_a_suppression_name_here>
   Memcheck:Leak
   match-leak-kinds: reachable
   fun:_Znwm
   fun:_ZN3c1013demangle_typeIN5torch3jit41SRNativeOperatorFunctor_aten_range_lengthEEEPKcv
   fun:_Z41__static_initialization_and_destruction_0ii.constprop.0
   fun:call_init.part.0
   fun:call_init
   fun:_dl_init
   obj:/usr/lib/x86_64-linux-gnu/ld-linux-x86-64.so.2
}
{
   <insert_a_suppression_name_here>
   Memcheck:Leak
   match-leak-kinds: reachable
   fun:_Znwm
   fun:_ZN3c1013demangle_typeIN5torch3jit38SRNativeOperatorFunctor_aten_index_putEEEPKcv
   fun:_Z41__static_initialization_and_destruction_0ii.constprop.0
   fun:call_init.part.0
   fun:call_init
   fun:_dl_init
   obj:/usr/lib/x86_64-linux-gnu/ld-linux-x86-64.so.2
}
{
   <insert_a_suppression_name_here>
   Memcheck:Leak
   match-leak-kinds: reachable
   fun:_Znwm
   fun:_ZN3c1013demangle_typeIN5torch3jit33SRNativeOperatorFunctor_aten_itemEEEPKcv
   fun:_Z41__static_initialization_and_destruction_0ii.constprop.0
   fun:call_init.part.0
   fun:call_init
   fun:_dl_init
   obj:/usr/lib/x86_64-linux-gnu/ld-linux-x86-64.so.2
}
{
   <insert_a_suppression_name_here>
   Memcheck:Leak
   match-leak-kinds: reachable
   fun:_Znwm
   fun:_ZN3c1013demangle_typeIN5torch3jit36SRNativeOperatorFunctor_prim_GetAttrEEEPKcv
   fun:_Z41__static_initialization_and_destruction_0ii.constprop.0
   fun:call_init.part.0
   fun:call_init
   fun:_dl_init
   obj:/usr/lib/x86_64-linux-gnu/ld-linux-x86-64.so.2
}
{
   <insert_a_suppression_name_here>
   Memcheck:Leak
   match-leak-kinds: reachable
   fun:_Znwm
   fun:_ZN3c1013demangle_typeIN5torch3jit36SRNativeOperatorFunctor_prim_SetAttrEEEPKcv
   fun:_Z41__static_initialization_and_destruction_0ii.constprop.0
   fun:call_init.part.0
   fun:call_init
   fun:_dl_init
   obj:/usr/lib/x86_64-linux-gnu/ld-linux-x86-64.so.2
}
{
   <insert_a_suppression_name_here>
   Memcheck:Leak
   match-leak-kinds: reachable
   fun:_Znwm
   fun:_ZN3c1013demangle_typeIN5torch3jit38SRNativeOperatorFunctor_aten_transposeEEEPKcv
   fun:_Z41__static_initialization_and_destruction_0ii.constprop.0
   fun:call_init.part.0
   fun:call_init
   fun:_dl_init
   obj:/usr/lib/x86_64-linux-gnu/ld-linux-x86-64.so.2
}
{
   <insert_a_suppression_name_here>
   Memcheck:Leak
   match-leak-kinds: reachable
   fun:_Znwm
   fun:_ZN3c1013demangle_typeIN5torch3jit36SRNativeOperatorFunctor_aten_flattenEEEPKcv
   fun:_Z41__static_initialization_and_destruction_0ii.constprop.0
   fun:call_init.part.0
   fun:call_init
   fun:_dl_init
   obj:/usr/lib/x86_64-linux-gnu/ld-linux-x86-64.so.2
}
{
   <insert_a_suppression_name_here>
   Memcheck:Leak
   match-leak-kinds: reachable
   fun:_Znwm
   fun:_ZN3c1013demangle_typeIN5torch3jit36SRNativeOperatorFunctor_aten_permuteEEEPKcv
   fun:_Z41__static_initialization_and_destruction_0ii.constprop.0
   fun:call_init.part.0
   fun:call_init
   fun:_dl_init
   obj:/usr/lib/x86_64-linux-gnu/ld-linux-x86-64.so.2
}
{
   <insert_a_suppression_name_here>
   Memcheck:Leak
   match-leak-kinds: reachable
   fun:_Znwm
   fun:_ZN3c1013demangle_typeIN5torch3jit36SRNativeOperatorFunctor_aten_reshapeEEEPKcv
   fun:_Z41__static_initialization_and_destruction_0ii.constprop.0
   fun:call_init.part.0
   fun:call_init
   fun:_dl_init
   obj:/usr/lib/x86_64-linux-gnu/ld-linux-x86-64.so.2
}
{
   <insert_a_suppression_name_here>
   Memcheck:Leak
   match-leak-kinds: reachable
   fun:_Znwm
   fun:_ZN3c1013demangle_typeIN5torch3jit34SRNativeOperatorFunctor_aten_sliceEEEPKcv
   fun:_Z41__static_initialization_and_destruction_0ii.constprop.0
   fun:call_init.part.0
   fun:call_init
   fun:_dl_init
   obj:/usr/lib/x86_64-linux-gnu/ld-linux-x86-64.so.2
}
{
   <insert_a_suppression_name_here>
   Memcheck:Leak
   match-leak-kinds: reachable
   fun:_Znwm
   fun:_ZN3c1013demangle_typeIN5torch3jit35SRNativeOperatorFunctor_aten_narrowEEEPKcv
   fun:_Z41__static_initialization_and_destruction_0ii.constprop.0
   fun:call_init.part.0
   fun:call_init
   fun:_dl_init
   obj:/usr/lib/x86_64-linux-gnu/ld-linux-x86-64.so.2
}
{
   <insert_a_suppression_name_here>
   Memcheck:Leak
   match-leak-kinds: reachable
   fun:_Znwm
   fun:_ZN3c1013demangle_typeIN5torch3jit31SRNativeOperatorFunctor_aten_toEEEPKcv
   fun:_Z41__static_initialization_and_destruction_0ii.constprop.0
   fun:call_init.part.0
   fun:call_init
   fun:_dl_init
   obj:/usr/lib/x86_64-linux-gnu/ld-linux-x86-64.so.2
}
{
   <insert_a_suppression_name_here>
   Memcheck:Leak
   match-leak-kinds: reachable
   fun:_Znwm
   fun:_ZN3c1013demangle_typeIN5torch3jit35SRNativeOperatorFunctor_aten_detachEEEPKcv
   fun:_Z41__static_initialization_and_destruction_0ii.constprop.0
   fun:call_init.part.0
   fun:call_init
   fun:_dl_init
   obj:/usr/lib/x86_64-linux-gnu/ld-linux-x86-64.so.2
}
{
   <insert_a_suppression_name_here>
   Memcheck:Leak
   match-leak-kinds: reachable
   fun:_Znwm
   fun:_ZN3c1013demangle_typeIN5torch3jit38SRNativeOperatorFunctor_aten_expand_asEEEPKcv
   fun:_Z41__static_initialization_and_destruction_0ii.constprop.0
   fun:call_init.part.0
   fun:call_init
   fun:_dl_init
   obj:/usr/lib/x86_64-linux-gnu/ld-linux-x86-64.so.2
}
{
   <insert_a_suppression_name_here>
   Memcheck:Leak
   match-leak-kinds: reachable
   fun:_Znwm
   fun:_ZN3c1013demangle_typeIN5torch3jit39SRNativeOperatorFunctor_prim_isinstanceEEEPKcv
   fun:_Z41__static_initialization_and_destruction_0ii.constprop.0
   fun:call_init.part.0
   fun:call_init
   fun:_dl_init
   obj:/usr/lib/x86_64-linux-gnu/ld-linux-x86-64.so.2
}
{
   <insert_a_suppression_name_here>
   Memcheck:Leak
   match-leak-kinds: reachable
   fun:_Znwm
   fun:_ZN3c1013demangle_typeIN5torch3jit38SRNativeOperatorFunctor_prim_TypeCheckEEEPKcv
   fun:_Z41__static_initialization_and_destruction_0ii.constprop.0
   fun:call_init.part.0
   fun:call_init
   fun:_dl_init
   obj:/usr/lib/x86_64-linux-gnu/ld-linux-x86-64.so.2
}
{
   <insert_a_suppression_name_here>
   Memcheck:Leak
   match-leak-kinds: reachable
   fun:_Znwm
   fun:_ZN3c1013demangle_typeIN5torch3jit53SRNativeOperatorFunctor_static_runtime_VarTupleUnpackEEEPKcv
   fun:_Z41__static_initialization_and_destruction_0ii.constprop.0
   fun:call_init.part.0
   fun:call_init
   fun:_dl_init
   obj:/usr/lib/x86_64-linux-gnu/ld-linux-x86-64.so.2
}
{
   <insert_a_suppression_name_here>
   Memcheck:Leak
   match-leak-kinds: reachable
   fun:_Znwm
   fun:_ZN3c1013demangle_typeIN5torch3jit33SRNativeOperatorFunctor_aten_viewEEEPKcv
   fun:_Z41__static_initialization_and_destruction_0ii.constprop.0
   fun:call_init.part.0
   fun:call_init
   fun:_dl_init
   obj:/usr/lib/x86_64-linux-gnu/ld-linux-x86-64.so.2
}
{
   <insert_a_suppression_name_here>
   Memcheck:Leak
   match-leak-kinds: reachable
   fun:_Znwm
   fun:_ZN3c1013demangle_typeIN5torch3jit33SRNativeOperatorFunctor_aten_sizeEEEPKcv
   fun:_Z41__static_initialization_and_destruction_0ii.constprop.0
   fun:call_init.part.0
   fun:call_init
   fun:_dl_init
   obj:/usr/lib/x86_64-linux-gnu/ld-linux-x86-64.so.2
}
{
   <insert_a_suppression_name_here>
   Memcheck:Leak
   match-leak-kinds: reachable
   fun:_Znwm
   fun:_ZN3c1013demangle_typeIN5torch3jit36SRNativeOperatorFunctor_aten_squeezeEEEPKcv
   fun:_Z41__static_initialization_and_destruction_0ii.constprop.0
   fun:call_init.part.0
   fun:call_init
   fun:_dl_init
   obj:/usr/lib/x86_64-linux-gnu/ld-linux-x86-64.so.2
}
{
   <insert_a_suppression_name_here>
   Memcheck:Leak
   match-leak-kinds: reachable
   fun:_Znwm
   fun:_ZN3c1013demangle_typeIN5torch3jit34SRNativeOperatorFunctor_aten_splitEEEPKcv
   fun:_Z41__static_initialization_and_destruction_0ii.constprop.0
   fun:call_init.part.0
   fun:call_init
   fun:_dl_init
   obj:/usr/lib/x86_64-linux-gnu/ld-linux-x86-64.so.2
}
{
   <insert_a_suppression_name_here>
   Memcheck:Leak
   match-leak-kinds: reachable
   fun:_Znwm
   fun:_ZN3c1013demangle_typeIN5torch3jit45SRNativeOperatorFunctor_aten_split_with_sizesEEEPKcv
   fun:_Z41__static_initialization_and_destruction_0ii.constprop.0
   fun:call_init.part.0
   fun:call_init
   fun:_dl_init
   obj:/usr/lib/x86_64-linux-gnu/ld-linux-x86-64.so.2
}
{
   <insert_a_suppression_name_here>
   Memcheck:Leak
   match-leak-kinds: reachable
   fun:_Znwm
   fun:_ZN3c1013demangle_typeIN5torch3jit42SRNativeOperatorFunctor_aten_select_tensorEEEPKcv
   fun:_Z41__static_initialization_and_destruction_0ii.constprop.0
   fun:call_init.part.0
   fun:call_init
   fun:_dl_init
   obj:/usr/lib/x86_64-linux-gnu/ld-linux-x86-64.so.2
}
{
   <insert_a_suppression_name_here>
   Memcheck:Leak
   match-leak-kinds: reachable
   fun:_Znwm
   fun:_ZN3c1013demangle_typeIN5torch3jit32SRNativeOperatorFunctor_aten_mulEEEPKcv
   fun:_Z41__static_initialization_and_destruction_0ii.constprop.0
   fun:call_init.part.0
   fun:call_init
   fun:_dl_init
   obj:/usr/lib/x86_64-linux-gnu/ld-linux-x86-64.so.2
}
{
   <insert_a_suppression_name_here>
   Memcheck:Leak
   match-leak-kinds: reachable
   fun:_Znwm
   fun:_ZN3c1013demangle_typeIN5torch3jit32SRNativeOperatorFunctor_aten_subEEEPKcv
   fun:_Z41__static_initialization_and_destruction_0ii.constprop.0
   fun:call_init.part.0
   fun:call_init
   fun:_dl_init
   obj:/usr/lib/x86_64-linux-gnu/ld-linux-x86-64.so.2
}
{
   <insert_a_suppression_name_here>
   Memcheck:Leak
   match-leak-kinds: reachable
   fun:_Znwm
   fun:_ZN3c1013demangle_typeIN5torch3jit32SRNativeOperatorFunctor_aten_addEEEPKcv
   fun:_Z41__static_initialization_and_destruction_0ii.constprop.0
   fun:call_init.part.0
   fun:call_init
   fun:_dl_init
   obj:/usr/lib/x86_64-linux-gnu/ld-linux-x86-64.so.2
}
{
   <insert_a_suppression_name_here>
   Memcheck:Leak
   match-leak-kinds: reachable
   fun:_Znwm
   fun:_ZN3c1013demangle_typeIN5torch3jit41SRNativeOperatorFunctor_aten_tensor_splitEEEPKcv
   fun:_Z41__static_initialization_and_destruction_0ii.constprop.0
   fun:call_init.part.0
   fun:call_init
   fun:_dl_init
   obj:/usr/lib/x86_64-linux-gnu/ld-linux-x86-64.so.2
}
{
   <insert_a_suppression_name_here>
   Memcheck:Leak
   match-leak-kinds: reachable
   fun:_Znwm
   fun:_ZN3c1013demangle_typeIN5torch3jit32SRNativeOperatorFunctor_aten_IntEEEPKcv
   fun:_Z41__static_initialization_and_destruction_0ii.constprop.0
   fun:call_init.part.0
   fun:call_init
   fun:_dl_init
   obj:/usr/lib/x86_64-linux-gnu/ld-linux-x86-64.so.2
}
{
   <insert_a_suppression_name_here>
   Memcheck:Leak
   match-leak-kinds: reachable
   fun:_Znwm
   fun:_ZN3c1013demangle_typeIN5torch3jit55SRNativeOperatorFunctor_static_runtime_create_owned_refEEEPKcv
   fun:_Z41__static_initialization_and_destruction_0ii.constprop.0
   fun:call_init.part.0
   fun:call_init
   fun:_dl_init
   obj:/usr/lib/x86_64-linux-gnu/ld-linux-x86-64.so.2
}
{
   <insert_a_suppression_name_here>
   Memcheck:Leak
   match-leak-kinds: reachable
   fun:_Znwm
   fun:_ZN3c1013demangle_typeIN5torch3jit31SRNativeOperatorFunctor_prim_IfEEEPKcv
   fun:_Z41__static_initialization_and_destruction_0ii.constprop.0
   fun:call_init.part.0
   fun:call_init
   fun:_dl_init
   obj:/usr/lib/x86_64-linux-gnu/ld-linux-x86-64.so.2
}
{
   <insert_a_suppression_name_here>
   Memcheck:Leak
   match-leak-kinds: reachable
   fun:_Znwm
   fun:_ZN3c1013demangle_typeIN5torch3jit33SRNativeOperatorFunctor_prim_ForkEEEPKcv
   fun:_Z41__static_initialization_and_destruction_0ii.constprop.0
   fun:call_init.part.0
   fun:call_init
   fun:_dl_init
   obj:/usr/lib/x86_64-linux-gnu/ld-linux-x86-64.so.2
}
{
   <insert_a_suppression_name_here>
   Memcheck:Leak
   match-leak-kinds: reachable
   fun:_Znwm
   fun:_ZN3c1013demangle_typeIN5torch3jit33SRNativeOperatorFunctor_aten_WaitEEEPKcv
   fun:_Z41__static_initialization_and_destruction_0ii.constprop.0
   fun:call_init.part.0
   fun:call_init
   fun:_dl_init
   obj:/usr/lib/x86_64-linux-gnu/ld-linux-x86-64.so.2
}
{
   <insert_a_suppression_name_here>
   Memcheck:Leak
   match-leak-kinds: reachable
   fun:_Znwm
   fun:_ZN3c1013demangle_typeIN5torch3jit33SRNativeOperatorFunctor_prim_LoopEEEPKcv
   fun:_Z41__static_initialization_and_destruction_0ii.constprop.0
   fun:call_init.part.0
   fun:call_init
   fun:_dl_init
   obj:/usr/lib/x86_64-linux-gnu/ld-linux-x86-64.so.2
}
{
   <insert_a_suppression_name_here>
   Memcheck:Leak
   match-leak-kinds: reachable
   fun:_Znwm
   fun:_ZN3c1013demangle_typeIN5torch3jit41SRNativeOperatorFunctor_prim_CreateObjectEEEPKcv
   fun:_Z41__static_initialization_and_destruction_0ii.constprop.0
   fun:call_init.part.0
   fun:call_init
   fun:_dl_init
   obj:/usr/lib/x86_64-linux-gnu/ld-linux-x86-64.so.2
}
{
   <insert_a_suppression_name_here>
   Memcheck:Leak
   match-leak-kinds: reachable
   fun:_Znwm
   fun:_ZN3c1013demangle_typeIN5torch3jit39SRNativeOperatorFunctor_prim_TupleIndexEEEPKcv
   fun:_Z41__static_initialization_and_destruction_0ii.constprop.0
   fun:call_init.part.0
   fun:call_init
   fun:_dl_init
   obj:/usr/lib/x86_64-linux-gnu/ld-linux-x86-64.so.2
}
{
   <insert_a_suppression_name_here>
   Memcheck:Leak
   match-leak-kinds: reachable
   fun:_Znwm
   fun:_ZN3c1013demangle_typeIN5torch3jit43SRNativeOperatorFunctor_prim_RaiseExceptionEEEPKcv
   fun:_Z41__static_initialization_and_destruction_0ii.constprop.0
   fun:call_init.part.0
   fun:call_init
   fun:_dl_init
   obj:/usr/lib/x86_64-linux-gnu/ld-linux-x86-64.so.2
}
{
   <insert_a_suppression_name_here>
   Memcheck:Leak
   match-leak-kinds: reachable
   fun:_Znwm
   fun:_ZN3c1013demangle_typeIN5torch3jit42SRNativeOperatorFunctor_prim_UninitializedEEEPKcv
   fun:_Z41__static_initialization_and_destruction_0ii.constprop.0
   fun:call_init.part.0
   fun:call_init
   fun:_dl_init
   obj:/usr/lib/x86_64-linux-gnu/ld-linux-x86-64.so.2
}
{
   <insert_a_suppression_name_here>
   Memcheck:Leak
   match-leak-kinds: reachable
   fun:_Znwm
   fun:_ZN3c1013demangle_typeIN5torch3jit35SRNativeOperatorFunctor_aten_formatEEEPKcv
   fun:_Z41__static_initialization_and_destruction_0ii.constprop.0
   fun:call_init.part.0
   fun:call_init
   fun:_dl_init
   obj:/usr/lib/x86_64-linux-gnu/ld-linux-x86-64.so.2
}
{
   <insert_a_suppression_name_here>
   Memcheck:Leak
   match-leak-kinds: reachable
   fun:_Znwm
   fun:_ZN3c1013demangle_typeIN5torch3jit35SRNativeOperatorFunctor_prim_deviceEEEPKcv
   fun:_Z41__static_initialization_and_destruction_0ii.constprop.0
   fun:call_init.part.0
   fun:call_init
   fun:_dl_init
   obj:/usr/lib/x86_64-linux-gnu/ld-linux-x86-64.so.2
}
{
   <insert_a_suppression_name_here>
   Memcheck:Leak
   match-leak-kinds: reachable
   fun:_Znwm
   fun:_ZN3c1013demangle_typeIN5torch3jit34SRNativeOperatorFunctor_prim_dtypeEEEPKcv
   fun:_Z41__static_initialization_and_destruction_0ii.constprop.0
   fun:call_init.part.0
   fun:call_init
   fun:_dl_init
   obj:/usr/lib/x86_64-linux-gnu/ld-linux-x86-64.so.2
}
{
   <insert_a_suppression_name_here>
   Memcheck:Leak
   match-leak-kinds: reachable
   fun:_Znwm
   fun:_ZN3c1013demangle_typeIN5torch3jit32SRNativeOperatorFunctor_aten_dimEEEPKcv
   fun:_Z41__static_initialization_and_destruction_0ii.constprop.0
   fun:call_init.part.0
   fun:call_init
   fun:_dl_init
   obj:/usr/lib/x86_64-linux-gnu/ld-linux-x86-64.so.2
}
{
   <insert_a_suppression_name_here>
   Memcheck:Leak
   match-leak-kinds: reachable
   fun:_Znwm
   fun:_ZN3c1013demangle_typeIN5torch3jit32SRNativeOperatorFunctor_aten_notEEEPKcv
   fun:_Z41__static_initialization_and_destruction_0ii.constprop.0
   fun:call_init.part.0
   fun:call_init
   fun:_dl_init
   obj:/usr/lib/x86_64-linux-gnu/ld-linux-x86-64.so.2
}
{
   <insert_a_suppression_name_here>
   Memcheck:Leak
   match-leak-kinds: reachable
   fun:_Znwm
   fun:_ZN3c1013demangle_typeIN5torch3jit33SRNativeOperatorFunctor_aten_BoolEEEPKcv
   fun:_Z41__static_initialization_and_destruction_0ii.constprop.0
   fun:call_init.part.0
   fun:call_init
   fun:_dl_init
   obj:/usr/lib/x86_64-linux-gnu/ld-linux-x86-64.so.2
}
{
   <insert_a_suppression_name_here>
   Memcheck:Leak
   match-leak-kinds: reachable
   fun:_Znwm
   fun:_ZN3c1013demangle_typeIN5torch3jit36SRNativeOperatorFunctor_prim_is_cudaEEEPKcv
   fun:_Z41__static_initialization_and_destruction_0ii.constprop.0
   fun:call_init.part.0
   fun:call_init
   fun:_dl_init
   obj:/usr/lib/x86_64-linux-gnu/ld-linux-x86-64.so.2
}
{
   <insert_a_suppression_name_here>
   Memcheck:Leak
   match-leak-kinds: reachable
   fun:_Znwm
   fun:_ZN3c1013demangle_typeIN5torch3jit35SRNativeOperatorFunctor_prim_tolistEEEPKcv
   fun:_Z41__static_initialization_and_destruction_0ii.constprop.0
   fun:call_init.part.0
   fun:call_init
   fun:_dl_init
   obj:/usr/lib/x86_64-linux-gnu/ld-linux-x86-64.so.2
}
{
   <insert_a_suppression_name_here>
   Memcheck:Leak
   match-leak-kinds: reachable
   fun:_Znwm
   fun:_ZN3c1013demangle_typeIN5torch3jit39SRNativeOperatorFunctor_prim_IfThenElseEEEPKcv
   fun:_Z41__static_initialization_and_destruction_0ii.constprop.0
   fun:call_init.part.0
   fun:call_init
   fun:_dl_init
   obj:/usr/lib/x86_64-linux-gnu/ld-linux-x86-64.so.2
}
{
   <insert_a_suppression_name_here>
   Memcheck:Leak
   match-leak-kinds: reachable
   fun:_Znwm
   fun:_ZN3c1013demangle_typeIN5torch3jit32SRNativeOperatorFunctor_aten_lenEEEPKcv
   fun:_Z41__static_initialization_and_destruction_0ii.constprop.0
   fun:call_init.part.0
   fun:call_init
   fun:_dl_init
   obj:/usr/lib/x86_64-linux-gnu/ld-linux-x86-64.so.2
}
{
   <insert_a_suppression_name_here>
   Memcheck:Leak
   match-leak-kinds: reachable
   fun:_Znwm
   fun:_ZN3c1013demangle_typeIN5torch3jit40SRNativeOperatorFunctor_aten_IntImplicitEEEPKcv
   fun:_Z41__static_initialization_and_destruction_0ii.constprop.0
   fun:call_init.part.0
   fun:call_init
   fun:_dl_init
   obj:/usr/lib/x86_64-linux-gnu/ld-linux-x86-64.so.2
}
{
   <insert_a_suppression_name_here>
   Memcheck:Leak
   match-leak-kinds: reachable
   fun:_Znwm
   fun:_ZN3c1013demangle_typeIN5torch3jit35SRNativeOperatorFunctor_aten_selectEEEPKcv
   fun:_Z41__static_initialization_and_destruction_0ii.constprop.0
   fun:call_init.part.0
   fun:call_init
   fun:_dl_init
   obj:/usr/lib/x86_64-linux-gnu/ld-linux-x86-64.so.2
}
{
   <insert_a_suppression_name_here>
   Memcheck:Leak
   match-leak-kinds: reachable
   fun:_Znwm
   fun:_ZN3c1013demangle_typeIN5torch3jit39SRNativeOperatorFunctor_aten_reshape_asEEEPKcv
   fun:_Z41__static_initialization_and_destruction_0ii.constprop.0
   fun:call_init.part.0
   fun:call_init
   fun:_dl_init
   obj:/usr/lib/x86_64-linux-gnu/ld-linux-x86-64.so.2
}
{
   <insert_a_suppression_name_here>
   Memcheck:Leak
   match-leak-kinds: reachable
   fun:_Znwm
   fun:_ZN3c1013demangle_typeIN5torch3jit36SROperatorFunctor_prim_ListConstructEEEPKcv
   fun:_Z41__static_initialization_and_destruction_0ii.constprop.0
   fun:call_init.part.0
   fun:call_init
   fun:_dl_init
   obj:/usr/lib/x86_64-linux-gnu/ld-linux-x86-64.so.2
}
{
   <insert_a_suppression_name_here>
   Memcheck:Leak
   match-leak-kinds: reachable
   fun:_Znwm
   fun:_ZN3c1013demangle_typeIN5torch3jit37SROperatorFunctor_prim_TupleConstructEEEPKcv
   fun:_Z41__static_initialization_and_destruction_0ii.constprop.0
   fun:call_init.part.0
   fun:call_init
   fun:_dl_init
   obj:/usr/lib/x86_64-linux-gnu/ld-linux-x86-64.so.2
}
{
   <insert_a_suppression_name_here>
   Memcheck:Leak
   match-leak-kinds: reachable
   fun:_Znwm
   fun:_ZN3c1013demangle_typeIN5torch3jit26SROperatorFunctor_aten_absEEEPKcv
   fun:_Z41__static_initialization_and_destruction_0ii.constprop.0
   fun:call_init.part.0
   fun:call_init
   fun:_dl_init
   obj:/usr/lib/x86_64-linux-gnu/ld-linux-x86-64.so.2
}
{
   <insert_a_suppression_name_here>
   Memcheck:Leak
   match-leak-kinds: reachable
   fun:_Znwm
   fun:_ZN3c1013demangle_typeIN5torch3jit26SROperatorFunctor_aten_mulEEEPKcv
   fun:_Z41__static_initialization_and_destruction_0ii.constprop.0
   fun:call_init.part.0
   fun:call_init
   fun:_dl_init
   obj:/usr/lib/x86_64-linux-gnu/ld-linux-x86-64.so.2
}
{
   <insert_a_suppression_name_here>
   Memcheck:Leak
   match-leak-kinds: reachable
   fun:_Znwm
   fun:_ZN3c1013demangle_typeIN5torch3jit28SROperatorFunctor_aten_addmmEEEPKcv
   fun:_Z41__static_initialization_and_destruction_0ii.constprop.0
   fun:call_init.part.0
   fun:call_init
   fun:_dl_init
   obj:/usr/lib/x86_64-linux-gnu/ld-linux-x86-64.so.2
}
{
   <insert_a_suppression_name_here>
   Memcheck:Leak
   match-leak-kinds: reachable
   fun:_Znwm
   fun:_ZN3c1013demangle_typeIN5torch3jit28SROperatorFunctor_aten_clampEEEPKcv
   fun:_Z41__static_initialization_and_destruction_0ii.constprop.0
   fun:call_init.part.0
   fun:call_init
   fun:_dl_init
   obj:/usr/lib/x86_64-linux-gnu/ld-linux-x86-64.so.2
}
{
   <insert_a_suppression_name_here>
   Memcheck:Leak
   match-leak-kinds: reachable
   fun:_Znwm
   fun:_ZN3c1013demangle_typeIN5torch3jit26SROperatorFunctor_aten_bmmEEEPKcv
   fun:_Z41__static_initialization_and_destruction_0ii.constprop.0
   fun:call_init.part.0
   fun:call_init
   fun:_dl_init
   obj:/usr/lib/x86_64-linux-gnu/ld-linux-x86-64.so.2
}
{
   <insert_a_suppression_name_here>
   Memcheck:Leak
   match-leak-kinds: reachable
   fun:_Znwm
   fun:_ZN3c1013demangle_typeIN5torch3jit33SROperatorFunctor_aten_nan_to_numEEEPKcv
   fun:_Z41__static_initialization_and_destruction_0ii.constprop.0
   fun:call_init.part.0
   fun:call_init
   fun:_dl_init
   obj:/usr/lib/x86_64-linux-gnu/ld-linux-x86-64.so.2
}
{
   <insert_a_suppression_name_here>
   Memcheck:Leak
   match-leak-kinds: reachable
   fun:_Znwm
   fun:_ZN3c1013demangle_typeIN5torch3jit28SROperatorFunctor_aten_stackEEEPKcv
   fun:_Z41__static_initialization_and_destruction_0ii.constprop.0
   fun:call_init.part.0
   fun:call_init
   fun:_dl_init
   obj:/usr/lib/x86_64-linux-gnu/ld-linux-x86-64.so.2
}
{
   <insert_a_suppression_name_here>
   Memcheck:Leak
   match-leak-kinds: reachable
   fun:_Znwm
   fun:_ZN3c1013demangle_typeIN5torch3jit31SROperatorFunctor_prim_VarStackEEEPKcv
   fun:_Z41__static_initialization_and_destruction_0ii.constprop.0
   fun:call_init.part.0
   fun:call_init
   fun:_dl_init
   obj:/usr/lib/x86_64-linux-gnu/ld-linux-x86-64.so.2
}
{
   <insert_a_suppression_name_here>
   Memcheck:Leak
   match-leak-kinds: reachable
   fun:_Znwm
   fun:_ZN3c1013demangle_typeIN5torch3jit33SROperatorFunctor_aten_leaky_reluEEEPKcv
   fun:_Z41__static_initialization_and_destruction_0ii.constprop.0
   fun:call_init.part.0
   fun:call_init
   fun:_dl_init
   obj:/usr/lib/x86_64-linux-gnu/ld-linux-x86-64.so.2
}
{
   <insert_a_suppression_name_here>
   Memcheck:Leak
   match-leak-kinds: reachable
   fun:_Znwm
   fun:_ZN3c1013demangle_typeIN5torch3jit27SROperatorFunctor_aten_reluEEEPKcv
   fun:_Z41__static_initialization_and_destruction_0ii.constprop.0
   fun:call_init.part.0
   fun:call_init
   fun:_dl_init
   obj:/usr/lib/x86_64-linux-gnu/ld-linux-x86-64.so.2
}
{
   <insert_a_suppression_name_here>
   Memcheck:Leak
   match-leak-kinds: reachable
   fun:_Znwm
   fun:_ZN3c1013demangle_typeIN5torch3jit27SROperatorFunctor_aten_tanhEEEPKcv
   fun:_Z41__static_initialization_and_destruction_0ii.constprop.0
   fun:call_init.part.0
   fun:call_init
   fun:_dl_init
   obj:/usr/lib/x86_64-linux-gnu/ld-linux-x86-64.so.2
}
{
   <insert_a_suppression_name_here>
   Memcheck:Leak
   match-leak-kinds: reachable
   fun:_Znwm
   fun:_ZN3c1013demangle_typeIN5torch3jit45SROperatorFunctor_prim_TensorExprDynamicGroupEEEPKcv
   fun:_Z41__static_initialization_and_destruction_0ii.constprop.0
   fun:call_init.part.0
   fun:call_init
   fun:_dl_init
   obj:/usr/lib/x86_64-linux-gnu/ld-linux-x86-64.so.2
}
{
   <insert_a_suppression_name_here>
   Memcheck:Leak
   match-leak-kinds: reachable
   fun:_Znwm
   fun:_ZN3c1013demangle_typeIN5torch3jit30SROperatorFunctor_aten_sigmoidEEEPKcv
   fun:_Z41__static_initialization_and_destruction_0ii.constprop.0
   fun:call_init.part.0
   fun:call_init
   fun:_dl_init
   obj:/usr/lib/x86_64-linux-gnu/ld-linux-x86-64.so.2
}
{
   <insert_a_suppression_name_here>
   Memcheck:Leak
   match-leak-kinds: reachable
   fun:_Znwm
   fun:_ZN3c1013demangle_typeIN5torch3jit28SROperatorFunctor_aten_logitEEEPKcv
   fun:_Z41__static_initialization_and_destruction_0ii.constprop.0
   fun:call_init.part.0
   fun:call_init
   fun:_dl_init
   obj:/usr/lib/x86_64-linux-gnu/ld-linux-x86-64.so.2
}
{
   <insert_a_suppression_name_here>
   Memcheck:Leak
   match-leak-kinds: reachable
   fun:_Znwm
   fun:_ZN3c1013demangle_typeIN5torch3jit28SROperatorFunctor_aten_cloneEEEPKcv
   fun:_Z41__static_initialization_and_destruction_0ii.constprop.0
   fun:call_init.part.0
   fun:call_init
   fun:_dl_init
   obj:/usr/lib/x86_64-linux-gnu/ld-linux-x86-64.so.2
}
{
   <insert_a_suppression_name_here>
   Memcheck:Leak
   match-leak-kinds: reachable
   fun:_Znwm
   fun:_ZN3c1013demangle_typeIN5torch3jit62SROperatorFunctor_quantized_embedding_bag_byte_rowwise_offsetsEEEPKcv
   fun:_Z41__static_initialization_and_destruction_0ii.constprop.0
   fun:call_init.part.0
   fun:call_init
   fun:_dl_init
   obj:/usr/lib/x86_64-linux-gnu/ld-linux-x86-64.so.2
}
{
   <insert_a_suppression_name_here>
   Memcheck:Leak
   match-leak-kinds: reachable
   fun:_Znwm
   fun:_ZN3c1013demangle_typeIN5torch3jit52SROperatorFunctor_embedding_bag_4bit_rowwise_offsetsEEEPKcv
   fun:_Z41__static_initialization_and_destruction_0ii.constprop.0
   fun:call_init.part.0
   fun:call_init
   fun:_dl_init
   obj:/usr/lib/x86_64-linux-gnu/ld-linux-x86-64.so.2
}
{
   <insert_a_suppression_name_here>
   Memcheck:Leak
   match-leak-kinds: reachable
   fun:_Znwm
   fun:_ZN3c1013demangle_typeIN5torch3jit44SROperatorFunctor_embedding_bag_byte_prepackEEEPKcv
   fun:_Z41__static_initialization_and_destruction_0ii.constprop.0
   fun:call_init.part.0
   fun:call_init
   fun:_dl_init
   obj:/usr/lib/x86_64-linux-gnu/ld-linux-x86-64.so.2
}
{
   <insert_a_suppression_name_here>
   Memcheck:Leak
   match-leak-kinds: reachable
   fun:_Znwm
   fun:_ZN3c1013demangle_typeIN5torch3jit34SROperatorFunctor_aten_narrow_copyEEEPKcv
   fun:_Z41__static_initialization_and_destruction_0ii.constprop.0
   fun:call_init.part.0
   fun:call_init
   fun:_dl_init
   obj:/usr/lib/x86_64-linux-gnu/ld-linux-x86-64.so.2
}
{
   <insert_a_suppression_name_here>
   Memcheck:Leak
   match-leak-kinds: reachable
   fun:_Znwm
   fun:_ZN3c1013demangle_typeIN5torch3jit28SROperatorFunctor_aten_indexEEEPKcv
   fun:_Z41__static_initialization_and_destruction_0ii.constprop.0
   fun:call_init.part.0
   fun:call_init
   fun:_dl_init
   obj:/usr/lib/x86_64-linux-gnu/ld-linux-x86-64.so.2
}
{
   <insert_a_suppression_name_here>
   Memcheck:Leak
   match-leak-kinds: reachable
   fun:_Znwm
   fun:_ZN3c1013demangle_typeIN5torch3jit35SROperatorFunctor_aten_index_selectEEEPKcv
   fun:_Z41__static_initialization_and_destruction_0ii.constprop.0
   fun:call_init.part.0
   fun:call_init
   fun:_dl_init
   obj:/usr/lib/x86_64-linux-gnu/ld-linux-x86-64.so.2
}
{
   <insert_a_suppression_name_here>
   Memcheck:Leak
   match-leak-kinds: reachable
   fun:_Znwm
   fun:_ZN3c1013demangle_typeIN5torch3jit26SROperatorFunctor_aten_powEEEPKcv
   fun:_Z41__static_initialization_and_destruction_0ii.constprop.0
   fun:call_init.part.0
   fun:call_init
   fun:_dl_init
   obj:/usr/lib/x86_64-linux-gnu/ld-linux-x86-64.so.2
}
{
   <insert_a_suppression_name_here>
   Memcheck:Leak
   match-leak-kinds: reachable
   fun:_Znwm
   fun:_ZN3c1013demangle_typeIN5torch3jit36SROperatorFunctor_aten_to_maybe_copyEEEPKcv
   fun:_Z41__static_initialization_and_destruction_0ii.constprop.0
   fun:call_init.part.0
   fun:call_init
   fun:_dl_init
   obj:/usr/lib/x86_64-linux-gnu/ld-linux-x86-64.so.2
}
{
   <insert_a_suppression_name_here>
   Memcheck:Leak
   match-leak-kinds: reachable
   fun:_Znwm
   fun:_ZN3c1013demangle_typeIN5torch3jit40SROperatorFunctor_static_runtime_to_copyEEEPKcv
   fun:_Z41__static_initialization_and_destruction_0ii.constprop.0
   fun:call_init.part.0
   fun:call_init
   fun:_dl_init
   obj:/usr/lib/x86_64-linux-gnu/ld-linux-x86-64.so.2
}
{
   <insert_a_suppression_name_here>
   Memcheck:Leak
   match-leak-kinds: reachable
   fun:_Znwm
   fun:_ZN3c1013demangle_typeIN5torch3jit38SROperatorFunctor_aten_dequantize_copyEEEPKcv
   fun:_Z41__static_initialization_and_destruction_0ii.constprop.0
   fun:call_init.part.0
   fun:call_init
   fun:_dl_init
   obj:/usr/lib/x86_64-linux-gnu/ld-linux-x86-64.so.2
}
{
   <insert_a_suppression_name_here>
   Memcheck:Leak
   match-leak-kinds: reachable
   fun:_Znwm
   fun:_ZN3c1013demangle_typeIN5torch3jit30SROperatorFunctor_aten_reshapeEEEPKcv
   fun:_Z41__static_initialization_and_destruction_0ii.constprop.0
   fun:call_init.part.0
   fun:call_init
   fun:_dl_init
   obj:/usr/lib/x86_64-linux-gnu/ld-linux-x86-64.so.2
}
{
   <insert_a_suppression_name_here>
   Memcheck:Leak
   match-leak-kinds: reachable
   fun:_Znwm
   fun:_ZN3c1013demangle_typeIN5torch3jit30SROperatorFunctor_aten_flattenEEEPKcv
   fun:_Z41__static_initialization_and_destruction_0ii.constprop.0
   fun:call_init.part.0
   fun:call_init
   fun:_dl_init
   obj:/usr/lib/x86_64-linux-gnu/ld-linux-x86-64.so.2
}
{
   <insert_a_suppression_name_here>
   Memcheck:Leak
   match-leak-kinds: reachable
   fun:_Znwm
   fun:_ZN3c1013demangle_typeIN5torch3jit26SROperatorFunctor_aten_sumEEEPKcv
   fun:_Z41__static_initialization_and_destruction_0ii.constprop.0
   fun:call_init.part.0
   fun:call_init
   fun:_dl_init
   obj:/usr/lib/x86_64-linux-gnu/ld-linux-x86-64.so.2
}
{
   <insert_a_suppression_name_here>
   Memcheck:Leak
   match-leak-kinds: reachable
   fun:_Znwm
   fun:_ZN3c1013demangle_typeIN5torch3jit27SROperatorFunctor_aten_meanEEEPKcv
   fun:_Z41__static_initialization_and_destruction_0ii.constprop.0
   fun:call_init.part.0
   fun:call_init
   fun:_dl_init
   obj:/usr/lib/x86_64-linux-gnu/ld-linux-x86-64.so.2
}
{
   <insert_a_suppression_name_here>
   Memcheck:Leak
   match-leak-kinds: reachable
   fun:_Znwm
   fun:_ZN3c1013demangle_typeIN5torch3jit29SROperatorFunctor_aten_repeatEEEPKcv
   fun:_Z41__static_initialization_and_destruction_0ii.constprop.0
   fun:call_init.part.0
   fun:call_init
   fun:_dl_init
   obj:/usr/lib/x86_64-linux-gnu/ld-linux-x86-64.so.2
}
{
   <insert_a_suppression_name_here>
   Memcheck:Leak
   match-leak-kinds: reachable
   fun:_Znwm
   fun:_ZN3c1013demangle_typeIN5torch3jit26SROperatorFunctor_aten_maxEEEPKcv
   fun:_Z41__static_initialization_and_destruction_0ii.constprop.0
   fun:call_init.part.0
   fun:call_init
   fun:_dl_init
   obj:/usr/lib/x86_64-linux-gnu/ld-linux-x86-64.so.2
}
{
   <insert_a_suppression_name_here>
   Memcheck:Leak
   match-leak-kinds: reachable
   fun:_Znwm
   fun:_ZN3c1013demangle_typeIN5torch3jit27SROperatorFunctor_aten_signEEEPKcv
   fun:_Z41__static_initialization_and_destruction_0ii.constprop.0
   fun:call_init.part.0
   fun:call_init
   fun:_dl_init
   obj:/usr/lib/x86_64-linux-gnu/ld-linux-x86-64.so.2
}
{
   <insert_a_suppression_name_here>
   Memcheck:Leak
   match-leak-kinds: reachable
   fun:_Znwm
   fun:_ZN3c1013demangle_typeIN5torch3jit26SROperatorFunctor_aten_divEEEPKcv
   fun:_Z41__static_initialization_and_destruction_0ii.constprop.0
   fun:call_init.part.0
   fun:call_init
   fun:_dl_init
   obj:/usr/lib/x86_64-linux-gnu/ld-linux-x86-64.so.2
}
{
   <insert_a_suppression_name_here>
   Memcheck:Leak
   match-leak-kinds: reachable
   fun:_Znwm
   fun:_ZN3c1013demangle_typeIN5torch3jit26SROperatorFunctor_aten_logEEEPKcv
   fun:_Z41__static_initialization_and_destruction_0ii.constprop.0
   fun:call_init.part.0
   fun:call_init
   fun:_dl_init
   obj:/usr/lib/x86_64-linux-gnu/ld-linux-x86-64.so.2
}
{
   <insert_a_suppression_name_here>
   Memcheck:Leak
   match-leak-kinds: reachable
   fun:_Znwm
   fun:_ZN3c1013demangle_typeIN5torch3jit26SROperatorFunctor_aten_subEEEPKcv
   fun:_Z41__static_initialization_and_destruction_0ii.constprop.0
   fun:call_init.part.0
   fun:call_init
   fun:_dl_init
   obj:/usr/lib/x86_64-linux-gnu/ld-linux-x86-64.so.2
}
{
   <insert_a_suppression_name_here>
   Memcheck:Leak
   match-leak-kinds: reachable
   fun:_Znwm
   fun:_ZN3c1013demangle_typeIN5torch3jit32SROperatorFunctor_aten_clamp_minEEEPKcv
   fun:_Z41__static_initialization_and_destruction_0ii.constprop.0
   fun:call_init.part.0
   fun:call_init
   fun:_dl_init
   obj:/usr/lib/x86_64-linux-gnu/ld-linux-x86-64.so.2
}
{
   <insert_a_suppression_name_here>
   Memcheck:Leak
   match-leak-kinds: reachable
   fun:_Znwm
   fun:_ZN3c1013demangle_typeIN5torch3jit29SROperatorFunctor_aten_argminEEEPKcv
   fun:_Z41__static_initialization_and_destruction_0ii.constprop.0
   fun:call_init.part.0
   fun:call_init
   fun:_dl_init
   obj:/usr/lib/x86_64-linux-gnu/ld-linux-x86-64.so.2
}
{
   <insert_a_suppression_name_here>
   Memcheck:Leak
   match-leak-kinds: reachable
   fun:_Znwm
   fun:_ZN3c1013demangle_typeIN5torch3jit30SROperatorFunctor_aten_softmaxEEEPKcv
   fun:_Z41__static_initialization_and_destruction_0ii.constprop.0
   fun:call_init.part.0
   fun:call_init
   fun:_dl_init
   obj:/usr/lib/x86_64-linux-gnu/ld-linux-x86-64.so.2
}
{
   <insert_a_suppression_name_here>
   Memcheck:Leak
   match-leak-kinds: reachable
   fun:_Znwm
   fun:_ZN3c1013demangle_typeIN5torch3jit33SROperatorFunctor_aten_layer_normEEEPKcv
   fun:_Z41__static_initialization_and_destruction_0ii.constprop.0
   fun:call_init.part.0
   fun:call_init
   fun:_dl_init
   obj:/usr/lib/x86_64-linux-gnu/ld-linux-x86-64.so.2
}
{
   <insert_a_suppression_name_here>
   Memcheck:Leak
   match-leak-kinds: reachable
   fun:_Znwm
   fun:_ZN3c1013demangle_typeIN5torch3jit27SROperatorFunctor_aten_normEEEPKcv
   fun:_Z41__static_initialization_and_destruction_0ii.constprop.0
   fun:call_init.part.0
   fun:call_init
   fun:_dl_init
   obj:/usr/lib/x86_64-linux-gnu/ld-linux-x86-64.so.2
}
{
   <insert_a_suppression_name_here>
   Memcheck:Leak
   match-leak-kinds: reachable
   fun:_Znwm
   fun:_ZN3c1013demangle_typeIN5torch3jit29SROperatorFunctor_aten_matmulEEEPKcv
   fun:_Z41__static_initialization_and_destruction_0ii.constprop.0
   fun:call_init.part.0
   fun:call_init
   fun:_dl_init
   obj:/usr/lib/x86_64-linux-gnu/ld-linux-x86-64.so.2
}
{
   <insert_a_suppression_name_here>
   Memcheck:Leak
   match-leak-kinds: reachable
   fun:_Znwm
   fun:_ZN3c1013demangle_typeIN5torch3jit34SROperatorFunctor_quantized_linearEEEPKcv
   fun:_Z41__static_initialization_and_destruction_0ii.constprop.0
   fun:call_init.part.0
   fun:call_init
   fun:_dl_init
   obj:/usr/lib/x86_64-linux-gnu/ld-linux-x86-64.so.2
}
{
   <insert_a_suppression_name_here>
   Memcheck:Leak
   match-leak-kinds: reachable
   fun:_Znwm
   fun:_ZN3c1013demangle_typeIN5torch3jit37SROperatorFunctor_fb_quantized_linearEEEPKcv
   fun:_Z41__static_initialization_and_destruction_0ii.constprop.0
   fun:call_init.part.0
   fun:call_init
   fun:_dl_init
   obj:/usr/lib/x86_64-linux-gnu/ld-linux-x86-64.so.2
}
{
   <insert_a_suppression_name_here>
   Memcheck:Leak
   match-leak-kinds: reachable
   fun:_Znwm
   fun:_ZN3c1013demangle_typeIN5torch3jit47SROperatorFunctor_quantized_linear_dynamic_fp16EEEPKcv
   fun:_Z41__static_initialization_and_destruction_0ii.constprop.0
   fun:call_init.part.0
   fun:call_init
   fun:_dl_init
   obj:/usr/lib/x86_64-linux-gnu/ld-linux-x86-64.so.2
}
{
   <insert_a_suppression_name_here>
   Memcheck:Leak
   match-leak-kinds: reachable
   fun:_Znwm
   fun:_ZN3c1013demangle_typeIN5torch3jit52SROperatorFunctor_quantized_linear_relu_dynamic_fp16EEEPKcv
   fun:_Z41__static_initialization_and_destruction_0ii.constprop.0
   fun:call_init.part.0
   fun:call_init
   fun:_dl_init
   obj:/usr/lib/x86_64-linux-gnu/ld-linux-x86-64.so.2
}
{
   <insert_a_suppression_name_here>
   Memcheck:Leak
   match-leak-kinds: reachable
   fun:_Znwm
   fun:_ZN3c1013demangle_typeIN5torch3jit27SROperatorFunctor_aten_fullEEEPKcv
   fun:_Z41__static_initialization_and_destruction_0ii.constprop.0
   fun:call_init.part.0
   fun:call_init
   fun:_dl_init
   obj:/usr/lib/x86_64-linux-gnu/ld-linux-x86-64.so.2
}
{
   <insert_a_suppression_name_here>
   Memcheck:Leak
   match-leak-kinds: reachable
   fun:_Znwm
   fun:_ZN3c1013demangle_typeIN5torch3jit32SROperatorFunctor_aten_full_likeEEEPKcv
   fun:_Z41__static_initialization_and_destruction_0ii.constprop.0
   fun:call_init.part.0
   fun:call_init
   fun:_dl_init
   obj:/usr/lib/x86_64-linux-gnu/ld-linux-x86-64.so.2
}
{
   <insert_a_suppression_name_here>
   Memcheck:Leak
   match-leak-kinds: reachable
   fun:_Znwm
   fun:_ZN3c1013demangle_typeIN5torch3jit27SROperatorFunctor_aten_onesEEEPKcv
   fun:_Z41__static_initialization_and_destruction_0ii.constprop.0
   fun:call_init.part.0
   fun:call_init
   fun:_dl_init
   obj:/usr/lib/x86_64-linux-gnu/ld-linux-x86-64.so.2
}
{
   <insert_a_suppression_name_here>
   Memcheck:Leak
   match-leak-kinds: reachable
   fun:_Znwm
   fun:_ZN3c1013demangle_typeIN5torch3jit32SROperatorFunctor_aten_ones_likeEEEPKcv
   fun:_Z41__static_initialization_and_destruction_0ii.constprop.0
   fun:call_init.part.0
   fun:call_init
   fun:_dl_init
   obj:/usr/lib/x86_64-linux-gnu/ld-linux-x86-64.so.2
}
{
   <insert_a_suppression_name_here>
   Memcheck:Leak
   match-leak-kinds: reachable
   fun:_Znwm
   fun:_ZN3c1013demangle_typeIN5torch3jit28SROperatorFunctor_aten_zerosEEEPKcv
   fun:_Z41__static_initialization_and_destruction_0ii.constprop.0
   fun:call_init.part.0
   fun:call_init
   fun:_dl_init
   obj:/usr/lib/x86_64-linux-gnu/ld-linux-x86-64.so.2
}
{
   <insert_a_suppression_name_here>
   Memcheck:Leak
   match-leak-kinds: reachable
   fun:_Znwm
   fun:_ZN3c1013demangle_typeIN5torch3jit29SROperatorFunctor_aten_linearEEEPKcv
   fun:_Z41__static_initialization_and_destruction_0ii.constprop.0
   fun:call_init.part.0
   fun:call_init
   fun:_dl_init
   obj:/usr/lib/x86_64-linux-gnu/ld-linux-x86-64.so.2
}
{
   <insert_a_suppression_name_here>
   Memcheck:Leak
   match-leak-kinds: reachable
   fun:_Znwm
   fun:_ZN3c1013demangle_typeIN5torch3jit34SROperatorFunctor_aten_linalg_normEEEPKcv
   fun:_Z41__static_initialization_and_destruction_0ii.constprop.0
   fun:call_init.part.0
   fun:call_init
   fun:_dl_init
   obj:/usr/lib/x86_64-linux-gnu/ld-linux-x86-64.so.2
}
{
   <insert_a_suppression_name_here>
   Memcheck:Leak
   match-leak-kinds: reachable
   fun:_Znwm
   fun:_ZN3c1013demangle_typeIN5torch3jit26SROperatorFunctor_aten_catEEEPKcv
   fun:_Z41__static_initialization_and_destruction_0ii.constprop.0
   fun:call_init.part.0
   fun:call_init
   fun:_dl_init
   obj:/usr/lib/x86_64-linux-gnu/ld-linux-x86-64.so.2
}
{
   <insert_a_suppression_name_here>
   Memcheck:Leak
   match-leak-kinds: reachable
   fun:_Znwm
   fun:_ZN3c1013demangle_typeIN5torch3jit29SROperatorFunctor_aten_cumsumEEEPKcv
   fun:_Z41__static_initialization_and_destruction_0ii.constprop.0
   fun:call_init.part.0
   fun:call_init
   fun:_dl_init
   obj:/usr/lib/x86_64-linux-gnu/ld-linux-x86-64.so.2
}
{
   <insert_a_suppression_name_here>
   Memcheck:Leak
   match-leak-kinds: reachable
   fun:_Znwm
   fun:_ZN3c1013demangle_typeIN5torch3jit30SROperatorFunctor_aten_nonzeroEEEPKcv
   fun:_Z41__static_initialization_and_destruction_0ii.constprop.0
   fun:call_init.part.0
   fun:call_init
   fun:_dl_init
   obj:/usr/lib/x86_64-linux-gnu/ld-linux-x86-64.so.2
}
{
   <insert_a_suppression_name_here>
   Memcheck:Leak
   match-leak-kinds: reachable
   fun:_Znwm
   fun:_ZN3c1013demangle_typeIN5torch3jit32SROperatorFunctor_prim_VarConcatEEEPKcv
   fun:_Z41__static_initialization_and_destruction_0ii.constprop.0
   fun:call_init.part.0
   fun:call_init
   fun:_dl_init
   obj:/usr/lib/x86_64-linux-gnu/ld-linux-x86-64.so.2
}
{
   <insert_a_suppression_name_here>
   Memcheck:Leak
   match-leak-kinds: reachable
   fun:_Znwm
   fun:_ZN3c1013demangle_typeIN5torch3jit45SROperatorFunctor_static_runtime_signed_log1pEEEPKcv
   fun:_Z41__static_initialization_and_destruction_0ii.constprop.0
   fun:call_init.part.0
   fun:call_init
   fun:_dl_init
   obj:/usr/lib/x86_64-linux-gnu/ld-linux-x86-64.so.2
}
{
   <insert_a_suppression_name_here>
   Memcheck:Leak
   match-leak-kinds: reachable
   fun:_Znwm
   fun:_ZN3c1013demangle_typeIN5torch3jit32SROperatorFunctor_aten_remainderEEEPKcv
   fun:_Z41__static_initialization_and_destruction_0ii.constprop.0
   fun:call_init.part.0
   fun:call_init
   fun:_dl_init
   obj:/usr/lib/x86_64-linux-gnu/ld-linux-x86-64.so.2
}
{
   <insert_a_suppression_name_here>
   Memcheck:Leak
   match-leak-kinds: reachable
   fun:_Znwm
   fun:_ZN3c1013demangle_typeIN5torch3jit28SROperatorFunctor_aten_whereEEEPKcv
   fun:_Z41__static_initialization_and_destruction_0ii.constprop.0
   fun:call_init.part.0
   fun:call_init
   fun:_dl_init
   obj:/usr/lib/x86_64-linux-gnu/ld-linux-x86-64.so.2
}
{
   <insert_a_suppression_name_here>
   Memcheck:Leak
   match-leak-kinds: reachable
   fun:_Znwm
   fun:_ZN3c1013demangle_typeIN5torch3jit34SROperatorFunctor_prim_NumToTensorEEEPKcv
   fun:_Z41__static_initialization_and_destruction_0ii.constprop.0
   fun:call_init.part.0
   fun:call_init
   fun:_dl_init
   obj:/usr/lib/x86_64-linux-gnu/ld-linux-x86-64.so.2
}
{
   <insert_a_suppression_name_here>
   Memcheck:Leak
   match-leak-kinds: reachable
   fun:_Znwm
   fun:_ZN3c1013demangle_typeIN5torch3jit53SROperatorFunctor_quantized_embedding_bag_byte_unpackEEEPKcv
   fun:_Z41__static_initialization_and_destruction_0ii.constprop.0
   fun:call_init.part.0
   fun:call_init
   fun:_dl_init
   obj:/usr/lib/x86_64-linux-gnu/ld-linux-x86-64.so.2
}
{
   <insert_a_suppression_name_here>
   Memcheck:Leak
   match-leak-kinds: reachable
   fun:_Znwm
   fun:_GLOBAL__sub_I_tensor_impl.cpp
   fun:call_init.part.0
   fun:call_init
   fun:_dl_init
   obj:/usr/lib/x86_64-linux-gnu/ld-linux-x86-64.so.2
}
{
   <insert_a_suppression_name_here>
   Memcheck:Leak
   match-leak-kinds: reachable
   fun:_Znwm
   fun:_GLOBAL__sub_I_reducer.cpp
   fun:call_init.part.0
   fun:call_init
   fun:_dl_init
   obj:/usr/lib/x86_64-linux-gnu/ld-linux-x86-64.so.2
}
{
   <insert_a_suppression_name_here>
   Memcheck:Leak
   match-leak-kinds: reachable
   fun:_Znwm
   fun:_GLOBAL__sub_I_tensorpipe_utils.cpp
   fun:call_init.part.0
   fun:call_init
   fun:_dl_init
   obj:/usr/lib/x86_64-linux-gnu/ld-linux-x86-64.so.2
}
{
   <insert_a_suppression_name_here>
   Memcheck:Leak
   match-leak-kinds: reachable
   fun:_Znwm
   fun:_ZN4llvm14object_creatorISsE4callEv
   fun:_ZNK4llvm17ManagedStaticBase21RegisterManagedStaticEPFPvvEPFvS1_E
   fun:_ZL31getLibSupportInfoOutputFilenamev
   fun:_GLOBAL__sub_I_Timer.cpp
   fun:call_init.part.0
   fun:call_init
   fun:_dl_init
   obj:/usr/lib/x86_64-linux-gnu/ld-linux-x86-64.so.2
}
{
   <insert_a_suppression_name_here>
   Memcheck:Leak
   match-leak-kinds: reachable
   fun:_Znwm
   fun:_ZN2at6detail12getCUDAHooksEv
   fun:_ZN2atL11manual_seedEm
   fun:_Z11unary_setupv
   fun:srunner_run_setup
   fun:tcase_run_tfun_nofork
   fun:srunner_run_tagged
   fun:main
}
{
   <insert_a_suppression_name_here>
   Memcheck:Leak
   match-leak-kinds: reachable
   fun:malloc
   fun:malloc
   fun:decompose_rpath
   fun:cache_rpath
   fun:cache_rpath
   fun:_dl_map_object
   fun:dl_open_worker_begin
   fun:_dl_catch_exception
   fun:dl_open_worker
   fun:_dl_catch_exception
   fun:_dl_open
   fun:dlopen_doit
   fun:_dl_catch_exception
   fun:_dl_catch_error
   fun:_dlerror_run
}
{
   <insert_a_suppression_name_here>
   Memcheck:Leak
   match-leak-kinds: reachable
   fun:_Znwm
   fun:_ZN3c107IntType3getEv
   fun:_ZN3c1014getTypePtrCopyINS_8ArrayRefIlEEEENS_4Type24SingletonOrSharedTypePtrIS3_EEv
   fun:_ZN3c106detail12infer_schema12_GLOBAL__N_120createArgumentVectorENS_8ArrayRefINS1_11ArgumentDefEEE
   fun:_ZN3c106detail12infer_schema20make_function_schemaEOSsS2_NS_8ArrayRefINS1_11ArgumentDefEEES5_
   fun:_ZN3c106detail12infer_schema20make_function_schemaENS_8ArrayRefINS1_11ArgumentDefEEES4_
   fun:_ZN3c106detail30inferFunctionSchemaFromFunctorIFRKN2at6TensorENS_14DispatchKeySetES5_NS_8ArrayRefIlEENS_8optionalINS_12MemoryFormatEEEEEESt10unique_ptrINS_14FunctionSchemaESt14default_deleteISE_EEv
   fun:_ZL44TORCH_LIBRARY_IMPL_init_aten_Functionalize_3RN5torch7LibraryE
   fun:_ZN5torch6detail16TorchLibraryInitC1ENS_7Library4KindEPFvRS2_EPKcN3c108optionalINS9_11DispatchKeyEEES8_j
   fun:_GLOBAL__sub_I_FunctionalizeFallbackKernel.cpp
   fun:call_init.part.0
   fun:call_init
   fun:_dl_init
}
{
   <insert_a_suppression_name_here>
   Memcheck:Leak
   match-leak-kinds: reachable
   fun:_Znwm
   fun:_ZN3c1016MemoryFormatType3getEv
   fun:_ZN3c1014getTypePtrCopyINS_8optionalINS_12MemoryFormatEEEEENS_4Type24SingletonOrSharedTypePtrIS4_EEv
   fun:_ZN3c106detail12infer_schema12_GLOBAL__N_120createArgumentVectorENS_8ArrayRefINS1_11ArgumentDefEEE
   fun:_ZN3c106detail12infer_schema20make_function_schemaEOSsS2_NS_8ArrayRefINS1_11ArgumentDefEEES5_
   fun:_ZN3c106detail12infer_schema20make_function_schemaENS_8ArrayRefINS1_11ArgumentDefEEES4_
   fun:_ZN3c106detail30inferFunctionSchemaFromFunctorIFRKN2at6TensorENS_14DispatchKeySetES5_NS_8ArrayRefIlEENS_8optionalINS_12MemoryFormatEEEEEESt10unique_ptrINS_14FunctionSchemaESt14default_deleteISE_EEv
   fun:_ZL44TORCH_LIBRARY_IMPL_init_aten_Functionalize_3RN5torch7LibraryE
   fun:_ZN5torch6detail16TorchLibraryInitC1ENS_7Library4KindEPFvRS2_EPKcN3c108optionalINS9_11DispatchKeyEEES8_j
   fun:_GLOBAL__sub_I_FunctionalizeFallbackKernel.cpp
   fun:call_init.part.0
   fun:call_init
   fun:_dl_init
}
{
   <insert_a_suppression_name_here>
   Memcheck:Leak
   match-leak-kinds: reachable
   fun:_Znwm
   fun:_ZN3c108NoneType3getEv
   fun:_ZN3c1012OptionalTypeC1ENS_4Type24SingletonOrSharedTypePtrIS1_EE
   fun:_ZN3c1012OptionalType6createENS_4Type24SingletonOrSharedTypePtrIS1_EE
   fun:_ZN3c1012OptionalType3getENS_4Type24SingletonOrSharedTypePtrIS1_EE
   fun:_ZN3c1014getTypePtrCopyINS_8optionalINS_12MemoryFormatEEEEENS_4Type24SingletonOrSharedTypePtrIS4_EEv
   fun:_ZN3c106detail12infer_schema12_GLOBAL__N_120createArgumentVectorENS_8ArrayRefINS1_11ArgumentDefEEE
   fun:_ZN3c106detail12infer_schema20make_function_schemaEOSsS2_NS_8ArrayRefINS1_11ArgumentDefEEES5_
   fun:_ZN3c106detail12infer_schema20make_function_schemaENS_8ArrayRefINS1_11ArgumentDefEEES4_
   fun:_ZN3c106detail30inferFunctionSchemaFromFunctorIFRKN2at6TensorENS_14DispatchKeySetES5_NS_8ArrayRefIlEENS_8optionalINS_12MemoryFormatEEEEEESt10unique_ptrINS_14FunctionSchemaESt14default_deleteISE_EEv
   fun:_ZL44TORCH_LIBRARY_IMPL_init_aten_Functionalize_3RN5torch7LibraryE
   fun:_ZN5torch6detail16TorchLibraryInitC1ENS_7Library4KindEPFvRS2_EPKcN3c108optionalINS9_11DispatchKeyEEES8_j
}
{
   <insert_a_suppression_name_here>
   Memcheck:Leak
   match-leak-kinds: reachable
   fun:_Znwm
   fun:_ZN3c1014ScalarTypeType3getEv
   fun:_ZN3c1014getTypePtrCopyINS_8optionalINS_10ScalarTypeEEEEENS_4Type24SingletonOrSharedTypePtrIS4_EEv
   fun:_ZN3c106detail12infer_schema12_GLOBAL__N_120createArgumentVectorENS_8ArrayRefINS1_11ArgumentDefEEE
   fun:_ZN3c106detail12infer_schema20make_function_schemaEOSsS2_NS_8ArrayRefINS1_11ArgumentDefEEES5_
   fun:_ZN3c106detail12infer_schema20make_function_schemaENS_8ArrayRefINS1_11ArgumentDefEEES4_
   fun:_ZL44TORCH_LIBRARY_IMPL_init_aten_Functionalize_3RN5torch7LibraryE
   fun:_ZN5torch6detail16TorchLibraryInitC1ENS_7Library4KindEPFvRS2_EPKcN3c108optionalINS9_11DispatchKeyEEES8_j
   fun:_GLOBAL__sub_I_FunctionalizeFallbackKernel.cpp
   fun:call_init.part.0
   fun:call_init
   fun:_dl_init
   obj:/usr/lib/x86_64-linux-gnu/ld-linux-x86-64.so.2
}
{
   <insert_a_suppression_name_here>
   Memcheck:Leak
   match-leak-kinds: reachable
   fun:_Znwm
   fun:_ZN3c1010LayoutType3getEv
   fun:_ZN3c1014getTypePtrCopyINS_8optionalINS_6LayoutEEEEENS_4Type24SingletonOrSharedTypePtrIS4_EEv
   fun:_ZN3c106detail12infer_schema12_GLOBAL__N_120createArgumentVectorENS_8ArrayRefINS1_11ArgumentDefEEE
   fun:_ZN3c106detail12infer_schema20make_function_schemaEOSsS2_NS_8ArrayRefINS1_11ArgumentDefEEES5_
   fun:_ZN3c106detail12infer_schema20make_function_schemaENS_8ArrayRefINS1_11ArgumentDefEEES4_
   fun:_ZL44TORCH_LIBRARY_IMPL_init_aten_Functionalize_3RN5torch7LibraryE
   fun:_ZN5torch6detail16TorchLibraryInitC1ENS_7Library4KindEPFvRS2_EPKcN3c108optionalINS9_11DispatchKeyEEES8_j
   fun:_GLOBAL__sub_I_FunctionalizeFallbackKernel.cpp
   fun:call_init.part.0
   fun:call_init
   fun:_dl_init
   obj:/usr/lib/x86_64-linux-gnu/ld-linux-x86-64.so.2
}
{
   <insert_a_suppression_name_here>
   Memcheck:Leak
   match-leak-kinds: reachable
   fun:_Znwm
   fun:_ZN3c1013DeviceObjType3getEv
   fun:_ZN3c1014getTypePtrCopyINS_8optionalINS_6DeviceEEEEENS_4Type24SingletonOrSharedTypePtrIS4_EEv
   fun:_ZN3c106detail12infer_schema12_GLOBAL__N_120createArgumentVectorENS_8ArrayRefINS1_11ArgumentDefEEE
   fun:_ZN3c106detail12infer_schema20make_function_schemaEOSsS2_NS_8ArrayRefINS1_11ArgumentDefEEES5_
   fun:_ZN3c106detail12infer_schema20make_function_schemaENS_8ArrayRefINS1_11ArgumentDefEEES4_
   fun:_ZL44TORCH_LIBRARY_IMPL_init_aten_Functionalize_3RN5torch7LibraryE
   fun:_ZN5torch6detail16TorchLibraryInitC1ENS_7Library4KindEPFvRS2_EPKcN3c108optionalINS9_11DispatchKeyEEES8_j
   fun:_GLOBAL__sub_I_FunctionalizeFallbackKernel.cpp
   fun:call_init.part.0
   fun:call_init
   fun:_dl_init
   obj:/usr/lib/x86_64-linux-gnu/ld-linux-x86-64.so.2
}
{
   <insert_a_suppression_name_here>
   Memcheck:Leak
   match-leak-kinds: reachable
   fun:_Znwm
   fun:_ZN3c108BoolType3getEv
   fun:_ZN3c1014getTypePtrCopyINS_8optionalIbEEEENS_4Type24SingletonOrSharedTypePtrIS3_EEv
   fun:_ZN3c106detail12infer_schema12_GLOBAL__N_120createArgumentVectorENS_8ArrayRefINS1_11ArgumentDefEEE
   fun:_ZN3c106detail12infer_schema20make_function_schemaEOSsS2_NS_8ArrayRefINS1_11ArgumentDefEEES5_
   fun:_ZN3c106detail12infer_schema20make_function_schemaENS_8ArrayRefINS1_11ArgumentDefEEES4_
   fun:_ZL44TORCH_LIBRARY_IMPL_init_aten_Functionalize_3RN5torch7LibraryE
   fun:_ZN5torch6detail16TorchLibraryInitC1ENS_7Library4KindEPFvRS2_EPKcN3c108optionalINS9_11DispatchKeyEEES8_j
   fun:_GLOBAL__sub_I_FunctionalizeFallbackKernel.cpp
   fun:call_init.part.0
   fun:call_init
   fun:_dl_init
   obj:/usr/lib/x86_64-linux-gnu/ld-linux-x86-64.so.2
}
{
   <insert_a_suppression_name_here>
   Memcheck:Leak
   match-leak-kinds: reachable
   fun:_Znwm
   fun:_ZN3c1010SymIntType3getEv
   fun:_ZN3c1014getTypePtrCopyINS_8ArrayRefINS_6SymIntEEEEENS_4Type24SingletonOrSharedTypePtrIS4_EEv
   fun:_ZN3c106detail12infer_schema12_GLOBAL__N_120createArgumentVectorENS_8ArrayRefINS1_11ArgumentDefEEE
   fun:_ZN3c106detail12infer_schema20make_function_schemaEOSsS2_NS_8ArrayRefINS1_11ArgumentDefEEES5_
   fun:_ZN3c106detail12infer_schema20make_function_schemaENS_8ArrayRefINS1_11ArgumentDefEEES4_
   fun:_ZN3c106detail30inferFunctionSchemaFromFunctorIFN2at6TensorERKS3_NS_8ArrayRefINS_6SymIntEEEEEESt10unique_ptrINS_14FunctionSchemaESt14default_deleteISB_EEv
   fun:_ZL44TORCH_LIBRARY_IMPL_init_aten_Functionalize_3RN5torch7LibraryE
   fun:_ZN5torch6detail16TorchLibraryInitC1ENS_7Library4KindEPFvRS2_EPKcN3c108optionalINS9_11DispatchKeyEEES8_j
   fun:_GLOBAL__sub_I_FunctionalizeFallbackKernel.cpp
   fun:call_init.part.0
   fun:call_init
   fun:_dl_init
}
{
   <insert_a_suppression_name_here>
   Memcheck:Leak
   match-leak-kinds: reachable
   fun:_Znwm
   fun:_ZN3c1010NumberType3getEv
   fun:_ZN3c1014getTypePtrCopyINS_6ScalarEEENS_4Type24SingletonOrSharedTypePtrIS2_EEv
   fun:_ZN3c106detail12infer_schema12_GLOBAL__N_120createArgumentVectorENS_8ArrayRefINS1_11ArgumentDefEEE
   fun:_ZN3c106detail12infer_schema20make_function_schemaEOSsS2_NS_8ArrayRefINS1_11ArgumentDefEEES5_
   fun:_ZN3c106detail12infer_schema20make_function_schemaENS_8ArrayRefINS1_11ArgumentDefEEES4_
   fun:_ZN3c106detail30inferFunctionSchemaFromFunctorIPFRN2at6TensorES4_RKNS_6ScalarEEEESt10unique_ptrINS_14FunctionSchemaESt14default_deleteISB_EEv
   fun:_ZN2atL38TORCH_LIBRARY_IMPL_init_aten_Batched_3ERN5torch7LibraryE
   fun:_ZN5torch6detail16TorchLibraryInitC1ENS_7Library4KindEPFvRS2_EPKcN3c108optionalINS9_11DispatchKeyEEES8_j
   fun:_GLOBAL__sub_I_LegacyBatchingRegistrations.cpp
   fun:call_init.part.0
   fun:call_init
   fun:_dl_init
}
{
   <insert_a_suppression_name_here>
   Memcheck:Leak
   match-leak-kinds: reachable
   fun:_Znwm
   fun:_ZN3c109FloatType3getEv
   fun:_ZN3c1012_GLOBAL__N_112flattenUnionERKNS_4Type24SingletonOrSharedTypePtrIS1_EEPSt6vectorIS3_SaIS3_EE
   fun:_ZN3c1025standardizeVectorForUnionERSt6vectorINS_4Type24SingletonOrSharedTypePtrIS1_EESaIS3_EEPS5_
   fun:_ZN3c109UnionTypeC1ESt6vectorINS_4Type24SingletonOrSharedTypePtrIS2_EESaIS4_EENS_8TypeKindE
   fun:_ZN3c1012OptionalTypeC1ENS_4Type24SingletonOrSharedTypePtrIS1_EE
   fun:_ZN3c1012OptionalType6createENS_4Type24SingletonOrSharedTypePtrIS1_EE
   fun:_ZN3c1012OptionalType3getENS_4Type24SingletonOrSharedTypePtrIS1_EE
   fun:_ZN3c1014getTypePtrCopyINS_8optionalINS_6ScalarEEEEENS_4Type24SingletonOrSharedTypePtrIS4_EEv
   fun:_ZN3c106detail12infer_schema12_GLOBAL__N_120createArgumentVectorENS_8ArrayRefINS1_11ArgumentDefEEE
   fun:_ZN3c106detail12infer_schema20make_function_schemaEOSsS2_NS_8ArrayRefINS1_11ArgumentDefEEES5_
   fun:_ZN3c106detail12infer_schema20make_function_schemaENS_8ArrayRefINS1_11ArgumentDefEEES4_
}
{
   <insert_a_suppression_name_here>
   Memcheck:Leak
   match-leak-kinds: reachable
   fun:_Znwm
   fun:_ZN3c1011ComplexType3getEv
   fun:_ZN3c1012_GLOBAL__N_112flattenUnionERKNS_4Type24SingletonOrSharedTypePtrIS1_EEPSt6vectorIS3_SaIS3_EE
   fun:_ZN3c1025standardizeVectorForUnionERSt6vectorINS_4Type24SingletonOrSharedTypePtrIS1_EESaIS3_EEPS5_
   fun:_ZN3c109UnionTypeC1ESt6vectorINS_4Type24SingletonOrSharedTypePtrIS2_EESaIS4_EENS_8TypeKindE
   fun:_ZN3c1012OptionalTypeC1ENS_4Type24SingletonOrSharedTypePtrIS1_EE
   fun:_ZN3c1012OptionalType6createENS_4Type24SingletonOrSharedTypePtrIS1_EE
   fun:_ZN3c1012OptionalType3getENS_4Type24SingletonOrSharedTypePtrIS1_EE
   fun:_ZN3c1014getTypePtrCopyINS_8optionalINS_6ScalarEEEEENS_4Type24SingletonOrSharedTypePtrIS4_EEv
   fun:_ZN3c106detail12infer_schema12_GLOBAL__N_120createArgumentVectorENS_8ArrayRefINS1_11ArgumentDefEEE
   fun:_ZN3c106detail12infer_schema20make_function_schemaEOSsS2_NS_8ArrayRefINS1_11ArgumentDefEEES5_
   fun:_ZN3c106detail12infer_schema20make_function_schemaENS_8ArrayRefINS1_11ArgumentDefEEES4_
}
{
   <insert_a_suppression_name_here>
   Memcheck:Leak
   match-leak-kinds: reachable
   fun:_Znwm
   fun:_ZN3c1010StringType3getEv
   fun:_ZN3c1014getTypePtrCopyINS_8optionalINS_17basic_string_viewIcEEEEEENS_4Type24SingletonOrSharedTypePtrIS5_EEv
   fun:_ZN3c106detail12infer_schema12_GLOBAL__N_120createArgumentVectorENS_8ArrayRefINS1_11ArgumentDefEEE
   fun:_ZN3c106detail12infer_schema20make_function_schemaEOSsS2_NS_8ArrayRefINS1_11ArgumentDefEEES5_
   fun:_ZN3c106detail12infer_schema20make_function_schemaENS_8ArrayRefINS1_11ArgumentDefEEES4_
   fun:_ZN3c106detail30inferFunctionSchemaFromFunctorIPFN2at6TensorERKS3_S5_NS_8optionalINS_17basic_string_viewIcEEEEEEESt10unique_ptrINS_14FunctionSchemaESt14default_deleteISD_EEv
   fun:_ZN2atL38TORCH_LIBRARY_IMPL_init_aten_Batched_3ERN5torch7LibraryE
   fun:_ZN5torch6detail16TorchLibraryInitC1ENS_7Library4KindEPFvRS2_EPKcN3c108optionalINS9_11DispatchKeyEEES8_j
   fun:_GLOBAL__sub_I_LegacyBatchingRegistrations.cpp
   fun:call_init.part.0
   fun:call_init
   fun:_dl_init
}
{
   <insert_a_suppression_name_here>
   Memcheck:Leak
   match-leak-kinds: reachable
   fun:_Znwm
   fun:_ZN3c1013GeneratorType3getEv
   fun:_ZN3c1014getTypePtrCopyINS_8optionalIN2at9GeneratorEEEEENS_4Type24SingletonOrSharedTypePtrIS5_EEv
   fun:_ZN3c106detail12infer_schema12_GLOBAL__N_120createArgumentVectorENS_8ArrayRefINS1_11ArgumentDefEEE
   fun:_ZN3c106detail12infer_schema20make_function_schemaEOSsS2_NS_8ArrayRefINS1_11ArgumentDefEEES5_
   fun:_ZN3c106detail12infer_schema20make_function_schemaENS_8ArrayRefINS1_11ArgumentDefEEES4_
   fun:_ZN3c106detail30inferFunctionSchemaFromFunctorIPFN2at6TensorERKS3_NS_8optionalINS2_9GeneratorEEEEEESt10unique_ptrINS_14FunctionSchemaESt14default_deleteISC_EEv
   fun:_ZN2atL39TORCH_LIBRARY_IMPL_init_aten_VmapMode_2ERN5torch7LibraryE
   fun:_ZN5torch6detail16TorchLibraryInitC1ENS_7Library4KindEPFvRS2_EPKcN3c108optionalINS9_11DispatchKeyEEES8_j
   fun:_GLOBAL__sub_I_VmapModeRegistrations.cpp
   fun:call_init.part.0
   fun:call_init
   fun:_dl_init
}
{
   <insert_a_suppression_name_here>
   Memcheck:Leak
   match-leak-kinds: reachable
   fun:_Znwm
   fun:_ZN3c1011CapsuleType3getEv
   fun:_ZN5torch6detail10class_baseC1ERKSsS3_SsRKSt9type_infoS6_
   fun:_Z22register_linear_paramsv
   fun:_GLOBAL__sub_I_RNN.cpp
   fun:call_init.part.0
   fun:call_init
   fun:_dl_init
   obj:/usr/lib/x86_64-linux-gnu/ld-linux-x86-64.so.2
}
{
   <insert_a_suppression_name_here>
   Memcheck:Leak
   match-leak-kinds: reachable
   fun:_Znwm
   fun:_ZN3c1011StorageType3getEv
   fun:_ZN5torch3jit16SchemaTypeParser13parseBaseTypeEv
   fun:_ZN5torch3jit16SchemaTypeParser20parseFakeAndRealTypeEv
   fun:_ZN5torch3jit12_GLOBAL__N_112SchemaParser13parseArgumentEmbb.constprop.0
   fun:_ZN5torch3jit17parseSchemaOrNameERKSs
   fun:_ZN5torch3jit11parseSchemaERKSs
   fun:_ZNR5torch7Library3defENS_6detail12SelectiveStrILb1EEE
   fun:_ZN2at6native12_GLOBAL__N_1L34TORCH_LIBRARY_FRAGMENT_init_aten_6ERN5torch7LibraryE
   fun:_ZN5torch6detail16TorchLibraryInitC1ENS_7Library4KindEPFvRS2_EPKcN3c108optionalINS9_11DispatchKeyEEES8_j
   fun:_GLOBAL__sub_I_RNN.cpp
   fun:call_init.part.0
}
{
   <insert_a_suppression_name_here>
   Memcheck:Leak
   match-leak-kinds: reachable
   fun:_Znwm
   fun:_ZN3c1011QSchemeType3getEv
   fun:_ZN5torch3jit16SchemaTypeParser13parseBaseTypeEv
   fun:_ZN5torch3jit16SchemaTypeParser20parseFakeAndRealTypeEv
   fun:_ZN5torch3jit12_GLOBAL__N_112SchemaParser13parseArgumentEmbb.constprop.0
   fun:_ZN5torch3jit17parseSchemaOrNameERKSs
   fun:_ZN5torch3jit11parseSchemaERKSs
   fun:_ZNR5torch7Library3defENS_6detail12SelectiveStrILb1EEE
   fun:_ZN2at6native12_GLOBAL__N_1L34TORCH_LIBRARY_FRAGMENT_init_aten_6ERN5torch7LibraryE
   fun:_ZN5torch6detail16TorchLibraryInitC1ENS_7Library4KindEPFvRS2_EPKcN3c108optionalINS9_11DispatchKeyEEES8_j
   fun:_GLOBAL__sub_I_RNN.cpp
   fun:call_init.part.0
}
{
   <insert_a_suppression_name_here>
   Memcheck:Leak
   match-leak-kinds: reachable
   fun:_Znwm
   fun:_ZN3c1013QuantizerType3getEv
   fun:_ZN5torch3jit16SchemaTypeParser13parseBaseTypeEv
   fun:_ZN5torch3jit16SchemaTypeParser20parseFakeAndRealTypeEv
   fun:_ZN5torch3jit12_GLOBAL__N_112SchemaParser13parseArgumentEmbb.constprop.0
   fun:_ZN5torch3jit17parseSchemaOrNameERKSs
   fun:_ZN5torch3jit11parseSchemaERKSs
   fun:_ZNR5torch7Library3defENS_6detail12SelectiveStrILb1EEE
   fun:_ZN2at6native12_GLOBAL__N_1L34TORCH_LIBRARY_FRAGMENT_init_aten_6ERN5torch7LibraryE
   fun:_ZN5torch6detail16TorchLibraryInitC1ENS_7Library4KindEPFvRS2_EPKcN3c108optionalINS9_11DispatchKeyEEES8_j
   fun:_GLOBAL__sub_I_RNN.cpp
   fun:call_init.part.0
}
{
   <insert_a_suppression_name_here>
   Memcheck:Leak
   match-leak-kinds: reachable
   fun:_Znwm
   fun:_ZN3c1013StreamObjType3getEv
   fun:_ZN5torch3jit16SchemaTypeParser13parseBaseTypeEv
   fun:_ZN5torch3jit16SchemaTypeParser20parseFakeAndRealTypeEv
   fun:_ZN5torch3jit12_GLOBAL__N_112SchemaParser13parseArgumentEmbb.constprop.0
   fun:_ZN5torch3jit17parseSchemaOrNameERKSs
   fun:_ZN5torch3jit11parseSchemaERKSs
   fun:_ZNR5torch7Library3defENS_6detail12SelectiveStrILb1EEE
   fun:_ZN2at6native12_GLOBAL__N_1L34TORCH_LIBRARY_FRAGMENT_init_aten_6ERN5torch7LibraryE
   fun:_ZN5torch6detail16TorchLibraryInitC1ENS_7Library4KindEPFvRS2_EPKcN3c108optionalINS9_11DispatchKeyEEES8_j
   fun:_GLOBAL__sub_I_RNN.cpp
   fun:call_init.part.0
}
{
   <insert_a_suppression_name_here>
   Memcheck:Leak
   match-leak-kinds: reachable
   fun:_Znwm
   fun:_ZN3c107AnyType3getEv
   fun:_ZN5torch3jit16SchemaTypeParser13parseBaseTypeEv
   fun:_ZN5torch3jit16SchemaTypeParser20parseFakeAndRealTypeEv
   fun:_ZN5torch3jit12_GLOBAL__N_112SchemaParser13parseArgumentEmbb.constprop.0
   fun:_ZN5torch3jit17parseSchemaOrNameERKSs
   fun:_ZN5torch3jit11parseSchemaERKSs
   fun:_ZNR5torch7Library3defENS_6detail12SelectiveStrILb1EEE
   fun:_ZN2at6native12_GLOBAL__N_1L34TORCH_LIBRARY_FRAGMENT_init_aten_6ERN5torch7LibraryE
   fun:_ZN5torch6detail16TorchLibraryInitC1ENS_7Library4KindEPFvRS2_EPKcN3c108optionalINS9_11DispatchKeyEEES8_j
   fun:_GLOBAL__sub_I_RNN.cpp
   fun:call_init.part.0
}
{
   <insert_a_suppression_name_here>
   Memcheck:Leak
   match-leak-kinds: reachable
   fun:_Znwm
   fun:_ZN3c1012AnyClassType3getEv
   fun:_ZN5torch3jit16SchemaTypeParser13parseBaseTypeEv
   fun:_ZN5torch3jit16SchemaTypeParser20parseFakeAndRealTypeEv
   fun:_ZN5torch3jit12_GLOBAL__N_112SchemaParser13parseArgumentEmbb.constprop.0
   fun:_ZN5torch3jit17parseSchemaOrNameERKSs
   fun:_ZN5torch3jit11parseSchemaERKSs
   fun:_ZNR5torch7Library3defENS_6detail12SelectiveStrILb1EEE
   fun:_ZN2at6native12_GLOBAL__N_1L34TORCH_LIBRARY_FRAGMENT_init_aten_6ERN5torch7LibraryE
   fun:_ZN5torch6detail16TorchLibraryInitC1ENS_7Library4KindEPFvRS2_EPKcN3c108optionalINS9_11DispatchKeyEEES8_j
   fun:_GLOBAL__sub_I_RNN.cpp
   fun:call_init.part.0
}
{
   <insert_a_suppression_name_here>
   Memcheck:Leak
   match-leak-kinds: reachable
   fun:_Znwm
   fun:_ZN3c1011AnyEnumType3getEv
   fun:_ZN5torch3jit16SchemaTypeParser13parseBaseTypeEv
   fun:_ZN5torch3jit16SchemaTypeParser20parseFakeAndRealTypeEv
   fun:_ZN5torch3jit12_GLOBAL__N_112SchemaParser13parseArgumentEmbb.constprop.0
   fun:_ZN5torch3jit17parseSchemaOrNameERKSs
   fun:_ZN5torch3jit11parseSchemaERKSs
   fun:_ZNR5torch7Library3defENS_6detail12SelectiveStrILb1EEE
   fun:_ZN2at6native12_GLOBAL__N_1L34TORCH_LIBRARY_FRAGMENT_init_aten_6ERN5torch7LibraryE
   fun:_ZN5torch6detail16TorchLibraryInitC1ENS_7Library4KindEPFvRS2_EPKcN3c108optionalINS9_11DispatchKeyEEES8_j
   fun:_GLOBAL__sub_I_RNN.cpp
   fun:call_init.part.0
}
{
   <insert_a_suppression_name_here>
   Memcheck:Leak
   match-leak-kinds: reachable
   fun:_Znwm
   fun:_ZL15initializeMutexv
   fun:__pthread_once_slow
   fun:_ZSt9call_onceIRFvvEIEEvRSt9once_flagOT_DpOT0_
   fun:_ZNK4llvm17ManagedStaticBase21RegisterManagedStaticEPFPvvEPFvS1_E
   fun:_ZN4llvm13ManagedStaticIN12_GLOBAL__N_117CommandLineParserENS_14object_creatorIS2_EENS_14object_deleterIS2_EEEdeEv.constprop.395
   fun:_ZN4llvm2cl6Option11addArgumentEv
   fun:_GLOBAL__sub_I_Debug.cpp
   fun:call_init.part.0
   fun:call_init
   fun:_dl_init
   obj:/usr/lib/x86_64-linux-gnu/ld-linux-x86-64.so.2
}
{
   <insert_a_suppression_name_here>
   Memcheck:Leak
   match-leak-kinds: reachable
   fun:_Znwm
   fun:_ZN4llvm12PassRegistry23addRegistrationListenerEPNS_24PassRegistrationListenerE
   fun:_Z41__static_initialization_and_destruction_0ii.constprop.403
   fun:call_init.part.0
   fun:call_init
   fun:_dl_init
   obj:/usr/lib/x86_64-linux-gnu/ld-linux-x86-64.so.2
}
{
   <insert_a_suppression_name_here>
   Memcheck:Leak
   match-leak-kinds: reachable
   fun:malloc
   fun:_ZN4llvm11safe_mallocEm
   fun:_ZN4llvm9StringMapIPNS_2cl6OptionENS_15MallocAllocatorEE11try_emplaceIIS3_EEESt4pairINS_17StringMapIteratorIS3_EEbENS_9StringRefEDpOT_
   fun:_ZN12_GLOBAL__N_117CommandLineParser9addOptionEPN4llvm2cl6OptionEPNS2_10SubCommandE.constprop.393
   fun:_ZN12_GLOBAL__N_117CommandLineParser9addOptionEPN4llvm2cl6OptionEb
   fun:_ZN4llvm2cl6Option11addArgumentEv
   fun:_Z41__static_initialization_and_destruction_0ii.constprop.325
   fun:call_init.part.0
   fun:call_init
   fun:_dl_init
   obj:/usr/lib/x86_64-linux-gnu/ld-linux-x86-64.so.2
}
{
   <insert_a_suppression_name_here>
   Memcheck:Leak
   match-leak-kinds: reachable
   fun:malloc
   fun:_ZN4llvm11safe_mallocEm
   fun:_ZN4llvm9StringMapIPNS_2cl6OptionENS_15MallocAllocatorEE11try_emplaceIIS3_EEESt4pairINS_17StringMapIteratorIS3_EEbENS_9StringRefEDpOT_
   fun:_ZN12_GLOBAL__N_117CommandLineParser9addOptionEPN4llvm2cl6OptionEPNS2_10SubCommandE.constprop.393
   fun:_ZN12_GLOBAL__N_117CommandLineParser9addOptionEPN4llvm2cl6OptionEPNS2_10SubCommandE.constprop.393
   fun:_ZN12_GLOBAL__N_117CommandLineParser9addOptionEPN4llvm2cl6OptionEb
   fun:_ZN4llvm2cl6Option11addArgumentEv
   fun:_Z41__static_initialization_and_destruction_0ii.constprop.325
   fun:call_init.part.0
   fun:call_init
   fun:_dl_init
   obj:/usr/lib/x86_64-linux-gnu/ld-linux-x86-64.so.2
}
{
   <insert_a_suppression_name_here>
   Memcheck:Leak
   match-leak-kinds: reachable
   fun:malloc
   fun:_ZN4llvm11safe_mallocEm
   fun:_ZN4llvm9StringMapIPNS_2cl6OptionENS_15MallocAllocatorEE11try_emplaceIIS3_EEESt4pairINS_17StringMapIteratorIS3_EEbENS_9StringRefEDpOT_
   fun:_ZN12_GLOBAL__N_117CommandLineParser9addOptionEPN4llvm2cl6OptionEPNS2_10SubCommandE.constprop.393
   fun:_ZN12_GLOBAL__N_117CommandLineParser9addOptionEPN4llvm2cl6OptionEb
   fun:_ZN4llvm2cl6Option11addArgumentEv
   fun:_GLOBAL__sub_I_SizeOpts.cpp
   fun:call_init.part.0
   fun:call_init
   fun:_dl_init
   obj:/usr/lib/x86_64-linux-gnu/ld-linux-x86-64.so.2
}
{
   <insert_a_suppression_name_here>
   Memcheck:Leak
   match-leak-kinds: reachable
   fun:malloc
   fun:_ZN4llvm11safe_mallocEm
   fun:_ZN4llvm9StringMapIPNS_2cl6OptionENS_15MallocAllocatorEE11try_emplaceIIS3_EEESt4pairINS_17StringMapIteratorIS3_EEbENS_9StringRefEDpOT_
   fun:_ZN12_GLOBAL__N_117CommandLineParser9addOptionEPN4llvm2cl6OptionEPNS2_10SubCommandE.constprop.393
   fun:_ZN12_GLOBAL__N_117CommandLineParser9addOptionEPN4llvm2cl6OptionEb
   fun:_ZN4llvm2cl6Option11addArgumentEv
   fun:_GLOBAL__sub_I_Debug.cpp
   fun:call_init.part.0
   fun:call_init
   fun:_dl_init
   obj:/usr/lib/x86_64-linux-gnu/ld-linux-x86-64.so.2
}
{
   <insert_a_suppression_name_here>
   Memcheck:Leak
   match-leak-kinds: reachable
   fun:malloc
   fun:_ZN4llvm11safe_mallocEm
   fun:_ZN4llvm9StringMapIPNS_2cl6OptionENS_15MallocAllocatorEE11try_emplaceIIS3_EEESt4pairINS_17StringMapIteratorIS3_EEbENS_9StringRefEDpOT_
   fun:_ZN12_GLOBAL__N_117CommandLineParser9addOptionEPN4llvm2cl6OptionEPNS2_10SubCommandE.constprop.393
   fun:_ZN12_GLOBAL__N_117CommandLineParser9addOptionEPN4llvm2cl6OptionEb
   fun:_ZN4llvm2cl6Option11addArgumentEv
   fun:_GLOBAL__sub_I_Statistic.cpp
   fun:call_init.part.0
   fun:call_init
   fun:_dl_init
   obj:/usr/lib/x86_64-linux-gnu/ld-linux-x86-64.so.2
}
{
   <insert_a_suppression_name_here>
   Memcheck:Leak
   match-leak-kinds: reachable
   fun:malloc
   fun:_ZN4llvm11safe_mallocEm
   fun:_ZN4llvm9StringMapIPNS_2cl6OptionENS_15MallocAllocatorEE11try_emplaceIIS3_EEESt4pairINS_17StringMapIteratorIS3_EEbENS_9StringRefEDpOT_
   fun:_ZN12_GLOBAL__N_117CommandLineParser9addOptionEPN4llvm2cl6OptionEPNS2_10SubCommandE.constprop.393
   fun:_ZN12_GLOBAL__N_117CommandLineParser9addOptionEPN4llvm2cl6OptionEb
   fun:_ZN4llvm2cl6Option11addArgumentEv
   fun:_ZN4llvm2cl3optINS0_13boolOrDefaultELb0ENS0_6parserIS2_EEEC1IIA6_cNS0_3catENS0_4descENS0_11initializerIS2_EEEEEDpRKT_
   fun:_GLOBAL__sub_I_WithColor.cpp
   fun:call_init.part.0
   fun:call_init
   fun:_dl_init
   obj:/usr/lib/x86_64-linux-gnu/ld-linux-x86-64.so.2
}
{
   <insert_a_suppression_name_here>
   Memcheck:Leak
   match-leak-kinds: reachable
   fun:_Znwm
   fun:_ZNSt8__detail9_Map_baseIN3c1010DeviceTypeESt4pairIKS2_NS1_16RegistryPriorityEESaIS6_ENS_10_Select1stESt8equal_toIS2_ESt4hashIS2_ENS_18_Mod_range_hashingENS_20_Default_ranged_hashENS_20_Prime_rehash_policyENS_17_Hashtable_traitsILb1ELb0ELb1EEELb1EEixERS4_
   fun:_ZN3c108RegistryINS_10DeviceTypeESt10unique_ptrIN4c10d5TimerESt14default_deleteIS4_EEJNS_6DeviceEEE8RegisterERKS1_St8functionIFS7_S8_EENS_16RegistryPriorityE
   fun:_ZN3c1010RegistererINS_10DeviceTypeESt10unique_ptrIN4c10d5TimerESt14default_deleteIS4_EEJNS_6DeviceEEEC1ERKS1_PNS_8RegistryIS1_S7_JS8_EEESt8functionIFS7_S8_EERKSs
   fun:_GLOBAL__sub_I_reducer.cpp
   fun:call_init.part.0
   fun:call_init
   fun:_dl_init
   obj:/usr/lib/x86_64-linux-gnu/ld-linux-x86-64.so.2
}
{
   <insert_a_suppression_name_here>
   Memcheck:Leak
   match-leak-kinds: reachable
   fun:malloc
   fun:_ZN4llvm11safe_mallocEm
   fun:_ZN4llvm9StringMapIPNS_2cl6OptionENS_15MallocAllocatorEE11try_emplaceIIS3_EEESt4pairINS_17StringMapIteratorIS3_EEbENS_9StringRefEDpOT_
   fun:_ZN12_GLOBAL__N_117CommandLineParser9addOptionEPN4llvm2cl6OptionEPNS2_10SubCommandE.constprop.393
   fun:_ZN12_GLOBAL__N_117CommandLineParser9addOptionEPN4llvm2cl6OptionEb
   fun:_ZN4llvm2cl6Option11addArgumentEv
   fun:_ZN4llvm2cl3optIPFPNS_17ScheduleDAGInstrsEPNS_19MachineSchedContextEELb0ENS_18RegisterPassParserINS_20MachineSchedRegistryEEEEC1IIA8_cNS0_11initializerIS7_EENS0_12OptionHiddenENS0_4descEEEEDpRKT_
   fun:_Z41__static_initialization_and_destruction_0ii.constprop.583
   fun:call_init.part.0
   fun:call_init
   fun:_dl_init
   obj:/usr/lib/x86_64-linux-gnu/ld-linux-x86-64.so.2
}
{
   <insert_a_suppression_name_here>
   Memcheck:Leak
   match-leak-kinds: reachable
   fun:malloc
   fun:_ZN4llvm11safe_mallocEm
   fun:_ZN4llvm9StringMapIPNS_2cl6OptionENS_15MallocAllocatorEE11try_emplaceIIS3_EEESt4pairINS_17StringMapIteratorIS3_EEbENS_9StringRefEDpOT_
   fun:_ZN12_GLOBAL__N_117CommandLineParser9addOptionEPN4llvm2cl6OptionEPNS2_10SubCommandE.constprop.393
   fun:_ZN12_GLOBAL__N_117CommandLineParser9addOptionEPN4llvm2cl6OptionEb
   fun:_ZN4llvm2cl6Option11addArgumentEv
   fun:_Z41__static_initialization_and_destruction_0ii.constprop.348
   fun:call_init.part.0
   fun:call_init
   fun:_dl_init
   obj:/usr/lib/x86_64-linux-gnu/ld-linux-x86-64.so.2
}
{
   <insert_a_suppression_name_here>
   Memcheck:Leak
   match-leak-kinds: reachable
   fun:malloc
   fun:_ZN4llvm11safe_mallocEm
   fun:_ZN4llvm9StringMapIPNS_2cl6OptionENS_15MallocAllocatorEE11try_emplaceIIS3_EEESt4pairINS_17StringMapIteratorIS3_EEbENS_9StringRefEDpOT_
   fun:_ZN12_GLOBAL__N_117CommandLineParser9addOptionEPN4llvm2cl6OptionEPNS2_10SubCommandE.constprop.393
   fun:_ZN12_GLOBAL__N_117CommandLineParser9addOptionEPN4llvm2cl6OptionEb
   fun:_ZN4llvm2cl6Option11addArgumentEv
   fun:_Z41__static_initialization_and_destruction_0ii.constprop.727
   fun:call_init.part.0
   fun:call_init
   fun:_dl_init
   obj:/usr/lib/x86_64-linux-gnu/ld-linux-x86-64.so.2
}
{
   <insert_a_suppression_name_here>
   Memcheck:Leak
   match-leak-kinds: reachable
   fun:malloc
   fun:_ZN4llvm11safe_mallocEm
   fun:_ZN4llvm9StringMapIPNS_2cl6OptionENS_15MallocAllocatorEE11try_emplaceIIS3_EEESt4pairINS_17StringMapIteratorIS3_EEbENS_9StringRefEDpOT_
   fun:_ZN12_GLOBAL__N_117CommandLineParser9addOptionEPN4llvm2cl6OptionEPNS2_10SubCommandE.constprop.393
   fun:_ZN12_GLOBAL__N_117CommandLineParser9addOptionEPN4llvm2cl6OptionEb
   fun:_ZN4llvm2cl6Option11addArgumentEv
   fun:_Z41__static_initialization_and_destruction_0ii.constprop.141
   fun:call_init.part.0
   fun:call_init
   fun:_dl_init
   obj:/usr/lib/x86_64-linux-gnu/ld-linux-x86-64.so.2
}
{
   <insert_a_suppression_name_here>
   Memcheck:Leak
   match-leak-kinds: reachable
   fun:malloc
   fun:_ZN4llvm11safe_mallocEm
   fun:_ZN4llvm9StringMapIPNS_2cl6OptionENS_15MallocAllocatorEE11try_emplaceIIS3_EEESt4pairINS_17StringMapIteratorIS3_EEbENS_9StringRefEDpOT_
   fun:_ZN12_GLOBAL__N_117CommandLineParser9addOptionEPN4llvm2cl6OptionEPNS2_10SubCommandE.constprop.393
   fun:_ZN12_GLOBAL__N_117CommandLineParser9addOptionEPN4llvm2cl6OptionEb
   fun:_ZN4llvm2cl6Option11addArgumentEv
   fun:_ZN4llvm2cl3optIPFPNS_12FunctionPassEvELb0ENS_18RegisterPassParserINS_16RegisterRegAllocEEEEC1IIA9_cNS0_12OptionHiddenENS0_11initializerIS5_EENS0_4descEEEEDpRKT_
   fun:_Z41__static_initialization_and_destruction_0ii.constprop.141
   fun:call_init.part.0
   fun:call_init
   fun:_dl_init
   obj:/usr/lib/x86_64-linux-gnu/ld-linux-x86-64.so.2
}
{
   <insert_a_suppression_name_here>
   Memcheck:Leak
   match-leak-kinds: reachable
   fun:malloc
   fun:_ZN4llvm11safe_mallocEm
   fun:_ZN4llvm9StringMapIPNS_2cl6OptionENS_15MallocAllocatorEE11try_emplaceIIS3_EEESt4pairINS_17StringMapIteratorIS3_EEbENS_9StringRefEDpOT_
   fun:_ZN12_GLOBAL__N_117CommandLineParser9addOptionEPN4llvm2cl6OptionEPNS2_10SubCommandE.constprop.393
   fun:_ZN12_GLOBAL__N_117CommandLineParser9addOptionEPN4llvm2cl6OptionEb
   fun:_ZN4llvm2cl6Option11addArgumentEv
   fun:_GLOBAL__sub_I_RandomNumberGenerator.cpp
   fun:call_init.part.0
   fun:call_init
   fun:_dl_init
   obj:/usr/lib/x86_64-linux-gnu/ld-linux-x86-64.so.2
}
{
   <insert_a_suppression_name_here>
   Memcheck:Leak
   match-leak-kinds: reachable
   fun:_Znwm
   fun:_ZNSs4_Rep9_S_createEmmRKSaIcE
   fun:_ZNSs12_S_constructIPKcEEPcT_S3_RKSaIcESt20forward_iterator_tag
   fun:_ZNSsC1EPKcRKSaIcE
   fun:_Z41__static_initialization_and_destruction_0ii.constprop.0
   fun:call_init.part.0
   fun:call_init
   fun:_dl_init
   obj:/usr/lib/x86_64-linux-gnu/ld-linux-x86-64.so.2
}
{
   <insert_a_suppression_name_here>
   Memcheck:Leak
   match-leak-kinds: reachable
   fun:malloc
   fun:_ZN4llvm11safe_mallocEm
   fun:_ZN4llvm9StringMapIPNS_2cl6OptionENS_15MallocAllocatorEE11try_emplaceIIS3_EEESt4pairINS_17StringMapIteratorIS3_EEbENS_9StringRefEDpOT_
   fun:_ZN12_GLOBAL__N_117CommandLineParser9addOptionEPN4llvm2cl6OptionEPNS2_10SubCommandE.constprop.393
   fun:_ZN12_GLOBAL__N_117CommandLineParser9addOptionEPN4llvm2cl6OptionEb
   fun:_ZN4llvm2cl6Option11addArgumentEv
   fun:_ZN4llvm2cl3optIN12_GLOBAL__N_111HelpPrinterELb1ENS0_6parserIbEEEC2IJA17_cNS0_4descENS0_13LocationClassIS3_EENS0_12OptionHiddenENS0_13ValueExpectedENS0_3catENS0_3subEEEEDpRKT_.constprop.345
   fun:_Z41__static_initialization_and_destruction_0ii.constprop.325
   fun:call_init.part.0
   fun:call_init
   fun:_dl_init
   obj:/usr/lib/x86_64-linux-gnu/ld-linux-x86-64.so.2
}
{
   <insert_a_suppression_name_here>
   Memcheck:Leak
   match-leak-kinds: reachable
   fun:malloc
   fun:_ZN4llvm11safe_mallocEm
   fun:_ZN4llvm9StringMapIPNS_2cl6OptionENS_15MallocAllocatorEE11try_emplaceIIS3_EEESt4pairINS_17StringMapIteratorIS3_EEbENS_9StringRefEDpOT_
   fun:_ZN12_GLOBAL__N_117CommandLineParser9addOptionEPN4llvm2cl6OptionEPNS2_10SubCommandE.constprop.393
   fun:_ZN12_GLOBAL__N_117CommandLineParser9addOptionEPN4llvm2cl6OptionEPNS2_10SubCommandE.constprop.393
   fun:_ZN12_GLOBAL__N_117CommandLineParser9addOptionEPN4llvm2cl6OptionEb
   fun:_ZN4llvm2cl6Option11addArgumentEv
   fun:_ZN4llvm2cl3optIN12_GLOBAL__N_111HelpPrinterELb1ENS0_6parserIbEEEC2IJA17_cNS0_4descENS0_13LocationClassIS3_EENS0_12OptionHiddenENS0_13ValueExpectedENS0_3catENS0_3subEEEEDpRKT_.constprop.345
   fun:_Z41__static_initialization_and_destruction_0ii.constprop.325
   fun:call_init.part.0
   fun:call_init
   fun:_dl_init
   obj:/usr/lib/x86_64-linux-gnu/ld-linux-x86-64.so.2
}
{
   <insert_a_suppression_name_here>
   Memcheck:Leak
   match-leak-kinds: reachable
   fun:malloc
   fun:_ZN4llvm11safe_mallocEm
   fun:_ZN4llvm9StringMapIPNS_2cl6OptionENS_15MallocAllocatorEE11try_emplaceIIS3_EEESt4pairINS_17StringMapIteratorIS3_EEbENS_9StringRefEDpOT_
   fun:_ZN12_GLOBAL__N_117CommandLineParser9addOptionEPN4llvm2cl6OptionEPNS2_10SubCommandE.constprop.393
   fun:_ZN12_GLOBAL__N_117CommandLineParser9addOptionEPN4llvm2cl6OptionEb
   fun:_ZN4llvm2cl6Option11addArgumentEv
   fun:_Z41__static_initialization_and_destruction_0ii.constprop.349
   fun:call_init.part.0
   fun:call_init
   fun:_dl_init
   obj:/usr/lib/x86_64-linux-gnu/ld-linux-x86-64.so.2
}
{
   <insert_a_suppression_name_here>
   Memcheck:Leak
   match-leak-kinds: reachable
   fun:malloc
   fun:_ZN4llvm11safe_mallocEm
   fun:_ZN4llvm9StringMapIPNS_2cl6OptionENS_15MallocAllocatorEE11try_emplaceIIS3_EEESt4pairINS_17StringMapIteratorIS3_EEbENS_9StringRefEDpOT_
   fun:_ZN12_GLOBAL__N_117CommandLineParser9addOptionEPN4llvm2cl6OptionEPNS2_10SubCommandE.constprop.393
   fun:_ZN12_GLOBAL__N_117CommandLineParser9addOptionEPN4llvm2cl6OptionEb
   fun:_ZN4llvm2cl6Option11addArgumentEv
   fun:_GLOBAL__sub_I_BranchProbabilityInfo.cpp
   fun:call_init.part.0
   fun:call_init
   fun:_dl_init
   obj:/usr/lib/x86_64-linux-gnu/ld-linux-x86-64.so.2
}
{
   <insert_a_suppression_name_here>
   Memcheck:Leak
   match-leak-kinds: reachable
   fun:malloc
   fun:_ZN4llvm11safe_mallocEm
   fun:_ZN4llvm9StringMapIPNS_2cl6OptionENS_15MallocAllocatorEE11try_emplaceIIS3_EEESt4pairINS_17StringMapIteratorIS3_EEbENS_9StringRefEDpOT_
   fun:_ZN12_GLOBAL__N_117CommandLineParser9addOptionEPN4llvm2cl6OptionEPNS2_10SubCommandE.constprop.393
   fun:_ZN12_GLOBAL__N_117CommandLineParser9addOptionEPN4llvm2cl6OptionEb
   fun:_ZN4llvm2cl6Option11addArgumentEv
   fun:_GLOBAL__sub_I_ControlHeightReduction.cpp
   fun:call_init.part.0
   fun:call_init
   fun:_dl_init
   obj:/usr/lib/x86_64-linux-gnu/ld-linux-x86-64.so.2
}
{
   <insert_a_suppression_name_here>
   Memcheck:Leak
   match-leak-kinds: reachable
   fun:malloc
   fun:_ZN4llvm11safe_mallocEm
   fun:_ZN4llvm9StringMapIPNS_2cl6OptionENS_15MallocAllocatorEE11try_emplaceIIS3_EEESt4pairINS_17StringMapIteratorIS3_EEbENS_9StringRefEDpOT_
   fun:_ZN12_GLOBAL__N_117CommandLineParser9addOptionEPN4llvm2cl6OptionEPNS2_10SubCommandE.constprop.393
   fun:_ZN12_GLOBAL__N_117CommandLineParser9addOptionEPN4llvm2cl6OptionEb
   fun:_ZN4llvm2cl6Option11addArgumentEv
   fun:_Z41__static_initialization_and_destruction_0ii.constprop.403
   fun:call_init.part.0
   fun:call_init
   fun:_dl_init
   obj:/usr/lib/x86_64-linux-gnu/ld-linux-x86-64.so.2
}
{
   <insert_a_suppression_name_here>
   Memcheck:Leak
   match-leak-kinds: reachable
   fun:malloc
   fun:_ZN4llvm11safe_mallocEm
   fun:_ZN4llvm9StringMapIPNS_2cl6OptionENS_15MallocAllocatorEE11try_emplaceIIS3_EEESt4pairINS_17StringMapIteratorIS3_EEbENS_9StringRefEDpOT_
   fun:_ZN12_GLOBAL__N_117CommandLineParser9addOptionEPN4llvm2cl6OptionEPNS2_10SubCommandE.constprop.393
   fun:_ZN12_GLOBAL__N_117CommandLineParser9addOptionEPN4llvm2cl6OptionEb
   fun:_ZN4llvm2cl6Option11addArgumentEv
   fun:_Z41__static_initialization_and_destruction_0ii.constprop.252
   fun:call_init.part.0
   fun:call_init
   fun:_dl_init
   obj:/usr/lib/x86_64-linux-gnu/ld-linux-x86-64.so.2
}
{
   <insert_a_suppression_name_here>
   Memcheck:Leak
   match-leak-kinds: reachable
   fun:malloc
   fun:_ZN4llvm11safe_mallocEm
   fun:_ZN4llvm9StringMapIPNS_2cl6OptionENS_15MallocAllocatorEE11try_emplaceIIS3_EEESt4pairINS_17StringMapIteratorIS3_EEbENS_9StringRefEDpOT_
   fun:_ZN12_GLOBAL__N_117CommandLineParser9addOptionEPN4llvm2cl6OptionEPNS2_10SubCommandE.constprop.393
   fun:_ZN12_GLOBAL__N_117CommandLineParser9addOptionEPN4llvm2cl6OptionEb
   fun:_ZN4llvm2cl6Option11addArgumentEv
   fun:_ZN4llvm2cl3optISsLb0ENS0_6parserISsEEEC1IINS_9StringRefENS0_4descENS0_10value_descENS0_11initializerIA1_cEENS0_12OptionHiddenEEEEDpRKT_
   fun:_Z41__static_initialization_and_destruction_0ii.constprop.141
   fun:call_init.part.0
   fun:call_init
   fun:_dl_init
   obj:/usr/lib/x86_64-linux-gnu/ld-linux-x86-64.so.2
}
{
   <insert_a_suppression_name_here>
   Memcheck:Leak
   match-leak-kinds: reachable
   fun:malloc
   fun:_ZN4llvm11safe_mallocEm
   fun:_ZN4llvm9StringMapIPNS_2cl6OptionENS_15MallocAllocatorEE11try_emplaceIIS3_EEESt4pairINS_17StringMapIteratorIS3_EEbENS_9StringRefEDpOT_
   fun:_ZN12_GLOBAL__N_117CommandLineParser9addOptionEPN4llvm2cl6OptionEPNS2_10SubCommandE.constprop.393
   fun:_ZN12_GLOBAL__N_117CommandLineParser9addOptionEPN4llvm2cl6OptionEb
   fun:_ZN4llvm2cl6Option11addArgumentEv
   fun:_GLOBAL__sub_I_TargetSchedule.cpp
   fun:call_init.part.0
   fun:call_init
   fun:_dl_init
   obj:/usr/lib/x86_64-linux-gnu/ld-linux-x86-64.so.2
}
{
   <insert_a_suppression_name_here>
   Memcheck:Leak
   match-leak-kinds: reachable
   fun:malloc
   fun:_ZN4llvm11safe_mallocEm
   fun:_ZN4llvm9StringMapIPNS_2cl6OptionENS_15MallocAllocatorEE11try_emplaceIIS3_EEESt4pairINS_17StringMapIteratorIS3_EEbENS_9StringRefEDpOT_
   fun:_ZN12_GLOBAL__N_117CommandLineParser9addOptionEPN4llvm2cl6OptionEPNS2_10SubCommandE.constprop.393
   fun:_ZN12_GLOBAL__N_117CommandLineParser9addOptionEPN4llvm2cl6OptionEb
   fun:_ZN4llvm2cl6Option11addArgumentEv
   fun:_Z41__static_initialization_and_destruction_0ii.constprop.91
   fun:call_init.part.0
   fun:call_init
   fun:_dl_init
   obj:/usr/lib/x86_64-linux-gnu/ld-linux-x86-64.so.2
}
{
   <insert_a_suppression_name_here>
   Memcheck:Leak
   match-leak-kinds: reachable
   fun:malloc
   fun:_ZN4llvm11safe_mallocEm
   fun:_ZN4llvm9StringMapIPNS_2cl6OptionENS_15MallocAllocatorEE11try_emplaceIIS3_EEESt4pairINS_17StringMapIteratorIS3_EEbENS_9StringRefEDpOT_
   fun:_ZN12_GLOBAL__N_117CommandLineParser9addOptionEPN4llvm2cl6OptionEPNS2_10SubCommandE.constprop.393
   fun:_ZN12_GLOBAL__N_117CommandLineParser9addOptionEPN4llvm2cl6OptionEb
   fun:_ZN4llvm2cl6Option11addArgumentEv
   fun:_GLOBAL__sub_I_GVN.cpp
   fun:call_init.part.0
   fun:call_init
   fun:_dl_init
   obj:/usr/lib/x86_64-linux-gnu/ld-linux-x86-64.so.2
}
{
   <insert_a_suppression_name_here>
   Memcheck:Leak
   match-leak-kinds: reachable
   fun:malloc
   fun:_ZN4llvm11safe_mallocEm
   fun:_ZN4llvm9StringMapIPNS_2cl6OptionENS_15MallocAllocatorEE11try_emplaceIIS3_EEESt4pairINS_17StringMapIteratorIS3_EEbENS_9StringRefEDpOT_
   fun:_ZN12_GLOBAL__N_117CommandLineParser9addOptionEPN4llvm2cl6OptionEPNS2_10SubCommandE.constprop.393
   fun:_ZN12_GLOBAL__N_117CommandLineParser9addOptionEPN4llvm2cl6OptionEb
   fun:_ZN4llvm2cl6Option11addArgumentEv
   fun:_GLOBAL__sub_I_SimplifyCFGPass.cpp
   fun:call_init.part.0
   fun:call_init
   fun:_dl_init
   obj:/usr/lib/x86_64-linux-gnu/ld-linux-x86-64.so.2
}
{
   <insert_a_suppression_name_here>
   Memcheck:Leak
   match-leak-kinds: reachable
   fun:malloc
   fun:_ZN4llvm11safe_mallocEm
   fun:_ZN4llvm9StringMapIPNS_2cl6OptionENS_15MallocAllocatorEE11try_emplaceIIS3_EEESt4pairINS_17StringMapIteratorIS3_EEbENS_9StringRefEDpOT_
   fun:_ZN12_GLOBAL__N_117CommandLineParser9addOptionEPN4llvm2cl6OptionEPNS2_10SubCommandE.constprop.393
   fun:_ZN12_GLOBAL__N_117CommandLineParser9addOptionEPN4llvm2cl6OptionEb
   fun:_ZN4llvm2cl6Option11addArgumentEv
   fun:_ZN4llvm2cl3optIjLb0ENS0_6parserIjEEEC1IIA11_cNS0_11initializerIiEENS0_12OptionHiddenENS0_18NumOccurrencesFlagENS0_4descEEEEDpRKT_
   fun:_Z41__static_initialization_and_destruction_0ii.constprop.348
   fun:call_init.part.0
   fun:call_init
   fun:_dl_init
   obj:/usr/lib/x86_64-linux-gnu/ld-linux-x86-64.so.2
}
{
   <insert_a_suppression_name_here>
   Memcheck:Leak
   match-leak-kinds: reachable
   fun:malloc
   fun:_ZN4llvm11safe_mallocEm
   fun:_ZN4llvm9StringMapIPNS_2cl6OptionENS_15MallocAllocatorEE11try_emplaceIIS3_EEESt4pairINS_17StringMapIteratorIS3_EEbENS_9StringRefEDpOT_
   fun:_ZN12_GLOBAL__N_117CommandLineParser9addOptionEPN4llvm2cl6OptionEPNS2_10SubCommandE.constprop.393
   fun:_ZN12_GLOBAL__N_117CommandLineParser9addOptionEPN4llvm2cl6OptionEb
   fun:_ZN4llvm2cl6Option11addArgumentEv
   fun:_Z41__static_initialization_and_destruction_0ii.constprop.1226
   fun:call_init.part.0
   fun:call_init
   fun:_dl_init
   obj:/usr/lib/x86_64-linux-gnu/ld-linux-x86-64.so.2
}
{
   <insert_a_suppression_name_here>
   Memcheck:Leak
   match-leak-kinds: reachable
   fun:_Znwm
   fun:_ZNSs4_Rep9_S_createEmmRKSaIcE
   fun:_ZNSs12_S_constructIPKcEEPcT_S3_RKSaIcESt20forward_iterator_tag
   fun:_ZNSsC1EPKcRKSaIcE
   fun:_GLOBAL__sub_I_ParallelThreadPoolNative.cpp
   fun:call_init.part.0
   fun:call_init
   fun:_dl_init
   obj:/usr/lib/x86_64-linux-gnu/ld-linux-x86-64.so.2
}
{
   <insert_a_suppression_name_here>
   Memcheck:Leak
   match-leak-kinds: reachable
   fun:_Znwm
   fun:_ZNSs4_Rep9_S_createEmmRKSaIcE
   fun:_ZNSs12_S_constructIPKcEEPcT_S3_RKSaIcESt20forward_iterator_tag
   fun:_ZNSsC1EPKcRKSaIcE
   fun:_GLOBAL__sub_I_GlooDeviceFactory.cpp
   fun:call_init.part.0
   fun:call_init
   fun:_dl_init
   obj:/usr/lib/x86_64-linux-gnu/ld-linux-x86-64.so.2
}
{
   <insert_a_suppression_name_here>
   Memcheck:Leak
   match-leak-kinds: reachable
   fun:malloc
   fun:_ZN4llvm11safe_mallocEm
   fun:_ZN4llvm9StringMapIPNS_2cl6OptionENS_15MallocAllocatorEE11try_emplaceIIS3_EEESt4pairINS_17StringMapIteratorIS3_EEbENS_9StringRefEDpOT_
   fun:_ZN12_GLOBAL__N_117CommandLineParser9addOptionEPN4llvm2cl6OptionEPNS2_10SubCommandE.constprop.393
   fun:_ZN12_GLOBAL__N_117CommandLineParser9addOptionEPN4llvm2cl6OptionEb
   fun:_ZN4llvm2cl6Option11addArgumentEv
   fun:_ZN4llvm2cl3optIbLb1ENS0_6parserIbEEEC1IIA12_cNS0_13LocationClassIbEENS0_12OptionHiddenENS0_4descEEEEDpRKT_
   fun:_GLOBAL__sub_I_PassTimingInfo.cpp
   fun:call_init.part.0
   fun:call_init
   fun:_dl_init
   obj:/usr/lib/x86_64-linux-gnu/ld-linux-x86-64.so.2
}
{
   <insert_a_suppression_name_here>
   Memcheck:Leak
   match-leak-kinds: reachable
   fun:malloc
   fun:_ZN4llvm11safe_mallocEm
   fun:_ZN4llvm9StringMapIPNS_2cl6OptionENS_15MallocAllocatorEE11try_emplaceIIS3_EEESt4pairINS_17StringMapIteratorIS3_EEbENS_9StringRefEDpOT_
   fun:_ZN12_GLOBAL__N_117CommandLineParser9addOptionEPN4llvm2cl6OptionEPNS2_10SubCommandE.constprop.393
   fun:_ZN12_GLOBAL__N_117CommandLineParser9addOptionEPN4llvm2cl6OptionEb
   fun:_ZN4llvm2cl6Option11addArgumentEv
   fun:_Z41__static_initialization_and_destruction_0ii.constprop.1379
   fun:call_init.part.0
   fun:call_init
   fun:_dl_init
   obj:/usr/lib/x86_64-linux-gnu/ld-linux-x86-64.so.2
}
{
   <insert_a_suppression_name_here>
   Memcheck:Leak
   match-leak-kinds: reachable
   fun:malloc
   fun:_ZN4llvm11safe_mallocEm
   fun:_ZN4llvm9StringMapIPNS_2cl6OptionENS_15MallocAllocatorEE11try_emplaceIIS3_EEESt4pairINS_17StringMapIteratorIS3_EEbENS_9StringRefEDpOT_
   fun:_ZN12_GLOBAL__N_117CommandLineParser9addOptionEPN4llvm2cl6OptionEPNS2_10SubCommandE.constprop.393
   fun:_ZN12_GLOBAL__N_117CommandLineParser9addOptionEPN4llvm2cl6OptionEb
   fun:_ZN4llvm2cl6Option11addArgumentEv
   fun:_GLOBAL__sub_I_TypeBasedAliasAnalysis.cpp
   fun:call_init.part.0
   fun:call_init
   fun:_dl_init
   obj:/usr/lib/x86_64-linux-gnu/ld-linux-x86-64.so.2
}
{
   <insert_a_suppression_name_here>
   Memcheck:Leak
   match-leak-kinds: reachable
   fun:malloc
   fun:_ZN4llvm11safe_mallocEm
   fun:_ZN4llvm9StringMapIPNS_2cl6OptionENS_15MallocAllocatorEE11try_emplaceIIS3_EEESt4pairINS_17StringMapIteratorIS3_EEbENS_9StringRefEDpOT_
   fun:_ZN12_GLOBAL__N_117CommandLineParser9addOptionEPN4llvm2cl6OptionEPNS2_10SubCommandE.constprop.393
   fun:_ZN12_GLOBAL__N_117CommandLineParser9addOptionEPN4llvm2cl6OptionEb
   fun:_ZN4llvm2cl6Option11addArgumentEv
   fun:_GLOBAL__sub_I_IfConversion.cpp
   fun:call_init.part.0
   fun:call_init
   fun:_dl_init
   obj:/usr/lib/x86_64-linux-gnu/ld-linux-x86-64.so.2
}
{
   <insert_a_suppression_name_here>
   Memcheck:Leak
   match-leak-kinds: reachable
   fun:malloc
   fun:_ZN4llvm11safe_mallocEm
   fun:_ZN4llvm9StringMapIPNS_2cl6OptionENS_15MallocAllocatorEE11try_emplaceIIS3_EEESt4pairINS_17StringMapIteratorIS3_EEbENS_9StringRefEDpOT_
   fun:_ZN12_GLOBAL__N_117CommandLineParser9addOptionEPN4llvm2cl6OptionEPNS2_10SubCommandE.constprop.393
   fun:_ZN12_GLOBAL__N_117CommandLineParser9addOptionEPN4llvm2cl6OptionEb
   fun:_ZN4llvm2cl6Option11addArgumentEv
   fun:_Z41__static_initialization_and_destruction_0ii.constprop.451
   fun:call_init.part.0
   fun:call_init
   fun:_dl_init
   obj:/usr/lib/x86_64-linux-gnu/ld-linux-x86-64.so.2
}
{
   <insert_a_suppression_name_here>
   Memcheck:Leak
   match-leak-kinds: reachable
   fun:malloc
   fun:_ZN4llvm11safe_mallocEm
   fun:_ZN4llvm9StringMapIPNS_2cl6OptionENS_15MallocAllocatorEE11try_emplaceIIS3_EEESt4pairINS_17StringMapIteratorIS3_EEbENS_9StringRefEDpOT_
   fun:_ZN12_GLOBAL__N_117CommandLineParser9addOptionEPN4llvm2cl6OptionEPNS2_10SubCommandE.constprop.393
   fun:_ZN12_GLOBAL__N_117CommandLineParser9addOptionEPN4llvm2cl6OptionEb
   fun:_ZN4llvm2cl6Option11addArgumentEv
   fun:_ZN4llvm2cl3optIN12_GLOBAL__N_114PassRemarksOptELb1ENS0_6parserISsEEEC2IJA22_cNS0_10value_descENS0_4descENS0_12OptionHiddenENS0_13LocationClassIS3_EENS0_13ValueExpectedENS0_18NumOccurrencesFlagEEEEDpRKT_.constprop.65
   fun:_GLOBAL__sub_I_DiagnosticHandler.cpp
   fun:call_init.part.0
   fun:call_init
   fun:_dl_init
   obj:/usr/lib/x86_64-linux-gnu/ld-linux-x86-64.so.2
}
{
   <insert_a_suppression_name_here>
   Memcheck:Leak
   match-leak-kinds: reachable
   fun:malloc
   fun:_ZN4llvm11safe_mallocEm
   fun:_ZN4llvm9StringMapIPNS_2cl6OptionENS_15MallocAllocatorEE11try_emplaceIIS3_EEESt4pairINS_17StringMapIteratorIS3_EEbENS_9StringRefEDpOT_
   fun:_ZN12_GLOBAL__N_117CommandLineParser9addOptionEPN4llvm2cl6OptionEPNS2_10SubCommandE.constprop.393
   fun:_ZN12_GLOBAL__N_117CommandLineParser9addOptionEPN4llvm2cl6OptionEb
   fun:_ZN4llvm2cl6Option11addArgumentEv
   fun:_ZN4llvm2cl3optIbLb0ENS0_6parserIbEEEC1IIA13_cNS0_4descENS0_11initializerIbEENS0_12OptionHiddenEEEEDpRKT_
   fun:_GLOBAL__sub_I_DIBuilder.cpp
   fun:call_init.part.0
   fun:call_init
   fun:_dl_init
   obj:/usr/lib/x86_64-linux-gnu/ld-linux-x86-64.so.2
}
{
   <insert_a_suppression_name_here>
   Memcheck:Leak
   match-leak-kinds: reachable
   fun:malloc
   fun:_ZN4llvm11safe_mallocEm
   fun:_ZN4llvm9StringMapIPNS_2cl6OptionENS_15MallocAllocatorEE11try_emplaceIIS3_EEESt4pairINS_17StringMapIteratorIS3_EEbENS_9StringRefEDpOT_
   fun:_ZN12_GLOBAL__N_117CommandLineParser9addOptionEPN4llvm2cl6OptionEPNS2_10SubCommandE.constprop.393
   fun:_ZN12_GLOBAL__N_117CommandLineParser9addOptionEPN4llvm2cl6OptionEb
   fun:_ZN4llvm2cl6Option11addArgumentEv
   fun:_Z41__static_initialization_and_destruction_0ii.constprop.1172
   fun:call_init.part.0
   fun:call_init
   fun:_dl_init
   obj:/usr/lib/x86_64-linux-gnu/ld-linux-x86-64.so.2
}
{
   <insert_a_suppression_name_here>
   Memcheck:Leak
   match-leak-kinds: reachable
   fun:malloc
   fun:_ZN4llvm11safe_mallocEm
   fun:_ZN4llvm9StringMapIPNS_2cl6OptionENS_15MallocAllocatorEE11try_emplaceIIS3_EEESt4pairINS_17StringMapIteratorIS3_EEbENS_9StringRefEDpOT_
   fun:_ZN12_GLOBAL__N_117CommandLineParser9addOptionEPN4llvm2cl6OptionEPNS2_10SubCommandE.constprop.393
   fun:_ZN12_GLOBAL__N_117CommandLineParser9addOptionEPN4llvm2cl6OptionEb
   fun:_ZN4llvm2cl6Option11addArgumentEv
   fun:_ZN4llvm2cl3optIPFPNS_18ScheduleDAGSDNodesEPNS_16SelectionDAGISelENS_10CodeGenOpt5LevelEELb0ENS_18RegisterPassParserINS_17RegisterSchedulerEEEEC1IIA13_cNS0_11initializerIS9_EENS0_12OptionHiddenENS0_4descEEEEDpRKT_
   fun:_Z41__static_initialization_and_destruction_0ii.constprop.727
   fun:call_init.part.0
   fun:call_init
   fun:_dl_init
   obj:/usr/lib/x86_64-linux-gnu/ld-linux-x86-64.so.2
}
{
   <insert_a_suppression_name_here>
   Memcheck:Leak
   match-leak-kinds: reachable
   fun:malloc
   fun:_ZN4llvm11safe_mallocEm
   fun:_ZN4llvm9StringMapIPNS_2cl6OptionENS_15MallocAllocatorEE11try_emplaceIIS3_EEESt4pairINS_17StringMapIteratorIS3_EEbENS_9StringRefEDpOT_
   fun:_ZN12_GLOBAL__N_117CommandLineParser9addOptionEPN4llvm2cl6OptionEPNS2_10SubCommandE.constprop.393
   fun:_ZN12_GLOBAL__N_117CommandLineParser9addOptionEPN4llvm2cl6OptionEb
   fun:_ZN4llvm2cl6Option11addArgumentEv
   fun:_Z41__static_initialization_and_destruction_0ii.constprop.583
   fun:call_init.part.0
   fun:call_init
   fun:_dl_init
   obj:/usr/lib/x86_64-linux-gnu/ld-linux-x86-64.so.2
}
{
   <insert_a_suppression_name_here>
   Memcheck:Leak
   match-leak-kinds: reachable
   fun:malloc
   fun:_ZN4llvm11safe_mallocEm
   fun:_ZN4llvm9StringMapIPNS_2cl6OptionENS_15MallocAllocatorEE11try_emplaceIIS3_EEESt4pairINS_17StringMapIteratorIS3_EEbENS_9StringRefEDpOT_
   fun:_ZN12_GLOBAL__N_117CommandLineParser9addOptionEPN4llvm2cl6OptionEPNS2_10SubCommandE.constprop.393
   fun:_ZN12_GLOBAL__N_117CommandLineParser9addOptionEPN4llvm2cl6OptionEb
   fun:_ZN4llvm2cl6Option11addArgumentEv
   fun:_GLOBAL__sub_I_ScheduleDAG.cpp
   fun:call_init.part.0
   fun:call_init
   fun:_dl_init
   obj:/usr/lib/x86_64-linux-gnu/ld-linux-x86-64.so.2
}
{
   <insert_a_suppression_name_here>
   Memcheck:Leak
   match-leak-kinds: reachable
   fun:malloc
   fun:_ZN4llvm11safe_mallocEm
   fun:_ZN4llvm9StringMapIPNS_2cl6OptionENS_15MallocAllocatorEE11try_emplaceIIS3_EEESt4pairINS_17StringMapIteratorIS3_EEbENS_9StringRefEDpOT_
   fun:_ZN12_GLOBAL__N_117CommandLineParser9addOptionEPN4llvm2cl6OptionEPNS2_10SubCommandE.constprop.393
   fun:_ZN12_GLOBAL__N_117CommandLineParser9addOptionEPN4llvm2cl6OptionEb
   fun:_ZN4llvm2cl6Option11addArgumentEv
   fun:_ZN4llvm2cl3optIbLb0ENS0_6parserIbEEEC1IIA13_cNS0_12OptionHiddenENS0_4descEEEEDpRKT_
   fun:_GLOBAL__sub_I_MIRPrinter.cpp
   fun:call_init.part.0
   fun:call_init
   fun:_dl_init
   obj:/usr/lib/x86_64-linux-gnu/ld-linux-x86-64.so.2
}
{
   <insert_a_suppression_name_here>
   Memcheck:Leak
   match-leak-kinds: reachable
   fun:malloc
   fun:_ZN4llvm11safe_mallocEm
   fun:_ZN4llvm9StringMapIPNS_2cl6OptionENS_15MallocAllocatorEE11try_emplaceIIS3_EEESt4pairINS_17StringMapIteratorIS3_EEbENS_9StringRefEDpOT_
   fun:_ZN12_GLOBAL__N_117CommandLineParser9addOptionEPN4llvm2cl6OptionEPNS2_10SubCommandE.constprop.393
   fun:_ZN12_GLOBAL__N_117CommandLineParser9addOptionEPN4llvm2cl6OptionEb
   fun:_ZN4llvm2cl6Option11addArgumentEv
   fun:_Z41__static_initialization_and_destruction_0ii.constprop.291
   fun:call_init.part.0
   fun:call_init
   fun:_dl_init
   obj:/usr/lib/x86_64-linux-gnu/ld-linux-x86-64.so.2
}
{
   <insert_a_suppression_name_here>
   Memcheck:Leak
   match-leak-kinds: reachable
   fun:malloc
   fun:_ZN4llvm11safe_mallocEm
   fun:_ZN4llvm9StringMapIPNS_2cl6OptionENS_15MallocAllocatorEE11try_emplaceIIS3_EEESt4pairINS_17StringMapIteratorIS3_EEbENS_9StringRefEDpOT_
   fun:_ZN12_GLOBAL__N_117CommandLineParser9addOptionEPN4llvm2cl6OptionEPNS2_10SubCommandE.constprop.393
   fun:_ZN12_GLOBAL__N_117CommandLineParser9addOptionEPN4llvm2cl6OptionEb
   fun:_ZN4llvm2cl6Option11addArgumentEv
   fun:_GLOBAL__sub_I_IndirectCallPromotionAnalysis.cpp
   fun:call_init.part.0
   fun:call_init
   fun:_dl_init
   obj:/usr/lib/x86_64-linux-gnu/ld-linux-x86-64.so.2
}
{
   <insert_a_suppression_name_here>
   Memcheck:Leak
   match-leak-kinds: reachable
   fun:malloc
   fun:_ZN4llvm11safe_mallocEm
   fun:_ZN4llvm9StringMapIPNS_2cl6OptionENS_15MallocAllocatorEE11try_emplaceIIS3_EEESt4pairINS_17StringMapIteratorIS3_EEbENS_9StringRefEDpOT_
   fun:_ZN12_GLOBAL__N_117CommandLineParser9addOptionEPN4llvm2cl6OptionEPNS2_10SubCommandE.constprop.393
   fun:_ZN12_GLOBAL__N_117CommandLineParser9addOptionEPN4llvm2cl6OptionEb
   fun:_ZN4llvm2cl6Option11addArgumentEv
   fun:_GLOBAL__sub_I_Timer.cpp
   fun:call_init.part.0
   fun:call_init
   fun:_dl_init
   obj:/usr/lib/x86_64-linux-gnu/ld-linux-x86-64.so.2
}
{
   <insert_a_suppression_name_here>
   Memcheck:Leak
   match-leak-kinds: reachable
   fun:malloc
   fun:malloc
   fun:strdup
   fun:_dl_load_cache_lookup
   fun:_dl_map_object
   fun:dl_open_worker_begin
   fun:_dl_catch_exception
   fun:dl_open_worker
   fun:_dl_catch_exception
   fun:_dl_open
   fun:dlopen_doit
   fun:_dl_catch_exception
   fun:_dl_catch_error
}
{
   <insert_a_suppression_name_here>
   Memcheck:Leak
   match-leak-kinds: reachable
   fun:malloc
   fun:_ZN4llvm11safe_mallocEm
   fun:_ZN4llvm9StringMapIPNS_2cl6OptionENS_15MallocAllocatorEE11try_emplaceIIS3_EEESt4pairINS_17StringMapIteratorIS3_EEbENS_9StringRefEDpOT_
   fun:_ZN12_GLOBAL__N_117CommandLineParser9addOptionEPN4llvm2cl6OptionEPNS2_10SubCommandE.constprop.393
   fun:_ZN12_GLOBAL__N_117CommandLineParser9addOptionEPN4llvm2cl6OptionEb
   fun:_ZN4llvm2cl6Option11addArgumentEv
   fun:_Z41__static_initialization_and_destruction_0ii.constprop.279
   fun:call_init.part.0
   fun:call_init
   fun:_dl_init
   obj:/usr/lib/x86_64-linux-gnu/ld-linux-x86-64.so.2
}
{
   <insert_a_suppression_name_here>
   Memcheck:Leak
   match-leak-kinds: reachable
   fun:malloc
   fun:_ZN4llvm11safe_mallocEm
   fun:_ZN4llvm9StringMapIPNS_2cl6OptionENS_15MallocAllocatorEE11try_emplaceIIS3_EEESt4pairINS_17StringMapIteratorIS3_EEbENS_9StringRefEDpOT_
   fun:_ZN12_GLOBAL__N_117CommandLineParser9addOptionEPN4llvm2cl6OptionEPNS2_10SubCommandE.constprop.393
   fun:_ZN12_GLOBAL__N_117CommandLineParser9addOptionEPN4llvm2cl6OptionEb
   fun:_ZN4llvm2cl6Option11addArgumentEv
   fun:_Z41__static_initialization_and_destruction_0ii.constprop.358
   fun:call_init.part.0
   fun:call_init
   fun:_dl_init
   obj:/usr/lib/x86_64-linux-gnu/ld-linux-x86-64.so.2
}
{
   <insert_a_suppression_name_here>
   Memcheck:Leak
   match-leak-kinds: reachable
   fun:malloc
   fun:_ZN4llvm11safe_mallocEm
   fun:_ZN4llvm9StringMapIPNS_2cl6OptionENS_15MallocAllocatorEE11try_emplaceIIS3_EEESt4pairINS_17StringMapIteratorIS3_EEbENS_9StringRefEDpOT_
   fun:_ZN12_GLOBAL__N_117CommandLineParser9addOptionEPN4llvm2cl6OptionEPNS2_10SubCommandE.constprop.393
   fun:_ZN12_GLOBAL__N_117CommandLineParser9addOptionEPN4llvm2cl6OptionEb
   fun:_ZN4llvm2cl6Option11addArgumentEv
   fun:_Z41__static_initialization_and_destruction_0ii.constprop.765
   fun:call_init.part.0
   fun:call_init
   fun:_dl_init
   obj:/usr/lib/x86_64-linux-gnu/ld-linux-x86-64.so.2
}
{
   <insert_a_suppression_name_here>
   Memcheck:Leak
   match-leak-kinds: reachable
   fun:malloc
   fun:_ZN4llvm11safe_mallocEm
   fun:_ZN4llvm9StringMapIPNS_2cl6OptionENS_15MallocAllocatorEE11try_emplaceIIS3_EEESt4pairINS_17StringMapIteratorIS3_EEbENS_9StringRefEDpOT_
   fun:_ZN12_GLOBAL__N_117CommandLineParser9addOptionEPN4llvm2cl6OptionEPNS2_10SubCommandE.constprop.393
   fun:_ZN12_GLOBAL__N_117CommandLineParser9addOptionEPN4llvm2cl6OptionEb
   fun:_ZN4llvm2cl6Option11addArgumentEv
   fun:_Z41__static_initialization_and_destruction_0ii.constprop.456
   fun:call_init.part.0
   fun:call_init
   fun:_dl_init
   obj:/usr/lib/x86_64-linux-gnu/ld-linux-x86-64.so.2
}
{
   <insert_a_suppression_name_here>
   Memcheck:Leak
   match-leak-kinds: reachable
   fun:malloc
   fun:_ZN4llvm11safe_mallocEm
   fun:_ZN4llvm9StringMapIPNS_2cl6OptionENS_15MallocAllocatorEE11try_emplaceIIS3_EEESt4pairINS_17StringMapIteratorIS3_EEbENS_9StringRefEDpOT_
   fun:_ZN12_GLOBAL__N_117CommandLineParser9addOptionEPN4llvm2cl6OptionEPNS2_10SubCommandE.constprop.393
   fun:_ZN12_GLOBAL__N_117CommandLineParser9addOptionEPN4llvm2cl6OptionEb
   fun:_ZN4llvm2cl6Option11addArgumentEv
   fun:_Z41__static_initialization_and_destruction_0ii.constprop.355
   fun:call_init.part.0
   fun:call_init
   fun:_dl_init
   obj:/usr/lib/x86_64-linux-gnu/ld-linux-x86-64.so.2
}
{
   <insert_a_suppression_name_here>
   Memcheck:Leak
   match-leak-kinds: reachable
   fun:malloc
   fun:_ZN4llvm11safe_mallocEm
   fun:_ZN4llvm9StringMapIPNS_2cl6OptionENS_15MallocAllocatorEE11try_emplaceIIS3_EEESt4pairINS_17StringMapIteratorIS3_EEbENS_9StringRefEDpOT_
   fun:_ZN12_GLOBAL__N_117CommandLineParser9addOptionEPN4llvm2cl6OptionEPNS2_10SubCommandE.constprop.393
   fun:_ZN12_GLOBAL__N_117CommandLineParser9addOptionEPN4llvm2cl6OptionEb
   fun:_ZN4llvm2cl6Option11addArgumentEv
   fun:_GLOBAL__sub_I_StackSlotColoring.cpp
   fun:call_init.part.0
   fun:call_init
   fun:_dl_init
   obj:/usr/lib/x86_64-linux-gnu/ld-linux-x86-64.so.2
}
{
   <insert_a_suppression_name_here>
   Memcheck:Leak
   match-leak-kinds: reachable
   fun:malloc
   fun:_ZN4llvm11safe_mallocEm
   fun:_ZN4llvm9StringMapIPNS_2cl6OptionENS_15MallocAllocatorEE11try_emplaceIIS3_EEESt4pairINS_17StringMapIteratorIS3_EEbENS_9StringRefEDpOT_
   fun:_ZN12_GLOBAL__N_117CommandLineParser9addOptionEPN4llvm2cl6OptionEPNS2_10SubCommandE.constprop.393
   fun:_ZN12_GLOBAL__N_117CommandLineParser9addOptionEPN4llvm2cl6OptionEb
   fun:_ZN4llvm2cl6Option11addArgumentEv
   fun:_GLOBAL__sub_I_TailDuplicator.cpp
   fun:call_init.part.0
   fun:call_init
   fun:_dl_init
   obj:/usr/lib/x86_64-linux-gnu/ld-linux-x86-64.so.2
}
{
   <insert_a_suppression_name_here>
   Memcheck:Leak
   match-leak-kinds: reachable
   fun:malloc
   fun:_ZN4llvm11safe_mallocEm
   fun:_ZN4llvm9StringMapIPNS_2cl6OptionENS_15MallocAllocatorEE11try_emplaceIIS3_EEESt4pairINS_17StringMapIteratorIS3_EEbENS_9StringRefEDpOT_
   fun:_ZN12_GLOBAL__N_117CommandLineParser9addOptionEPN4llvm2cl6OptionEPNS2_10SubCommandE.constprop.393
   fun:_ZN12_GLOBAL__N_117CommandLineParser9addOptionEPN4llvm2cl6OptionEb
   fun:_ZN4llvm2cl6Option11addArgumentEv
   fun:_Z41__static_initialization_and_destruction_0ii.constprop.1217
   fun:call_init.part.0
   fun:call_init
   fun:_dl_init
   obj:/usr/lib/x86_64-linux-gnu/ld-linux-x86-64.so.2
}
{
   <insert_a_suppression_name_here>
   Memcheck:Leak
   match-leak-kinds: reachable
   fun:malloc
   fun:_ZN4llvm11safe_mallocEm
   fun:_ZN4llvm9StringMapIPNS_2cl6OptionENS_15MallocAllocatorEE11try_emplaceIIS3_EEESt4pairINS_17StringMapIteratorIS3_EEbENS_9StringRefEDpOT_
   fun:_ZN12_GLOBAL__N_117CommandLineParser9addOptionEPN4llvm2cl6OptionEPNS2_10SubCommandE.constprop.393
   fun:_ZN12_GLOBAL__N_117CommandLineParser9addOptionEPN4llvm2cl6OptionEb
   fun:_ZN4llvm2cl6Option11addArgumentEv
   fun:_GLOBAL__sub_I_DebugCounter.cpp
   fun:call_init.part.0
   fun:call_init
   fun:_dl_init
   obj:/usr/lib/x86_64-linux-gnu/ld-linux-x86-64.so.2
}
{
   <insert_a_suppression_name_here>
   Memcheck:Leak
   match-leak-kinds: reachable
   fun:malloc
   fun:_ZN4llvm11safe_mallocEm
   fun:_ZN4llvm9StringMapIPNS_2cl6OptionENS_15MallocAllocatorEE11try_emplaceIIS3_EEESt4pairINS_17StringMapIteratorIS3_EEbENS_9StringRefEDpOT_
   fun:_ZN12_GLOBAL__N_117CommandLineParser9addOptionEPN4llvm2cl6OptionEPNS2_10SubCommandE.constprop.393
   fun:_ZN12_GLOBAL__N_117CommandLineParser9addOptionEPN4llvm2cl6OptionEb
   fun:_ZN4llvm2cl6Option11addArgumentEv
   fun:_ZN4llvm2cl3optINS_21TargetLibraryInfoImpl13VectorLibraryELb0ENS0_6parserIS3_EEEC1IIA15_cNS0_12OptionHiddenENS0_4descENS0_11initializerIS3_EENS0_11ValuesClassEEEEDpRKT_
   fun:_Z41__static_initialization_and_destruction_0ii.constprop.153
   fun:call_init.part.0
   fun:call_init
   fun:_dl_init
   obj:/usr/lib/x86_64-linux-gnu/ld-linux-x86-64.so.2
}
{
   <insert_a_suppression_name_here>
   Memcheck:Leak
   match-leak-kinds: reachable
   fun:malloc
   fun:_ZN4llvm11safe_mallocEm
   fun:_ZN4llvm9StringMapIPNS_2cl6OptionENS_15MallocAllocatorEE11try_emplaceIIS3_EEESt4pairINS_17StringMapIteratorIS3_EEbENS_9StringRefEDpOT_
   fun:_ZN12_GLOBAL__N_117CommandLineParser9addOptionEPN4llvm2cl6OptionEPNS2_10SubCommandE.constprop.393
   fun:_ZN12_GLOBAL__N_117CommandLineParser9addOptionEPN4llvm2cl6OptionEb
   fun:_ZN4llvm2cl6Option11addArgumentEv
   fun:_GLOBAL__sub_I_BasicAliasAnalysis.cpp
   fun:call_init.part.0
   fun:call_init
   fun:_dl_init
   obj:/usr/lib/x86_64-linux-gnu/ld-linux-x86-64.so.2
}
{
   <insert_a_suppression_name_here>
   Memcheck:Leak
   match-leak-kinds: reachable
   fun:malloc
   fun:_ZN4llvm11safe_mallocEm
   fun:_ZN4llvm9StringMapIPNS_2cl6OptionENS_15MallocAllocatorEE11try_emplaceIIS3_EEESt4pairINS_17StringMapIteratorIS3_EEbENS_9StringRefEDpOT_
   fun:_ZN12_GLOBAL__N_117CommandLineParser9addOptionEPN4llvm2cl6OptionEPNS2_10SubCommandE.constprop.393
   fun:_ZN12_GLOBAL__N_117CommandLineParser9addOptionEPN4llvm2cl6OptionEb
   fun:_ZN4llvm2cl6Option11addArgumentEv
   fun:_Z41__static_initialization_and_destruction_0ii.constprop.46
   fun:call_init.part.0
   fun:call_init
   fun:_dl_init
   obj:/usr/lib/x86_64-linux-gnu/ld-linux-x86-64.so.2
}
{
   <insert_a_suppression_name_here>
   Memcheck:Leak
   match-leak-kinds: reachable
   fun:malloc
   fun:_ZN4llvm11safe_mallocEm
   fun:_ZN4llvm9StringMapIPNS_2cl6OptionENS_15MallocAllocatorEE11try_emplaceIIS3_EEESt4pairINS_17StringMapIteratorIS3_EEbENS_9StringRefEDpOT_
   fun:_ZN12_GLOBAL__N_117CommandLineParser9addOptionEPN4llvm2cl6OptionEPNS2_10SubCommandE.constprop.393
   fun:_ZN12_GLOBAL__N_117CommandLineParser9addOptionEPN4llvm2cl6OptionEb
   fun:_ZN4llvm2cl6Option11addArgumentEv
   fun:_ZN4llvm2cl3optIbLb0ENS0_6parserIbEEEC1IIA15_cNS0_12OptionHiddenENS0_4descENS0_11initializerIbEEEEEDpRKT_
   fun:_GLOBAL__sub_I_MacroFusion.cpp
   fun:call_init.part.0
   fun:call_init
   fun:_dl_init
   obj:/usr/lib/x86_64-linux-gnu/ld-linux-x86-64.so.2
}
{
   <insert_a_suppression_name_here>
   Memcheck:Leak
   match-leak-kinds: reachable
   fun:malloc
   fun:_ZN4llvm11safe_mallocEm
   fun:_ZN4llvm9StringMapIPNS_2cl6OptionENS_15MallocAllocatorEE11try_emplaceIIS3_EEESt4pairINS_17StringMapIteratorIS3_EEbENS_9StringRefEDpOT_
   fun:_ZN12_GLOBAL__N_117CommandLineParser9addOptionEPN4llvm2cl6OptionEPNS2_10SubCommandE.constprop.393
   fun:_ZN12_GLOBAL__N_117CommandLineParser9addOptionEPN4llvm2cl6OptionEb
   fun:_ZN4llvm2cl6Option11addArgumentEv
   fun:_ZN4llvm2cl3optIbLb0ENS0_6parserIbEEEC1IIA15_cNS0_11initializerIbEENS0_12OptionHiddenENS0_4descEEEEDpRKT_
   fun:_GLOBAL__sub_I_RegisterUsageInfo.cpp
   fun:call_init.part.0
   fun:call_init
   fun:_dl_init
   obj:/usr/lib/x86_64-linux-gnu/ld-linux-x86-64.so.2
}
{
   <insert_a_suppression_name_here>
   Memcheck:Leak
   match-leak-kinds: reachable
   fun:malloc
   fun:_ZN4llvm11safe_mallocEm
   fun:_ZN4llvm9StringMapIPNS_2cl6OptionENS_15MallocAllocatorEE11try_emplaceIIS3_EEESt4pairINS_17StringMapIteratorIS3_EEbENS_9StringRefEDpOT_
   fun:_ZN12_GLOBAL__N_117CommandLineParser9addOptionEPN4llvm2cl6OptionEPNS2_10SubCommandE.constprop.393
   fun:_ZN12_GLOBAL__N_117CommandLineParser9addOptionEPN4llvm2cl6OptionEb
   fun:_ZN4llvm2cl6Option11addArgumentEv
   fun:_Z41__static_initialization_and_destruction_0ii.constprop.505
   fun:call_init.part.0
   fun:call_init
   fun:_dl_init
   obj:/usr/lib/x86_64-linux-gnu/ld-linux-x86-64.so.2
}
{
   <insert_a_suppression_name_here>
   Memcheck:Leak
   match-leak-kinds: reachable
   fun:malloc
   fun:_ZN4llvm11safe_mallocEm
   fun:_ZN4llvm9StringMapIPNS_2cl6OptionENS_15MallocAllocatorEE11try_emplaceIIS3_EEESt4pairINS_17StringMapIteratorIS3_EEbENS_9StringRefEDpOT_
   fun:_ZN12_GLOBAL__N_117CommandLineParser9addOptionEPN4llvm2cl6OptionEPNS2_10SubCommandE.constprop.393
   fun:_ZN12_GLOBAL__N_117CommandLineParser9addOptionEPN4llvm2cl6OptionEb
   fun:_ZN4llvm2cl6Option11addArgumentEv
   fun:_GLOBAL__sub_I_ConstantHoisting.cpp
   fun:call_init.part.0
   fun:call_init
   fun:_dl_init
   obj:/usr/lib/x86_64-linux-gnu/ld-linux-x86-64.so.2
}
{
   <insert_a_suppression_name_here>
   Memcheck:Leak
   match-leak-kinds: reachable
   fun:malloc
   fun:_ZN4llvm11safe_mallocEm
   fun:_ZN4llvm9StringMapIPNS_2cl6OptionENS_15MallocAllocatorEE11try_emplaceIIS3_EEESt4pairINS_17StringMapIteratorIS3_EEbENS_9StringRefEDpOT_
   fun:_ZN12_GLOBAL__N_117CommandLineParser9addOptionEPN4llvm2cl6OptionEPNS2_10SubCommandE.constprop.393
   fun:_ZN12_GLOBAL__N_117CommandLineParser9addOptionEPN4llvm2cl6OptionEb
   fun:_ZN4llvm2cl6Option11addArgumentEv
   fun:_Z41__static_initialization_and_destruction_0ii.constprop.761
   fun:call_init.part.0
   fun:call_init
   fun:_dl_init
   obj:/usr/lib/x86_64-linux-gnu/ld-linux-x86-64.so.2
}
{
   <insert_a_suppression_name_here>
   Memcheck:Leak
   match-leak-kinds: reachable
   fun:malloc
   fun:_ZN4llvm11safe_mallocEm
   fun:_ZN4llvm9StringMapIPNS_2cl6OptionENS_15MallocAllocatorEE11try_emplaceIIS3_EEESt4pairINS_17StringMapIteratorIS3_EEbENS_9StringRefEDpOT_
   fun:_ZN12_GLOBAL__N_117CommandLineParser9addOptionEPN4llvm2cl6OptionEPNS2_10SubCommandE.constprop.393
   fun:_ZN12_GLOBAL__N_117CommandLineParser9addOptionEPN4llvm2cl6OptionEb
   fun:_ZN4llvm2cl6Option11addArgumentEv
   fun:_GLOBAL__sub_I_DependenceAnalysis.cpp
   fun:call_init.part.0
   fun:call_init
   fun:_dl_init
   obj:/usr/lib/x86_64-linux-gnu/ld-linux-x86-64.so.2
}
{
   <insert_a_suppression_name_here>
   Memcheck:Leak
   match-leak-kinds: reachable
   fun:_Znwm
   fun:_ZNSs4_Rep9_S_createEmmRKSaIcE
   fun:_ZNSs12_S_constructIPKcEEPcT_S3_RKSaIcESt20forward_iterator_tag
   fun:_ZNSsC1EPKcmRKSaIcE
   fun:_ZN6google8protobuf25EncodedDescriptorDatabase15DescriptorIndex7AddFileINS0_19FileDescriptorProtoEEEbRKT_St4pairIPKviE
   fun:_ZN6google8protobuf25EncodedDescriptorDatabase3AddEPKvi
   fun:_ZN6google8protobuf14DescriptorPool24InternalAddGeneratedFileEPKvi
   fun:_ZN6google8protobuf12_GLOBAL__N_118AddDescriptorsImplEPKNS0_8internal15DescriptorTableE
   fun:_ZN6google8protobuf12_GLOBAL__N_118AddDescriptorsImplEPKNS0_8internal15DescriptorTableE
   fun:call_init.part.0
   fun:call_init
   fun:_dl_init
   obj:/usr/lib/x86_64-linux-gnu/ld-linux-x86-64.so.2
}
{
   <insert_a_suppression_name_here>
   Memcheck:Leak
   match-leak-kinds: reachable
   fun:_Znwm
   fun:_ZNSt8__detail9_Map_baseISsSt4pairIKSsN3c1016RegistryPriorityEESaIS5_ENS_10_Select1stESt8equal_toISsESt4hashISsENS_18_Mod_range_hashingENS_20_Default_ranged_hashENS_20_Prime_rehash_policyENS_17_Hashtable_traitsILb1ELb0ELb1EEELb1EEixERS2_
   fun:_ZN3c108RegistryISsSt10unique_ptrINS_13C10FlagParserESt14default_deleteIS2_EEJRKSsEE8RegisterES7_St8functionIFS5_S7_EENS_16RegistryPriorityE
   fun:_ZN3c1010RegistererISsSt10unique_ptrINS_13C10FlagParserESt14default_deleteIS2_EEJRKSsEEC1ES7_PNS_8RegistryISsS5_JS7_EEESt8functionIFS5_S7_EES7_
   fun:_GLOBAL__sub_I_CPUAllocator.cpp
   fun:call_init.part.0
   fun:call_init
   fun:_dl_init
   obj:/usr/lib/x86_64-linux-gnu/ld-linux-x86-64.so.2
}
{
   <insert_a_suppression_name_here>
   Memcheck:Leak
   match-leak-kinds: reachable
   fun:_Znwm
   fun:_ZNSt8__detail9_Map_baseISsSt4pairIKSsSsESaIS3_ENS_10_Select1stESt8equal_toISsESt4hashISsENS_18_Mod_range_hashingENS_20_Default_ranged_hashENS_20_Prime_rehash_policyENS_17_Hashtable_traitsILb1ELb0ELb1EEELb1EEixERS2_
   fun:_ZN3c1010RegistererISsSt10unique_ptrINS_13C10FlagParserESt14default_deleteIS2_EEJRKSsEEC1ES7_PNS_8RegistryISsS5_JS7_EEESt8functionIFS5_S7_EES7_
   fun:_GLOBAL__sub_I_CPUAllocator.cpp
   fun:call_init.part.0
   fun:call_init
   fun:_dl_init
   obj:/usr/lib/x86_64-linux-gnu/ld-linux-x86-64.so.2
}
{
   <insert_a_suppression_name_here>
   Memcheck:Leak
   match-leak-kinds: reachable
   fun:_Znwm
   fun:_ZNSt8__detail9_Map_baseISsSt4pairIKSsN3c1016RegistryPriorityEESaIS5_ENS_10_Select1stESt8equal_toISsESt4hashISsENS_18_Mod_range_hashingENS_20_Default_ranged_hashENS_20_Prime_rehash_policyENS_17_Hashtable_traitsILb1ELb0ELb1EEELb1EEixERS2_
   fun:_ZN3c108RegistryISsSt10unique_ptrINS_13C10FlagParserESt14default_deleteIS2_EEJRKSsEE8RegisterES7_St8functionIFS5_S7_EENS_16RegistryPriorityE
   fun:_ZN3c1010RegistererISsSt10unique_ptrINS_13C10FlagParserESt14default_deleteIS2_EEJRKSsEEC1ES7_PNS_8RegistryISsS5_JS7_EEESt8functionIFS5_S7_EES7_
   fun:_GLOBAL__sub_I_TensorImpl.cpp
   fun:call_init.part.0
   fun:call_init
   fun:_dl_init
   obj:/usr/lib/x86_64-linux-gnu/ld-linux-x86-64.so.2
}
{
   <insert_a_suppression_name_here>
   Memcheck:Leak
   match-leak-kinds: reachable
   fun:_Znwm
   fun:_ZNSt8__detail9_Map_baseISsSt4pairIKSsSsESaIS3_ENS_10_Select1stESt8equal_toISsESt4hashISsENS_18_Mod_range_hashingENS_20_Default_ranged_hashENS_20_Prime_rehash_policyENS_17_Hashtable_traitsILb1ELb0ELb1EEELb1EEixERS2_
   fun:_ZN3c1010RegistererISsSt10unique_ptrINS_13C10FlagParserESt14default_deleteIS2_EEJRKSsEEC1ES7_PNS_8RegistryISsS5_JS7_EEESt8functionIFS5_S7_EES7_
   fun:_GLOBAL__sub_I_TensorImpl.cpp
   fun:call_init.part.0
   fun:call_init
   fun:_dl_init
   obj:/usr/lib/x86_64-linux-gnu/ld-linux-x86-64.so.2
}
{
   <insert_a_suppression_name_here>
   Memcheck:Leak
   match-leak-kinds: reachable
   fun:_Znwm
   fun:_ZNSt8__detail9_Map_baseISsSt4pairIKSsN3c1016RegistryPriorityEESaIS5_ENS_10_Select1stESt8equal_toISsESt4hashISsENS_18_Mod_range_hashingENS_20_Default_ranged_hashENS_20_Prime_rehash_policyENS_17_Hashtable_traitsILb1ELb0ELb1EEELb1EEixERS2_
   fun:_ZN3c108RegistryISsSt10unique_ptrINS_13C10FlagParserESt14default_deleteIS2_EEJRKSsEE8RegisterES7_St8functionIFS5_S7_EENS_16RegistryPriorityE
   fun:_ZN3c1010RegistererISsSt10unique_ptrINS_13C10FlagParserESt14default_deleteIS2_EEJRKSsEEC1ES7_PNS_8RegistryISsS5_JS7_EEESt8functionIFS5_S7_EES7_
   fun:_GLOBAL__sub_I_alloc_cpu.cpp
   fun:call_init.part.0
   fun:call_init
   fun:_dl_init
   obj:/usr/lib/x86_64-linux-gnu/ld-linux-x86-64.so.2
}
{
   <insert_a_suppression_name_here>
   Memcheck:Leak
   match-leak-kinds: reachable
   fun:_Znwm
   fun:_ZNSt8__detail9_Map_baseISsSt4pairIKSsSsESaIS3_ENS_10_Select1stESt8equal_toISsESt4hashISsENS_18_Mod_range_hashingENS_20_Default_ranged_hashENS_20_Prime_rehash_policyENS_17_Hashtable_traitsILb1ELb0ELb1EEELb1EEixERS2_
   fun:_ZN3c1010RegistererISsSt10unique_ptrINS_13C10FlagParserESt14default_deleteIS2_EEJRKSsEEC1ES7_PNS_8RegistryISsS5_JS7_EEESt8functionIFS5_S7_EES7_
   fun:_GLOBAL__sub_I_alloc_cpu.cpp
   fun:call_init.part.0
   fun:call_init
   fun:_dl_init
   obj:/usr/lib/x86_64-linux-gnu/ld-linux-x86-64.so.2
}
{
   <insert_a_suppression_name_here>
   Memcheck:Leak
   match-leak-kinds: reachable
   fun:_Znwm
   fun:_ZNSt8__detail9_Map_baseISsSt4pairIKSsN3c1016RegistryPriorityEESaIS5_ENS_10_Select1stESt8equal_toISsESt4hashISsENS_18_Mod_range_hashingENS_20_Default_ranged_hashENS_20_Prime_rehash_policyENS_17_Hashtable_traitsILb1ELb0ELb1EEELb1EEixERS2_
   fun:_ZN3c108RegistryISsSt10unique_ptrINS_13C10FlagParserESt14default_deleteIS2_EEJRKSsEE8RegisterES7_St8functionIFS5_S7_EENS_16RegistryPriorityE
   fun:_ZN3c1010RegistererISsSt10unique_ptrINS_13C10FlagParserESt14default_deleteIS2_EEJRKSsEEC1ES7_PNS_8RegistryISsS5_JS7_EEESt8functionIFS5_S7_EES7_
   fun:_Z41__static_initialization_and_destruction_0ii.constprop.0
   fun:call_init.part.0
   fun:call_init
   fun:_dl_init
   obj:/usr/lib/x86_64-linux-gnu/ld-linux-x86-64.so.2
}
{
   <insert_a_suppression_name_here>
   Memcheck:Leak
   match-leak-kinds: reachable
   fun:_Znwm
   fun:_ZNSt8__detail9_Map_baseISsSt4pairIKSsSsESaIS3_ENS_10_Select1stESt8equal_toISsESt4hashISsENS_18_Mod_range_hashingENS_20_Default_ranged_hashENS_20_Prime_rehash_policyENS_17_Hashtable_traitsILb1ELb0ELb1EEELb1EEixERS2_
   fun:_ZN3c1010RegistererISsSt10unique_ptrINS_13C10FlagParserESt14default_deleteIS2_EEJRKSsEEC1ES7_PNS_8RegistryISsS5_JS7_EEESt8functionIFS5_S7_EES7_
   fun:_Z41__static_initialization_and_destruction_0ii.constprop.0
   fun:call_init.part.0
   fun:call_init
   fun:_dl_init
   obj:/usr/lib/x86_64-linux-gnu/ld-linux-x86-64.so.2
}
{
   <insert_a_suppression_name_here>
   Memcheck:Leak
   match-leak-kinds: reachable
   fun:_Znwm
   fun:_ZNSt8__detail9_Map_baseISsSt4pairIKSsN3c1016RegistryPriorityEESaIS5_ENS_10_Select1stESt8equal_toISsESt4hashISsENS_18_Mod_range_hashingENS_20_Default_ranged_hashENS_20_Prime_rehash_policyENS_17_Hashtable_traitsILb1ELb0ELb1EEELb1EEixERS2_
   fun:_ZN3c108RegistryISsSt10unique_ptrINS_13C10FlagParserESt14default_deleteIS2_EEJRKSsEE8RegisterES7_St8functionIFS5_S7_EENS_16RegistryPriorityE
   fun:_ZN3c1010RegistererISsSt10unique_ptrINS_13C10FlagParserESt14default_deleteIS2_EEJRKSsEEC1ES7_PNS_8RegistryISsS5_JS7_EEESt8functionIFS5_S7_EES7_
   fun:_GLOBAL__sub_I_numa.cpp
   fun:call_init.part.0
   fun:call_init
   fun:_dl_init
   obj:/usr/lib/x86_64-linux-gnu/ld-linux-x86-64.so.2
}
{
   <insert_a_suppression_name_here>
   Memcheck:Leak
   match-leak-kinds: reachable
   fun:_Znwm
   fun:_ZNSt8__detail9_Map_baseISsSt4pairIKSsSsESaIS3_ENS_10_Select1stESt8equal_toISsESt4hashISsENS_18_Mod_range_hashingENS_20_Default_ranged_hashENS_20_Prime_rehash_policyENS_17_Hashtable_traitsILb1ELb0ELb1EEELb1EEixERS2_
   fun:_ZN3c1010RegistererISsSt10unique_ptrINS_13C10FlagParserESt14default_deleteIS2_EEJRKSsEEC1ES7_PNS_8RegistryISsS5_JS7_EEESt8functionIFS5_S7_EES7_
   fun:_GLOBAL__sub_I_numa.cpp
   fun:call_init.part.0
   fun:call_init
   fun:_dl_init
   obj:/usr/lib/x86_64-linux-gnu/ld-linux-x86-64.so.2
}
{
   <insert_a_suppression_name_here>
   Memcheck:Leak
   match-leak-kinds: reachable
   fun:_Znwm
   fun:_ZNSt8__detail9_Map_baseISsSt4pairIKSsN3c1016RegistryPriorityEESaIS5_ENS_10_Select1stESt8equal_toISsESt4hashISsENS_18_Mod_range_hashingENS_20_Default_ranged_hashENS_20_Prime_rehash_policyENS_17_Hashtable_traitsILb1ELb0ELb1EEELb1EEixERS2_
   fun:_ZN3c108RegistryISsSt10shared_ptrINS_18TaskThreadPoolBaseEEJiibEE8RegisterERKSsSt8functionIFS3_iibEENS_16RegistryPriorityE
   fun:_ZN3c1010RegistererISsSt10shared_ptrINS_18TaskThreadPoolBaseEEJiibEEC1ERKSsPNS_8RegistryISsS3_JiibEEESt8functionIFS3_iibEES6_
   fun:_GLOBAL__sub_I_ParallelThreadPoolNative.cpp
   fun:call_init.part.0
   fun:call_init
   fun:_dl_init
   obj:/usr/lib/x86_64-linux-gnu/ld-linux-x86-64.so.2
}
{
   <insert_a_suppression_name_here>
   Memcheck:Leak
   match-leak-kinds: reachable
   fun:_Znwm
   fun:_ZNSt8__detail9_Map_baseISsSt4pairIKSsSsESaIS3_ENS_10_Select1stESt8equal_toISsESt4hashISsENS_18_Mod_range_hashingENS_20_Default_ranged_hashENS_20_Prime_rehash_policyENS_17_Hashtable_traitsILb1ELb0ELb1EEELb1EEixERS2_
   fun:_ZN3c1010RegistererISsSt10shared_ptrINS_18TaskThreadPoolBaseEEJiibEEC1ERKSsPNS_8RegistryISsS3_JiibEEESt8functionIFS3_iibEES6_
   fun:_GLOBAL__sub_I_ParallelThreadPoolNative.cpp
   fun:call_init.part.0
   fun:call_init
   fun:_dl_init
   obj:/usr/lib/x86_64-linux-gnu/ld-linux-x86-64.so.2
}
{
   <insert_a_suppression_name_here>
   Memcheck:Leak
   match-leak-kinds: reachable
   fun:_Znwm
   fun:_ZNSt8__detail9_Map_baseISsSt4pairIKSsN3c1016RegistryPriorityEESaIS5_ENS_10_Select1stESt8equal_toISsESt4hashISsENS_18_Mod_range_hashingENS_20_Default_ranged_hashENS_20_Prime_rehash_policyENS_17_Hashtable_traitsILb1ELb0ELb1EEELb1EEixERS2_
   fun:_ZN3c108RegistryISsSt10unique_ptrINS_13C10FlagParserESt14default_deleteIS2_EEJRKSsEE8RegisterES7_St8functionIFS5_S7_EENS_16RegistryPriorityE
   fun:_ZN3c1010RegistererISsSt10unique_ptrINS_13C10FlagParserESt14default_deleteIS2_EEJRKSsEEC1ES7_PNS_8RegistryISsS5_JS7_EEESt8functionIFS5_S7_EES7_
   fun:_GLOBAL__sub_I_interpreter.cpp
   fun:call_init.part.0
   fun:call_init
   fun:_dl_init
   obj:/usr/lib/x86_64-linux-gnu/ld-linux-x86-64.so.2
}
{
   <insert_a_suppression_name_here>
   Memcheck:Leak
   match-leak-kinds: reachable
   fun:_Znwm
   fun:_ZNSt8__detail9_Map_baseISsSt4pairIKSsSsESaIS3_ENS_10_Select1stESt8equal_toISsESt4hashISsENS_18_Mod_range_hashingENS_20_Default_ranged_hashENS_20_Prime_rehash_policyENS_17_Hashtable_traitsILb1ELb0ELb1EEELb1EEixERS2_
   fun:_ZN3c1010RegistererISsSt10unique_ptrINS_13C10FlagParserESt14default_deleteIS2_EEJRKSsEEC1ES7_PNS_8RegistryISsS5_JS7_EEESt8functionIFS5_S7_EES7_
   fun:_GLOBAL__sub_I_interpreter.cpp
   fun:call_init.part.0
   fun:call_init
   fun:_dl_init
   obj:/usr/lib/x86_64-linux-gnu/ld-linux-x86-64.so.2
}
{
   <insert_a_suppression_name_here>
   Memcheck:Leak
   match-leak-kinds: reachable
   fun:_Znwm
   fun:_ZNSt8__detail9_Map_baseISsSt4pairIKSsN3c1016RegistryPriorityEESaIS5_ENS_10_Select1stESt8equal_toISsESt4hashISsENS_18_Mod_range_hashingENS_20_Default_ranged_hashENS_20_Prime_rehash_policyENS_17_Hashtable_traitsILb1ELb0ELb1EEELb1EEixERS2_
   fun:_ZN3c108RegistryISsSt10unique_ptrIN5torch3jit17SROperatorFunctorESt14default_deleteIS4_EEJEE8RegisterERKSsSt8functionIFS7_vEENS_16RegistryPriorityE
   fun:_ZN3c1010RegistererISsSt10unique_ptrIN5torch3jit17SROperatorFunctorESt14default_deleteIS4_EEJEEC2ERKSsPNS_8RegistryISsS7_JEEESt8functionIFS7_vEESA_.constprop.0
   fun:_Z41__static_initialization_and_destruction_0ii.constprop.0
   fun:call_init.part.0
   fun:call_init
   fun:_dl_init
   obj:/usr/lib/x86_64-linux-gnu/ld-linux-x86-64.so.2
}
{
   <insert_a_suppression_name_here>
   Memcheck:Leak
   match-leak-kinds: reachable
   fun:_Znwm
   fun:_ZNSt8__detail9_Map_baseISsSt4pairIKSsSsESaIS3_ENS_10_Select1stESt8equal_toISsESt4hashISsENS_18_Mod_range_hashingENS_20_Default_ranged_hashENS_20_Prime_rehash_policyENS_17_Hashtable_traitsILb1ELb0ELb1EEELb1EEixERS2_
   fun:_ZN3c1010RegistererISsSt10unique_ptrIN5torch3jit17SROperatorFunctorESt14default_deleteIS4_EEJEEC2ERKSsPNS_8RegistryISsS7_JEEESt8functionIFS7_vEESA_.constprop.0
   fun:_Z41__static_initialization_and_destruction_0ii.constprop.0
   fun:call_init.part.0
   fun:call_init
   fun:_dl_init
   obj:/usr/lib/x86_64-linux-gnu/ld-linux-x86-64.so.2
}
{
   <insert_a_suppression_name_here>
   Memcheck:Leak
   match-leak-kinds: reachable
   fun:_Znwm
   fun:_ZNSt8__detail9_Map_baseISsSt4pairIKSsN3c1016RegistryPriorityEESaIS5_ENS_10_Select1stESt8equal_toISsESt4hashISsENS_18_Mod_range_hashingENS_20_Default_ranged_hashENS_20_Prime_rehash_policyENS_17_Hashtable_traitsILb1ELb0ELb1EEELb1EEixERS2_
   fun:_ZN3c108RegistryISsSt10unique_ptrINS_13C10FlagParserESt14default_deleteIS2_EEJRKSsEE8RegisterES7_St8functionIFS5_S7_EENS_16RegistryPriorityE
   fun:_ZN3c1010RegistererISsSt10unique_ptrINS_13C10FlagParserESt14default_deleteIS2_EEJRKSsEEC1ES7_PNS_8RegistryISsS5_JS7_EEESt8functionIFS5_S7_EES7_
   fun:_GLOBAL__sub_I_impl.cpp
   fun:call_init.part.0
   fun:call_init
   fun:_dl_init
   obj:/usr/lib/x86_64-linux-gnu/ld-linux-x86-64.so.2
}
{
   <insert_a_suppression_name_here>
   Memcheck:Leak
   match-leak-kinds: reachable
   fun:_Znwm
   fun:_ZNSt8__detail9_Map_baseISsSt4pairIKSsSsESaIS3_ENS_10_Select1stESt8equal_toISsESt4hashISsENS_18_Mod_range_hashingENS_20_Default_ranged_hashENS_20_Prime_rehash_policyENS_17_Hashtable_traitsILb1ELb0ELb1EEELb1EEixERS2_
   fun:_ZN3c1010RegistererISsSt10unique_ptrINS_13C10FlagParserESt14default_deleteIS2_EEJRKSsEEC1ES7_PNS_8RegistryISsS5_JS7_EEESt8functionIFS5_S7_EES7_
   fun:_GLOBAL__sub_I_impl.cpp
   fun:call_init.part.0
   fun:call_init
   fun:_dl_init
   obj:/usr/lib/x86_64-linux-gnu/ld-linux-x86-64.so.2
}
{
   <insert_a_suppression_name_here>
   Memcheck:Leak
   match-leak-kinds: reachable
   fun:_Znwm
   fun:_ZNSt8__detail9_Map_baseISsSt4pairIKSsN3c1016RegistryPriorityEESaIS5_ENS_10_Select1stESt8equal_toISsESt4hashISsENS_18_Mod_range_hashingENS_20_Default_ranged_hashENS_20_Prime_rehash_policyENS_17_Hashtable_traitsILb1ELb0ELb1EEELb1EEixERS2_
   fun:_ZN3c1010RegistererISsSt10unique_ptrIN5torch3jit17SROperatorFunctorESt14default_deleteIS4_EEJEEC2ERKSsPNS_8RegistryISsS7_JEEESt8functionIFS7_vEESA_.constprop.0
   fun:_Z41__static_initialization_and_destruction_0ii.constprop.0
   fun:call_init.part.0
   fun:call_init
   fun:_dl_init
   obj:/usr/lib/x86_64-linux-gnu/ld-linux-x86-64.so.2
}
{
   <insert_a_suppression_name_here>
   Memcheck:Leak
   match-leak-kinds: reachable
   fun:_Znwm
   fun:_ZNSt8__detail9_Map_baseISsSt4pairIKSsN3c1016RegistryPriorityEESaIS5_ENS_10_Select1stESt8equal_toISsESt4hashISsENS_18_Mod_range_hashingENS_20_Default_ranged_hashENS_20_Prime_rehash_policyENS_17_Hashtable_traitsILb1ELb0ELb1EEELb1EEixERS2_
   fun:_ZN3c108RegistryISsSt10unique_ptrINS_13C10FlagParserESt14default_deleteIS2_EEJRKSsEE8RegisterES7_St8functionIFS5_S7_EENS_16RegistryPriorityE
   fun:_ZN3c1010RegistererISsSt10unique_ptrINS_13C10FlagParserESt14default_deleteIS2_EEJRKSsEEC1ES7_PNS_8RegistryISsS5_JS7_EEESt8functionIFS5_S7_EES7_
   fun:_GLOBAL__sub_I_passes.cpp
   fun:call_init.part.0
   fun:call_init
   fun:_dl_init
   obj:/usr/lib/x86_64-linux-gnu/ld-linux-x86-64.so.2
}
{
   <insert_a_suppression_name_here>
   Memcheck:Leak
   match-leak-kinds: reachable
   fun:_Znwm
   fun:_ZNSt8__detail9_Map_baseISsSt4pairIKSsSsESaIS3_ENS_10_Select1stESt8equal_toISsESt4hashISsENS_18_Mod_range_hashingENS_20_Default_ranged_hashENS_20_Prime_rehash_policyENS_17_Hashtable_traitsILb1ELb0ELb1EEELb1EEixERS2_
   fun:_ZN3c1010RegistererISsSt10unique_ptrINS_13C10FlagParserESt14default_deleteIS2_EEJRKSsEEC1ES7_PNS_8RegistryISsS5_JS7_EEESt8functionIFS5_S7_EES7_
   fun:_GLOBAL__sub_I_passes.cpp
   fun:call_init.part.0
   fun:call_init
   fun:_dl_init
   obj:/usr/lib/x86_64-linux-gnu/ld-linux-x86-64.so.2
}
{
   <insert_a_suppression_name_here>
   Memcheck:Leak
   match-leak-kinds: reachable
   fun:_Znwm
   fun:_ZNSt8__detail9_Map_baseISsSt4pairIKSsN3c1016RegistryPriorityEESaIS5_ENS_10_Select1stESt8equal_toISsESt4hashISsENS_18_Mod_range_hashingENS_20_Default_ranged_hashENS_20_Prime_rehash_policyENS_17_Hashtable_traitsILb1ELb0ELb1EEELb1EEixERS2_
   fun:_ZN3c108RegistryISsSt10unique_ptrINS_13C10FlagParserESt14default_deleteIS2_EEJRKSsEE8RegisterES7_St8functionIFS5_S7_EENS_16RegistryPriorityE
   fun:_ZN3c1010RegistererISsSt10unique_ptrINS_13C10FlagParserESt14default_deleteIS2_EEJRKSsEEC1ES7_PNS_8RegistryISsS5_JS7_EEESt8functionIFS5_S7_EES7_
   fun:_GLOBAL__sub_I_llvm_codegen.cpp
   fun:call_init.part.0
   fun:call_init
   fun:_dl_init
   obj:/usr/lib/x86_64-linux-gnu/ld-linux-x86-64.so.2
}
{
   <insert_a_suppression_name_here>
   Memcheck:Leak
   match-leak-kinds: reachable
   fun:_Znwm
   fun:_ZNSt8__detail9_Map_baseISsSt4pairIKSsSsESaIS3_ENS_10_Select1stESt8equal_toISsESt4hashISsENS_18_Mod_range_hashingENS_20_Default_ranged_hashENS_20_Prime_rehash_policyENS_17_Hashtable_traitsILb1ELb0ELb1EEELb1EEixERS2_
   fun:_ZN3c1010RegistererISsSt10unique_ptrINS_13C10FlagParserESt14default_deleteIS2_EEJRKSsEEC1ES7_PNS_8RegistryISsS5_JS7_EEESt8functionIFS5_S7_EES7_
   fun:_GLOBAL__sub_I_llvm_codegen.cpp
   fun:call_init.part.0
   fun:call_init
   fun:_dl_init
   obj:/usr/lib/x86_64-linux-gnu/ld-linux-x86-64.so.2
}
{
   <insert_a_suppression_name_here>
   Memcheck:Leak
   match-leak-kinds: reachable
   fun:_Znwm
   fun:_ZNSt8__detail9_Map_baseISsSt4pairIKSsN3c1016RegistryPriorityEESaIS5_ENS_10_Select1stESt8equal_toISsESt4hashISsENS_18_Mod_range_hashingENS_20_Default_ranged_hashENS_20_Prime_rehash_policyENS_17_Hashtable_traitsILb1ELb0ELb1EEELb1EEixERS2_
   fun:_ZN3c108RegistryISsSt10unique_ptrINS_13C10FlagParserESt14default_deleteIS2_EEJRKSsEE8RegisterES7_St8functionIFS5_S7_EENS_16RegistryPriorityE
   fun:_ZN3c1010RegistererISsSt10unique_ptrINS_13C10FlagParserESt14default_deleteIS2_EEJRKSsEEC1ES7_PNS_8RegistryISsS5_JS7_EEESt8functionIFS5_S7_EES7_
   fun:_GLOBAL__sub_I_ir.cpp
   fun:call_init.part.0
   fun:call_init
   fun:_dl_init
   obj:/usr/lib/x86_64-linux-gnu/ld-linux-x86-64.so.2
}
{
   <insert_a_suppression_name_here>
   Memcheck:Leak
   match-leak-kinds: reachable
   fun:_Znwm
   fun:_ZNSt8__detail9_Map_baseISsSt4pairIKSsSsESaIS3_ENS_10_Select1stESt8equal_toISsESt4hashISsENS_18_Mod_range_hashingENS_20_Default_ranged_hashENS_20_Prime_rehash_policyENS_17_Hashtable_traitsILb1ELb0ELb1EEELb1EEixERS2_
   fun:_ZN3c1010RegistererISsSt10unique_ptrINS_13C10FlagParserESt14default_deleteIS2_EEJRKSsEEC1ES7_PNS_8RegistryISsS5_JS7_EEESt8functionIFS5_S7_EES7_
   fun:_GLOBAL__sub_I_ir.cpp
   fun:call_init.part.0
   fun:call_init
   fun:_dl_init
   obj:/usr/lib/x86_64-linux-gnu/ld-linux-x86-64.so.2
}
{
   <insert_a_suppression_name_here>
   Memcheck:Leak
   match-leak-kinds: reachable
   fun:_Znwm
   fun:_ZNSt8__detail9_Map_baseISsSt4pairIKSsN3c1016RegistryPriorityEESaIS5_ENS_10_Select1stESt8equal_toISsESt4hashISsENS_18_Mod_range_hashingENS_20_Default_ranged_hashENS_20_Prime_rehash_policyENS_17_Hashtable_traitsILb1ELb0ELb1EEELb1EEixERS2_
   fun:_ZN3c108RegistryISsSt10unique_ptrINS_13C10FlagParserESt14default_deleteIS2_EEJRKSsEE8RegisterES7_St8functionIFS5_S7_EENS_16RegistryPriorityE
   fun:_ZN3c1010RegistererISsSt10unique_ptrINS_13C10FlagParserESt14default_deleteIS2_EEJRKSsEEC1ES7_PNS_8RegistryISsS5_JS7_EEESt8functionIFS5_S7_EES7_
   fun:_GLOBAL__sub_I_shape.cpp
   fun:call_init.part.0
   fun:call_init
   fun:_dl_init
   obj:/usr/lib/x86_64-linux-gnu/ld-linux-x86-64.so.2
}
{
   <insert_a_suppression_name_here>
   Memcheck:Leak
   match-leak-kinds: reachable
   fun:_Znwm
   fun:_ZNSt8__detail9_Map_baseISsSt4pairIKSsSsESaIS3_ENS_10_Select1stESt8equal_toISsESt4hashISsENS_18_Mod_range_hashingENS_20_Default_ranged_hashENS_20_Prime_rehash_policyENS_17_Hashtable_traitsILb1ELb0ELb1EEELb1EEixERS2_
   fun:_ZN3c1010RegistererISsSt10unique_ptrINS_13C10FlagParserESt14default_deleteIS2_EEJRKSsEEC1ES7_PNS_8RegistryISsS5_JS7_EEESt8functionIFS5_S7_EES7_
   fun:_GLOBAL__sub_I_shape.cpp
   fun:call_init.part.0
   fun:call_init
   fun:_dl_init
   obj:/usr/lib/x86_64-linux-gnu/ld-linux-x86-64.so.2
}
{
   <insert_a_suppression_name_here>
   Memcheck:Leak
   match-leak-kinds: reachable
   fun:_Znwm
   fun:_ZNSt8__detail9_Map_baseISsSt4pairIKSsN3c1016RegistryPriorityEESaIS5_ENS_10_Select1stESt8equal_toISsESt4hashISsENS_18_Mod_range_hashingENS_20_Default_ranged_hashENS_20_Prime_rehash_policyENS_17_Hashtable_traitsILb1ELb0ELb1EEELb1EEixERS2_
   fun:_ZN3c108RegistryISsSt10unique_ptrINS_13C10FlagParserESt14default_deleteIS2_EEJRKSsEE8RegisterES7_St8functionIFS5_S7_EENS_16RegistryPriorityE
   fun:_ZN3c1010RegistererISsSt10unique_ptrINS_13C10FlagParserESt14default_deleteIS2_EEJRKSsEEC1ES7_PNS_8RegistryISsS5_JS7_EEESt8functionIFS5_S7_EES7_
   fun:_GLOBAL__sub_I_interface.cpp
   fun:call_init.part.0
   fun:call_init
   fun:_dl_init
   obj:/usr/lib/x86_64-linux-gnu/ld-linux-x86-64.so.2
}
{
   <insert_a_suppression_name_here>
   Memcheck:Leak
   match-leak-kinds: reachable
   fun:_Znwm
   fun:_ZNSt8__detail9_Map_baseISsSt4pairIKSsSsESaIS3_ENS_10_Select1stESt8equal_toISsESt4hashISsENS_18_Mod_range_hashingENS_20_Default_ranged_hashENS_20_Prime_rehash_policyENS_17_Hashtable_traitsILb1ELb0ELb1EEELb1EEixERS2_
   fun:_ZN3c1010RegistererISsSt10unique_ptrINS_13C10FlagParserESt14default_deleteIS2_EEJRKSsEEC1ES7_PNS_8RegistryISsS5_JS7_EEESt8functionIFS5_S7_EES7_
   fun:_GLOBAL__sub_I_interface.cpp
   fun:call_init.part.0
   fun:call_init
   fun:_dl_init
   obj:/usr/lib/x86_64-linux-gnu/ld-linux-x86-64.so.2
}
{
   <insert_a_suppression_name_here>
   Memcheck:Leak
   match-leak-kinds: reachable
   fun:_Znwm
   fun:_ZNSt8__detail9_Map_baseISsSt4pairIKSsN3c1016RegistryPriorityEESaIS5_ENS_10_Select1stESt8equal_toISsESt4hashISsENS_18_Mod_range_hashingENS_20_Default_ranged_hashENS_20_Prime_rehash_policyENS_17_Hashtable_traitsILb1ELb0ELb1EEELb1EEixERS2_
   fun:_ZN3c108RegistryISsSt10unique_ptrINS_13C10FlagParserESt14default_deleteIS2_EEJRKSsEE8RegisterES7_St8functionIFS5_S7_EENS_16RegistryPriorityE
   fun:_ZN3c1010RegistererISsSt10unique_ptrINS_13C10FlagParserESt14default_deleteIS2_EEJRKSsEEC1ES7_PNS_8RegistryISsS5_JS7_EEESt8functionIFS5_S7_EES7_
   fun:_GLOBAL__sub_I_config.cpp
   fun:call_init.part.0
   fun:call_init
   fun:_dl_init
   obj:/usr/lib/x86_64-linux-gnu/ld-linux-x86-64.so.2
}
{
   <insert_a_suppression_name_here>
   Memcheck:Leak
   match-leak-kinds: reachable
   fun:_Znwm
   fun:_ZNSt8__detail9_Map_baseISsSt4pairIKSsSsESaIS3_ENS_10_Select1stESt8equal_toISsESt4hashISsENS_18_Mod_range_hashingENS_20_Default_ranged_hashENS_20_Prime_rehash_policyENS_17_Hashtable_traitsILb1ELb0ELb1EEELb1EEixERS2_
   fun:_ZN3c1010RegistererISsSt10unique_ptrINS_13C10FlagParserESt14default_deleteIS2_EEJRKSsEEC1ES7_PNS_8RegistryISsS5_JS7_EEESt8functionIFS5_S7_EES7_
   fun:_GLOBAL__sub_I_config.cpp
   fun:call_init.part.0
   fun:call_init
   fun:_dl_init
   obj:/usr/lib/x86_64-linux-gnu/ld-linux-x86-64.so.2
}
{
   <insert_a_suppression_name_here>
   Memcheck:Leak
   match-leak-kinds: reachable
   fun:_Znwm
   fun:_ZNSt8__detail9_Map_baseISsSt4pairIKSsN3c1016RegistryPriorityEESaIS5_ENS_10_Select1stESt8equal_toISsESt4hashISsENS_18_Mod_range_hashingENS_20_Default_ranged_hashENS_20_Prime_rehash_policyENS_17_Hashtable_traitsILb1ELb0ELb1EEELb1EEixERS2_
   fun:_ZN3c108RegistryISsSt10shared_ptrIN4gloo9transport6DeviceEEJRKSsS7_EE8RegisterES7_St8functionIFS5_S7_S7_EENS_16RegistryPriorityE
   fun:_ZN3c1010RegistererISsSt10shared_ptrIN4gloo9transport6DeviceEEJRKSsS7_EEC1ES7_PNS_8RegistryISsS5_JS7_S7_EEESt8functionIFS5_S7_S7_EES7_
   fun:_GLOBAL__sub_I_GlooDeviceFactory.cpp
   fun:call_init.part.0
   fun:call_init
   fun:_dl_init
   obj:/usr/lib/x86_64-linux-gnu/ld-linux-x86-64.so.2
}
{
   <insert_a_suppression_name_here>
   Memcheck:Leak
   match-leak-kinds: reachable
   fun:_Znwm
   fun:_ZNSt8__detail9_Map_baseISsSt4pairIKSsSsESaIS3_ENS_10_Select1stESt8equal_toISsESt4hashISsENS_18_Mod_range_hashingENS_20_Default_ranged_hashENS_20_Prime_rehash_policyENS_17_Hashtable_traitsILb1ELb0ELb1EEELb1EEixERS2_
   fun:_ZN3c1010RegistererISsSt10shared_ptrIN4gloo9transport6DeviceEEJRKSsS7_EEC1ES7_PNS_8RegistryISsS5_JS7_S7_EEESt8functionIFS5_S7_S7_EES7_
   fun:_GLOBAL__sub_I_GlooDeviceFactory.cpp
   fun:call_init.part.0
   fun:call_init
   fun:_dl_init
   obj:/usr/lib/x86_64-linux-gnu/ld-linux-x86-64.so.2
}
{
   <insert_a_suppression_name_here>
   Memcheck:Leak
   match-leak-kinds: reachable
   fun:_Znwm
   fun:_ZN3c1010RegistererINS_10DeviceTypeESt10unique_ptrIN4c10d5TimerESt14default_deleteIS4_EEJNS_6DeviceEEEC1ERKS1_PNS_8RegistryIS1_S7_JS8_EEESt8functionIFS7_S8_EERKSs
   fun:_GLOBAL__sub_I_reducer.cpp
   fun:call_init.part.0
   fun:call_init
   fun:_dl_init
   obj:/usr/lib/x86_64-linux-gnu/ld-linux-x86-64.so.2
}
{
   <insert_a_suppression_name_here>
   Memcheck:Leak
   match-leak-kinds: reachable
   fun:_Znwm
   fun:_ZNSt8__detail9_Map_baseISsSt4pairIKSsN3c1016RegistryPriorityEESaIS5_ENS_10_Select1stESt8equal_toISsESt4hashISsENS_18_Mod_range_hashingENS_20_Default_ranged_hashENS_20_Prime_rehash_policyENS_17_Hashtable_traitsILb1ELb0ELb1EEELb1EEixERS2_
   fun:_ZN3c108RegistryISsSt10unique_ptrIN5torch11distributed3rpc21TransportRegistrationESt14default_deleteIS5_EEJEE8RegisterERKSsSt8functionIFS8_vEENS_16RegistryPriorityE
   fun:_ZN3c1010RegistererISsSt10unique_ptrIN5torch11distributed3rpc21TransportRegistrationESt14default_deleteIS5_EEJEEC1ERKSsPNS_8RegistryISsS8_JEEESt8functionIFS8_vEESB_
   fun:_Z41__static_initialization_and_destruction_0ii.constprop.0
   fun:call_init.part.0
   fun:call_init
   fun:_dl_init
   obj:/usr/lib/x86_64-linux-gnu/ld-linux-x86-64.so.2
}
{
   <insert_a_suppression_name_here>
   Memcheck:Leak
   match-leak-kinds: reachable
   fun:_Znwm
   fun:_ZNSt8__detail9_Map_baseISsSt4pairIKSsSsESaIS3_ENS_10_Select1stESt8equal_toISsESt4hashISsENS_18_Mod_range_hashingENS_20_Default_ranged_hashENS_20_Prime_rehash_policyENS_17_Hashtable_traitsILb1ELb0ELb1EEELb1EEixERS2_
   fun:_ZN3c1010RegistererISsSt10unique_ptrIN5torch11distributed3rpc21TransportRegistrationESt14default_deleteIS5_EEJEEC1ERKSsPNS_8RegistryISsS8_JEEESt8functionIFS8_vEESB_
   fun:_Z41__static_initialization_and_destruction_0ii.constprop.0
   fun:call_init.part.0
   fun:call_init
   fun:_dl_init
   obj:/usr/lib/x86_64-linux-gnu/ld-linux-x86-64.so.2
}
{
   <insert_a_suppression_name_here>
   Memcheck:Leak
   match-leak-kinds: reachable
   fun:_Znwm
   fun:_ZNSt8__detail9_Map_baseISsSt4pairIKSsN3c1016RegistryPriorityEESaIS5_ENS_10_Select1stESt8equal_toISsESt4hashISsENS_18_Mod_range_hashingENS_20_Default_ranged_hashENS_20_Prime_rehash_policyENS_17_Hashtable_traitsILb1ELb0ELb1EEELb1EEixERS2_
   fun:_ZN3c108RegistryISsSt10unique_ptrIN5torch11distributed3rpc19ChannelRegistrationESt14default_deleteIS5_EEJEE8RegisterERKSsSt8functionIFS8_vEENS_16RegistryPriorityE
   fun:_ZN3c1010RegistererISsSt10unique_ptrIN5torch11distributed3rpc19ChannelRegistrationESt14default_deleteIS5_EEJEEC1ERKSsPNS_8RegistryISsS8_JEEESt8functionIFS8_vEESB_
   fun:_Z41__static_initialization_and_destruction_0ii.constprop.0
   fun:call_init.part.0
   fun:call_init
   fun:_dl_init
   obj:/usr/lib/x86_64-linux-gnu/ld-linux-x86-64.so.2
}
{
   <insert_a_suppression_name_here>
   Memcheck:Leak
   match-leak-kinds: reachable
   fun:_Znwm
   fun:_ZNSt8__detail9_Map_baseISsSt4pairIKSsSsESaIS3_ENS_10_Select1stESt8equal_toISsESt4hashISsENS_18_Mod_range_hashingENS_20_Default_ranged_hashENS_20_Prime_rehash_policyENS_17_Hashtable_traitsILb1ELb0ELb1EEELb1EEixERS2_
   fun:_ZN3c1010RegistererISsSt10unique_ptrIN5torch11distributed3rpc19ChannelRegistrationESt14default_deleteIS5_EEJEEC1ERKSsPNS_8RegistryISsS8_JEEESt8functionIFS8_vEESB_
   fun:_Z41__static_initialization_and_destruction_0ii.constprop.0
   fun:call_init.part.0
   fun:call_init
   fun:_dl_init
   obj:/usr/lib/x86_64-linux-gnu/ld-linux-x86-64.so.2
}
{
   <insert_a_suppression_name_here>
   Memcheck:Leak
   match-leak-kinds: reachable
   fun:malloc
   fun:_ZN4llvm11safe_mallocEm
   fun:_ZN4llvm9StringMapIPNS_2cl6OptionENS_15MallocAllocatorEE11try_emplaceIIS3_EEESt4pairINS_17StringMapIteratorIS3_EEbENS_9StringRefEDpOT_
   fun:_ZN12_GLOBAL__N_117CommandLineParser9addOptionEPN4llvm2cl6OptionEPNS2_10SubCommandE.constprop.393
   fun:_ZN12_GLOBAL__N_117CommandLineParser9addOptionEPN4llvm2cl6OptionEb
   fun:_ZN4llvm2cl6Option11addArgumentEv
   fun:_ZN4llvm2cl3optIbLb1ENS0_6parserIbEEEC1IIA16_cNS0_13LocationClassIbEENS0_12OptionHiddenENS0_4descEEEEDpRKT_
   fun:_GLOBAL__sub_I_Dominators.cpp
   fun:call_init.part.0
   fun:call_init
   fun:_dl_init
   obj:/usr/lib/x86_64-linux-gnu/ld-linux-x86-64.so.2
}
{
   <insert_a_suppression_name_here>
   Memcheck:Leak
   match-leak-kinds: reachable
   fun:malloc
   fun:_ZN4llvm11safe_mallocEm
   fun:_ZN4llvm9StringMapIPNS_2cl6OptionENS_15MallocAllocatorEE11try_emplaceIIS3_EEESt4pairINS_17StringMapIteratorIS3_EEbENS_9StringRefEDpOT_
   fun:_ZN12_GLOBAL__N_117CommandLineParser9addOptionEPN4llvm2cl6OptionEPNS2_10SubCommandE.constprop.393
   fun:_ZN12_GLOBAL__N_117CommandLineParser9addOptionEPN4llvm2cl6OptionEb
   fun:_ZN4llvm2cl6Option11addArgumentEv
   fun:_Z41__static_initialization_and_destruction_0ii.constprop.610
   fun:call_init.part.0
   fun:call_init
   fun:_dl_init
   obj:/usr/lib/x86_64-linux-gnu/ld-linux-x86-64.so.2
}
{
   <insert_a_suppression_name_here>
   Memcheck:Leak
   match-leak-kinds: reachable
   fun:malloc
   fun:_ZN4llvm11safe_mallocEm
   fun:_ZN4llvm9StringMapIPNS_2cl6OptionENS_15MallocAllocatorEE11try_emplaceIIS3_EEESt4pairINS_17StringMapIteratorIS3_EEbENS_9StringRefEDpOT_
   fun:_ZN12_GLOBAL__N_117CommandLineParser9addOptionEPN4llvm2cl6OptionEPNS2_10SubCommandE.constprop.393
   fun:_ZN12_GLOBAL__N_117CommandLineParser9addOptionEPN4llvm2cl6OptionEb
   fun:_ZN4llvm2cl6Option11addArgumentEv
   fun:_ZN4llvm2cl3optIbLb0ENS0_6parserIbEEEC1IIA16_cNS0_12OptionHiddenENS0_11initializerIbEEEEEDpRKT_
   fun:_GLOBAL__sub_I_AliasAnalysis.cpp
   fun:call_init.part.0
   fun:call_init
   fun:_dl_init
   obj:/usr/lib/x86_64-linux-gnu/ld-linux-x86-64.so.2
}
{
   <insert_a_suppression_name_here>
   Memcheck:Leak
   match-leak-kinds: reachable
   fun:malloc
   fun:_ZN4llvm11safe_mallocEm
   fun:_ZN4llvm9StringMapIPNS_2cl6OptionENS_15MallocAllocatorEE11try_emplaceIIS3_EEESt4pairINS_17StringMapIteratorIS3_EEbENS_9StringRefEDpOT_
   fun:_ZN12_GLOBAL__N_117CommandLineParser9addOptionEPN4llvm2cl6OptionEPNS2_10SubCommandE.constprop.393
   fun:_ZN12_GLOBAL__N_117CommandLineParser9addOptionEPN4llvm2cl6OptionEb
   fun:_ZN4llvm2cl6Option11addArgumentEv
   fun:_GLOBAL__sub_I_X86Subtarget.cpp
   fun:call_init.part.0
   fun:call_init
   fun:_dl_init
   obj:/usr/lib/x86_64-linux-gnu/ld-linux-x86-64.so.2
}
{
   <insert_a_suppression_name_here>
   Memcheck:Leak
   match-leak-kinds: reachable
   fun:malloc
   fun:_ZN4llvm11safe_mallocEm
   fun:_ZN4llvm9StringMapIPNS_2cl6OptionENS_15MallocAllocatorEE11try_emplaceIIS3_EEESt4pairINS_17StringMapIteratorIS3_EEbENS_9StringRefEDpOT_
   fun:_ZN12_GLOBAL__N_117CommandLineParser9addOptionEPN4llvm2cl6OptionEPNS2_10SubCommandE.constprop.393
   fun:_ZN12_GLOBAL__N_117CommandLineParser9addOptionEPN4llvm2cl6OptionEb
   fun:_ZN4llvm2cl6Option11addArgumentEv
   fun:_ZN4llvm2cl3optIbLb0ENS0_6parserIbEEEC1IIA16_cNS0_4descENS0_11initializerIbEEEEEDpRKT_
   fun:_GLOBAL__sub_I_AsmPrinter.cpp
   fun:call_init.part.0
   fun:call_init
   fun:_dl_init
   obj:/usr/lib/x86_64-linux-gnu/ld-linux-x86-64.so.2
}
{
   <insert_a_suppression_name_here>
   Memcheck:Leak
   match-leak-kinds: reachable
   fun:malloc
   fun:_ZN4llvm11safe_mallocEm
   fun:_ZN4llvm9StringMapIPNS_2cl6OptionENS_15MallocAllocatorEE11try_emplaceIIS3_EEESt4pairINS_17StringMapIteratorIS3_EEbENS_9StringRefEDpOT_
   fun:_ZN12_GLOBAL__N_117CommandLineParser9addOptionEPN4llvm2cl6OptionEPNS2_10SubCommandE.constprop.393
   fun:_ZN12_GLOBAL__N_117CommandLineParser9addOptionEPN4llvm2cl6OptionEb
   fun:_ZN4llvm2cl6Option11addArgumentEv
   fun:_GLOBAL__sub_I_DFAPacketizer.cpp
   fun:call_init.part.0
   fun:call_init
   fun:_dl_init
   obj:/usr/lib/x86_64-linux-gnu/ld-linux-x86-64.so.2
}
{
   <insert_a_suppression_name_here>
   Memcheck:Leak
   match-leak-kinds: reachable
   fun:malloc
   fun:_ZN4llvm11safe_mallocEm
   fun:_ZN4llvm9StringMapIPNS_2cl6OptionENS_15MallocAllocatorEE11try_emplaceIIS3_EEESt4pairINS_17StringMapIteratorIS3_EEbENS_9StringRefEDpOT_
   fun:_ZN12_GLOBAL__N_117CommandLineParser9addOptionEPN4llvm2cl6OptionEPNS2_10SubCommandE.constprop.393
   fun:_ZN12_GLOBAL__N_117CommandLineParser9addOptionEPN4llvm2cl6OptionEb
   fun:_ZN4llvm2cl6Option11addArgumentEv
   fun:_GLOBAL__sub_I_RegisterClassInfo.cpp
   fun:call_init.part.0
   fun:call_init
   fun:_dl_init
   obj:/usr/lib/x86_64-linux-gnu/ld-linux-x86-64.so.2
}
{
   <insert_a_suppression_name_here>
   Memcheck:Leak
   match-leak-kinds: reachable
   fun:malloc
   fun:_ZN4llvm11safe_mallocEm
   fun:_ZN4llvm9StringMapIPNS_2cl6OptionENS_15MallocAllocatorEE11try_emplaceIIS3_EEESt4pairINS_17StringMapIteratorIS3_EEbENS_9StringRefEDpOT_
   fun:_ZN12_GLOBAL__N_117CommandLineParser9addOptionEPN4llvm2cl6OptionEPNS2_10SubCommandE.constprop.393
   fun:_ZN12_GLOBAL__N_117CommandLineParser9addOptionEPN4llvm2cl6OptionEb
   fun:_ZN4llvm2cl6Option11addArgumentEv
   fun:_GLOBAL__sub_I_BranchFolding.cpp
   fun:call_init.part.0
   fun:call_init
   fun:_dl_init
   obj:/usr/lib/x86_64-linux-gnu/ld-linux-x86-64.so.2
}
{
   <insert_a_suppression_name_here>
   Memcheck:Leak
   match-leak-kinds: reachable
   fun:malloc
   fun:_ZN4llvm11safe_mallocEm
   fun:_ZN4llvm9StringMapIPNS_2cl6OptionENS_15MallocAllocatorEE11try_emplaceIIS3_EEESt4pairINS_17StringMapIteratorIS3_EEbENS_9StringRefEDpOT_
   fun:_ZN12_GLOBAL__N_117CommandLineParser9addOptionEPN4llvm2cl6OptionEPNS2_10SubCommandE.constprop.393
   fun:_ZN12_GLOBAL__N_117CommandLineParser9addOptionEPN4llvm2cl6OptionEb
   fun:_ZN4llvm2cl6Option11addArgumentEv
   fun:_ZN4llvm2cl3optIjLb0ENS0_6parserIjEEEC1IIA16_cNS0_12OptionHiddenENS0_11initializerIjEENS0_4descEEEEDpRKT_
   fun:_GLOBAL__sub_I_PrologEpilogInserter.cpp
   fun:call_init.part.0
   fun:call_init
   fun:_dl_init
   obj:/usr/lib/x86_64-linux-gnu/ld-linux-x86-64.so.2
}
{
   <insert_a_suppression_name_here>
   Memcheck:Leak
   match-leak-kinds: reachable
   fun:malloc
   fun:_ZN4llvm11safe_mallocEm
   fun:_ZN4llvm9StringMapIPNS_2cl6OptionENS_15MallocAllocatorEE11try_emplaceIIS3_EEESt4pairINS_17StringMapIteratorIS3_EEbENS_9StringRefEDpOT_
   fun:_ZN12_GLOBAL__N_117CommandLineParser9addOptionEPN4llvm2cl6OptionEPNS2_10SubCommandE.constprop.393
   fun:_ZN12_GLOBAL__N_117CommandLineParser9addOptionEPN4llvm2cl6OptionEb
   fun:_ZN4llvm2cl6Option11addArgumentEv
   fun:_ZN4llvm2cl3optIbLb1ENS0_6parserIbEEEC1IIA16_cNS0_13LocationClassIbEENS0_12OptionHiddenENS0_4descEEEEDpRKT_
   fun:_GLOBAL__sub_I_RegAllocBase.cpp
   fun:call_init.part.0
   fun:call_init
   fun:_dl_init
   obj:/usr/lib/x86_64-linux-gnu/ld-linux-x86-64.so.2
}
{
   <insert_a_suppression_name_here>
   Memcheck:Leak
   match-leak-kinds: reachable
   fun:malloc
   fun:_ZN4llvm11safe_mallocEm
   fun:_ZN4llvm9StringMapIPNS_2cl6OptionENS_15MallocAllocatorEE11try_emplaceIIS3_EEESt4pairINS_17StringMapIteratorIS3_EEbENS_9StringRefEDpOT_
   fun:_ZN12_GLOBAL__N_117CommandLineParser9addOptionEPN4llvm2cl6OptionEPNS2_10SubCommandE.constprop.393
   fun:_ZN12_GLOBAL__N_117CommandLineParser9addOptionEPN4llvm2cl6OptionEb
   fun:_ZN4llvm2cl6Option11addArgumentEv
   fun:_GLOBAL__sub_I_ForceFunctionAttrs.cpp
   fun:call_init.part.0
   fun:call_init
   fun:_dl_init
   obj:/usr/lib/x86_64-linux-gnu/ld-linux-x86-64.so.2
}
{
   <insert_a_suppression_name_here>
   Memcheck:Leak
   match-leak-kinds: reachable
   fun:malloc
   fun:_ZN4llvm11safe_mallocEm
   fun:_ZN4llvm9StringMapIPNS_2cl6OptionENS_15MallocAllocatorEE11try_emplaceIIS3_EEESt4pairINS_17StringMapIteratorIS3_EEbENS_9StringRefEDpOT_
   fun:_ZN12_GLOBAL__N_117CommandLineParser9addOptionEPN4llvm2cl6OptionEPNS2_10SubCommandE.constprop.393
   fun:_ZN12_GLOBAL__N_117CommandLineParser9addOptionEPN4llvm2cl6OptionEb
   fun:_ZN4llvm2cl6Option11addArgumentEv
   fun:_GLOBAL__sub_I_GlobalOpt.cpp
   fun:call_init.part.0
   fun:call_init
   fun:_dl_init
   obj:/usr/lib/x86_64-linux-gnu/ld-linux-x86-64.so.2
}
{
   <insert_a_suppression_name_here>
   Memcheck:Leak
   match-leak-kinds: reachable
   fun:malloc
   fun:_ZN4llvm11safe_mallocEm
   fun:_ZN4llvm9StringMapIPNS_2cl6OptionENS_15MallocAllocatorEE11try_emplaceIIS3_EEESt4pairINS_17StringMapIteratorIS3_EEbENS_9StringRefEDpOT_
   fun:_ZN12_GLOBAL__N_117CommandLineParser9addOptionEPN4llvm2cl6OptionEPNS2_10SubCommandE.constprop.393
   fun:_ZN12_GLOBAL__N_117CommandLineParser9addOptionEPN4llvm2cl6OptionEb
   fun:_ZN4llvm2cl6Option11addArgumentEv
   fun:_GLOBAL__sub_I_GVNHoist.cpp
   fun:call_init.part.0
   fun:call_init
   fun:_dl_init
   obj:/usr/lib/x86_64-linux-gnu/ld-linux-x86-64.so.2
}
{
   <insert_a_suppression_name_here>
   Memcheck:Leak
   match-leak-kinds: reachable
   fun:malloc
   fun:_ZN4llvm11safe_mallocEm
   fun:_ZN4llvm9StringMapIPNS_2cl6OptionENS_15MallocAllocatorEE11try_emplaceIIS3_EEESt4pairINS_17StringMapIteratorIS3_EEbENS_9StringRefEDpOT_
   fun:_ZN12_GLOBAL__N_117CommandLineParser9addOptionEPN4llvm2cl6OptionEPNS2_10SubCommandE.constprop.393
   fun:_ZN12_GLOBAL__N_117CommandLineParser9addOptionEPN4llvm2cl6OptionEb
   fun:_ZN4llvm2cl6Option11addArgumentEv
   fun:_Z41__static_initialization_and_destruction_0ii.constprop.442
   fun:call_init.part.0
   fun:call_init
   fun:_dl_init
   obj:/usr/lib/x86_64-linux-gnu/ld-linux-x86-64.so.2
}
{
   <insert_a_suppression_name_here>
   Memcheck:Leak
   match-leak-kinds: reachable
   fun:malloc
   fun:_ZN4llvm11safe_mallocEm
   fun:_ZN4llvm9StringMapIPNS_2cl6OptionENS_15MallocAllocatorEE11try_emplaceIIS3_EEESt4pairINS_17StringMapIteratorIS3_EEbENS_9StringRefEDpOT_
   fun:_ZN12_GLOBAL__N_117CommandLineParser9addOptionEPN4llvm2cl6OptionEPNS2_10SubCommandE.constprop.393
   fun:_ZN12_GLOBAL__N_117CommandLineParser9addOptionEPN4llvm2cl6OptionEb
   fun:_ZN4llvm2cl6Option11addArgumentEv
   fun:_Z41__static_initialization_and_destruction_0ii.constprop.1398
   fun:call_init.part.0
   fun:call_init
   fun:_dl_init
   obj:/usr/lib/x86_64-linux-gnu/ld-linux-x86-64.so.2
}
{
   <insert_a_suppression_name_here>
   Memcheck:Leak
   match-leak-kinds: reachable
   fun:malloc
   fun:_ZN4llvm11safe_mallocEm
   fun:_ZN4llvm9StringMapIPNS_2cl6OptionENS_15MallocAllocatorEE11try_emplaceIIS3_EEESt4pairINS_17StringMapIteratorIS3_EEbENS_9StringRefEDpOT_
   fun:_ZN12_GLOBAL__N_117CommandLineParser9addOptionEPN4llvm2cl6OptionEPNS2_10SubCommandE.constprop.393
   fun:_ZN12_GLOBAL__N_117CommandLineParser9addOptionEPN4llvm2cl6OptionEb
   fun:_ZN4llvm2cl6Option11addArgumentEv
   fun:_GLOBAL__sub_I_GraphWriter.cpp
   fun:call_init.part.0
   fun:call_init
   fun:_dl_init
   obj:/usr/lib/x86_64-linux-gnu/ld-linux-x86-64.so.2
}
{
   <insert_a_suppression_name_here>
   Memcheck:Leak
   match-leak-kinds: reachable
   fun:_Znwm
   fun:_ZN6google8protobuf14MessageFactory29InternalRegisterGeneratedFileEPKNS0_8internal15DescriptorTableE
   fun:_ZN6google8protobuf12_GLOBAL__N_118AddDescriptorsImplEPKNS0_8internal15DescriptorTableE
   fun:call_init.part.0
   fun:call_init
   fun:_dl_init
   obj:/usr/lib/x86_64-linux-gnu/ld-linux-x86-64.so.2
}
{
   <insert_a_suppression_name_here>
   Memcheck:Leak
   match-leak-kinds: reachable
   fun:calloc
   fun:cpuinfo_x86_linux_init
   fun:__pthread_once_slow
   fun:cpuinfo_initialize
   fun:_ZN2at6nativeL22compute_cpu_capabilityEv
   fun:_ZN2at6native18get_cpu_capabilityEv
   fun:_ZN2at6native16DispatchStubImpl15choose_cpu_implEPvS2_S2_
   fun:_ZN2at6native16DispatchStubImpl12get_call_ptrEN3c1010DeviceTypeEPvS4_S4_
   fun:_ZN2at6native9templates12normal_impl_INS0_10NormalStubENS_9GeneratorEEERNS_6TensorES6_ddN3c108optionalIS4_EE
   fun:_ZN2at6native7normal_ERNS_6TensorEddN3c108optionalINS_9GeneratorEEE
   fun:_ZN2at12_GLOBAL__N_112_GLOBAL__N_120wrapper_CPU__normal_ERNS_6TensorEddN3c108optionalINS_9GeneratorEEE
   fun:_ZN3c104impl28wrap_kernel_functor_unboxed_INS0_6detail24WrapFunctionIntoFunctor_INS_26CompileTimeFunctionPointerIFRN2at6TensorES7_ddNS_8optionalINS5_9GeneratorEEEEXadL_ZNS5_12_GLOBAL__N_112_GLOBAL__N_120wrapper_CPU__normal_ES7_ddSA_EEEES7_NS_4guts8typelist8typelistIJS7_ddSA_EEEEESB_E4callEPNS_14OperatorKernelENS_14DispatchKeySetES7_ddSA_
}
{
   <insert_a_suppression_name_here>
   Memcheck:Leak
   match-leak-kinds: reachable
   fun:malloc
   fun:malloc
   fun:allocate_dtv_entry
   fun:allocate_and_init
   fun:tls_get_addr_tail
   fun:__tls_get_addr
   fun:mkl_vml_kernel_SetMode
   fun:vmsExp
   fun:_ZZZZN2at6native4AVX210exp_kernelERNS_18TensorIteratorBaseEENKUlvE_clEvENKUlvE0_clEvENKUlPPcPKllE_clES7_S9_l.isra.0
   fun:_ZN3c1012function_refIFvPPcPKlllEE11callback_fnIZN2at18TensorIteratorBase15loop_2d_from_1dIZZZNS8_6native4AVX210exp_kernelERS9_ENKUlvE_clEvENKUlvE0_clEvEUlS2_S4_lE_EEDaRKT_EUlS2_S4_llE_EEvlS2_S4_ll
   fun:_ZNK2at18TensorIteratorBase15serial_for_eachEN3c1012function_refIFvPPcPKlllEEENS_5RangeE
   fun:_ZN2at18TensorIteratorBase8for_eachEN3c1012function_refIFvPPcPKlllEEEl
   fun:_ZN2at6native4AVX210exp_kernelERNS_18TensorIteratorBaseE
   fun:_ZN2at12_GLOBAL__N_115wrapper_CPU_expERKNS_6TensorE
   fun:_ZN3c104impl28wrap_kernel_functor_unboxed_INS0_6detail24WrapFunctionIntoFunctor_INS_26CompileTimeFunctionPointerIFN2at6TensorERKS6_EXadL_ZNS5_12_GLOBAL__N_115wrapper_CPU_expES8_EEEES6_NS_4guts8typelist8typelistIJS8_EEEEES9_E4callEPNS_14OperatorKernelENS_14DispatchKeySetES8_
}
{
   <insert_a_suppression_name_here>
   Memcheck:Leak
   match-leak-kinds: reachable
   fun:malloc
   fun:_ZN4llvm11safe_mallocEm
   fun:_ZN4llvm9StringMapIPNS_2cl6OptionENS_15MallocAllocatorEE11try_emplaceIIS3_EEESt4pairINS_17StringMapIteratorIS3_EEbENS_9StringRefEDpOT_
   fun:_ZN12_GLOBAL__N_117CommandLineParser9addOptionEPN4llvm2cl6OptionEPNS2_10SubCommandE.constprop.393
   fun:_ZN12_GLOBAL__N_117CommandLineParser9addOptionEPN4llvm2cl6OptionEb
   fun:_ZN4llvm2cl6Option11addArgumentEv
   fun:_ZN4llvm2cl3optIiLb0ENS0_6parserIiEEEC1IIA17_cNS0_12OptionHiddenENS0_11initializerIiEENS0_18NumOccurrencesFlagENS0_4descEEEEDpRKT_
   fun:_GLOBAL__sub_I_OptBisect.cpp
   fun:call_init.part.0
   fun:call_init
   fun:_dl_init
   obj:/usr/lib/x86_64-linux-gnu/ld-linux-x86-64.so.2
}
{
   <insert_a_suppression_name_here>
   Memcheck:Leak
   match-leak-kinds: reachable
   fun:malloc
   fun:_ZN4llvm11safe_mallocEm
   fun:_ZN4llvm9StringMapIPNS_2cl6OptionENS_15MallocAllocatorEE11try_emplaceIIS3_EEESt4pairINS_17StringMapIteratorIS3_EEbENS_9StringRefEDpOT_
   fun:_ZN12_GLOBAL__N_117CommandLineParser9addOptionEPN4llvm2cl6OptionEPNS2_10SubCommandE.constprop.393
   fun:_ZN12_GLOBAL__N_117CommandLineParser9addOptionEPN4llvm2cl6OptionEb
   fun:_ZN4llvm2cl6Option11addArgumentEv
   fun:_ZN4llvm2cl3optIbLb1ENS0_6parserIbEEEC1IIA17_cNS0_13LocationClassIbEENS0_12OptionHiddenENS0_4descEEEEDpRKT_
   fun:_GLOBAL__sub_I_LoopInfo.cpp
   fun:call_init.part.0
   fun:call_init
   fun:_dl_init
   obj:/usr/lib/x86_64-linux-gnu/ld-linux-x86-64.so.2
}
{
   <insert_a_suppression_name_here>
   Memcheck:Leak
   match-leak-kinds: reachable
   fun:malloc
   fun:_ZN4llvm11safe_mallocEm
   fun:_ZN4llvm9StringMapIPNS_2cl6OptionENS_15MallocAllocatorEE11try_emplaceIIS3_EEESt4pairINS_17StringMapIteratorIS3_EEbENS_9StringRefEDpOT_
   fun:_ZN12_GLOBAL__N_117CommandLineParser9addOptionEPN4llvm2cl6OptionEPNS2_10SubCommandE.constprop.393
   fun:_ZN12_GLOBAL__N_117CommandLineParser9addOptionEPN4llvm2cl6OptionEb
   fun:_ZN4llvm2cl6Option11addArgumentEv
   fun:_ZN4llvm2cl3optIbLb1ENS0_6parserIbEEEC1IIA17_cNS0_13LocationClassIbEENS0_12OptionHiddenENS0_4descEEEEDpRKT_
   fun:_GLOBAL__sub_I_MemorySSA.cpp
   fun:call_init.part.0
   fun:call_init
   fun:_dl_init
   obj:/usr/lib/x86_64-linux-gnu/ld-linux-x86-64.so.2
}
{
   <insert_a_suppression_name_here>
   Memcheck:Leak
   match-leak-kinds: reachable
   fun:malloc
   fun:_ZN4llvm11safe_mallocEm
   fun:_ZN4llvm9StringMapIPNS_2cl6OptionENS_15MallocAllocatorEE11try_emplaceIIS3_EEESt4pairINS_17StringMapIteratorIS3_EEbENS_9StringRefEDpOT_
   fun:_ZN12_GLOBAL__N_117CommandLineParser9addOptionEPN4llvm2cl6OptionEPNS2_10SubCommandE.constprop.393
   fun:_ZN12_GLOBAL__N_117CommandLineParser9addOptionEPN4llvm2cl6OptionEb
   fun:_ZN4llvm2cl6Option11addArgumentEv
   fun:_ZN4llvm2cl3optIbLb0ENS0_6parserIbEEEC1IIA17_cNS0_12OptionHiddenENS0_4descEEEEDpRKT_
   fun:_GLOBAL__sub_I_SelectionDAGDumper.cpp
   fun:call_init.part.0
   fun:call_init
   fun:_dl_init
   obj:/usr/lib/x86_64-linux-gnu/ld-linux-x86-64.so.2
}
{
   <insert_a_suppression_name_here>
   Memcheck:Leak
   match-leak-kinds: reachable
   fun:malloc
   fun:_ZN4llvm11safe_mallocEm
   fun:_ZN4llvm9StringMapIPNS_2cl6OptionENS_15MallocAllocatorEE11try_emplaceIIS3_EEESt4pairINS_17StringMapIteratorIS3_EEbENS_9StringRefEDpOT_
   fun:_ZN12_GLOBAL__N_117CommandLineParser9addOptionEPN4llvm2cl6OptionEPNS2_10SubCommandE.constprop.393
   fun:_ZN12_GLOBAL__N_117CommandLineParser9addOptionEPN4llvm2cl6OptionEb
   fun:_ZN4llvm2cl6Option11addArgumentEv
   fun:_ZN4llvm2cl3optIbLb0ENS0_6parserIbEEEC1IIA17_cNS0_4descENS0_11initializerIbEENS0_12OptionHiddenEEEEDpRKT_
   fun:_GLOBAL__sub_I_CFIInstrInserter.cpp
   fun:call_init.part.0
   fun:call_init
   fun:_dl_init
   obj:/usr/lib/x86_64-linux-gnu/ld-linux-x86-64.so.2
}
{
   <insert_a_suppression_name_here>
   Memcheck:Leak
   match-leak-kinds: reachable
   fun:malloc
   fun:_ZN4llvm11safe_mallocEm
   fun:_ZN4llvm9StringMapIPNS_2cl6OptionENS_15MallocAllocatorEE11try_emplaceIIS3_EEESt4pairINS_17StringMapIteratorIS3_EEbENS_9StringRefEDpOT_
   fun:_ZN12_GLOBAL__N_117CommandLineParser9addOptionEPN4llvm2cl6OptionEPNS2_10SubCommandE.constprop.393
   fun:_ZN12_GLOBAL__N_117CommandLineParser9addOptionEPN4llvm2cl6OptionEb
   fun:_ZN4llvm2cl6Option11addArgumentEv
   fun:_ZN4llvm2cl3optIbLb0ENS0_6parserIbEEEC1IIA17_cNS0_12OptionHiddenENS0_18NumOccurrencesFlagENS0_11initializerIbEENS0_4descEEEEDpRKT_
   fun:_GLOBAL__sub_I_LLVMTargetMachine.cpp
   fun:call_init.part.0
   fun:call_init
   fun:_dl_init
   obj:/usr/lib/x86_64-linux-gnu/ld-linux-x86-64.so.2
}
{
   <insert_a_suppression_name_here>
   Memcheck:Leak
   match-leak-kinds: reachable
   fun:malloc
   fun:_ZN4llvm11safe_mallocEm
   fun:_ZN4llvm9StringMapIPNS_2cl6OptionENS_15MallocAllocatorEE11try_emplaceIIS3_EEESt4pairINS_17StringMapIteratorIS3_EEbENS_9StringRefEDpOT_
   fun:_ZN12_GLOBAL__N_117CommandLineParser9addOptionEPN4llvm2cl6OptionEPNS2_10SubCommandE.constprop.393
   fun:_ZN12_GLOBAL__N_117CommandLineParser9addOptionEPN4llvm2cl6OptionEb
   fun:_ZN4llvm2cl6Option11addArgumentEv
   fun:_GLOBAL__sub_I_StackMaps.cpp
   fun:call_init.part.0
   fun:call_init
   fun:_dl_init
   obj:/usr/lib/x86_64-linux-gnu/ld-linux-x86-64.so.2
}
{
   <insert_a_suppression_name_here>
   Memcheck:Leak
   match-leak-kinds: reachable
   fun:malloc
   fun:_ZN4llvm11safe_mallocEm
   fun:_ZN4llvm9StringMapIPNS_2cl6OptionENS_15MallocAllocatorEE11try_emplaceIIS3_EEESt4pairINS_17StringMapIteratorIS3_EEbENS_9StringRefEDpOT_
   fun:_ZN12_GLOBAL__N_117CommandLineParser9addOptionEPN4llvm2cl6OptionEPNS2_10SubCommandE.constprop.393
   fun:_ZN12_GLOBAL__N_117CommandLineParser9addOptionEPN4llvm2cl6OptionEb
   fun:_ZN4llvm2cl6Option11addArgumentEv
   fun:_ZN4llvm2cl3optIbLb0ENS0_6parserIbEEEC1IIA17_cNS0_12OptionHiddenENS0_4descEEEEDpRKT_
   fun:_Z41__static_initialization_and_destruction_0ii.constprop.141
   fun:call_init.part.0
   fun:call_init
   fun:_dl_init
   obj:/usr/lib/x86_64-linux-gnu/ld-linux-x86-64.so.2
}
{
   <insert_a_suppression_name_here>
   Memcheck:Leak
   match-leak-kinds: reachable
   fun:malloc
   fun:_ZN4llvm11safe_mallocEm
   fun:_ZN4llvm9StringMapIPNS_2cl6OptionENS_15MallocAllocatorEE11try_emplaceIIS3_EEESt4pairINS_17StringMapIteratorIS3_EEbENS_9StringRefEDpOT_
   fun:_ZN12_GLOBAL__N_117CommandLineParser9addOptionEPN4llvm2cl6OptionEPNS2_10SubCommandE.constprop.393
   fun:_ZN12_GLOBAL__N_117CommandLineParser9addOptionEPN4llvm2cl6OptionEb
   fun:_ZN4llvm2cl6Option11addArgumentEv
   fun:_GLOBAL__sub_I_WinEHPrepare.cpp
   fun:call_init.part.0
   fun:call_init
   fun:_dl_init
   obj:/usr/lib/x86_64-linux-gnu/ld-linux-x86-64.so.2
}
{
   <insert_a_suppression_name_here>
   Memcheck:Leak
   match-leak-kinds: reachable
   fun:malloc
   fun:_ZN4llvm11safe_mallocEm
   fun:_ZN4llvm9StringMapIPNS_2cl6OptionENS_15MallocAllocatorEE11try_emplaceIIS3_EEESt4pairINS_17StringMapIteratorIS3_EEbENS_9StringRefEDpOT_
   fun:_ZN12_GLOBAL__N_117CommandLineParser9addOptionEPN4llvm2cl6OptionEPNS2_10SubCommandE.constprop.393
   fun:_ZN12_GLOBAL__N_117CommandLineParser9addOptionEPN4llvm2cl6OptionEb
   fun:_ZN4llvm2cl6Option11addArgumentEv
   fun:_GLOBAL__sub_I_MachineSink.cpp
   fun:call_init.part.0
   fun:call_init
   fun:_dl_init
   obj:/usr/lib/x86_64-linux-gnu/ld-linux-x86-64.so.2
}
{
   <insert_a_suppression_name_here>
   Memcheck:Leak
   match-leak-kinds: reachable
   fun:malloc
   fun:_ZN4llvm11safe_mallocEm
   fun:_ZN4llvm9StringMapIPNS_2cl6OptionENS_15MallocAllocatorEE11try_emplaceIIS3_EEESt4pairINS_17StringMapIteratorIS3_EEbENS_9StringRefEDpOT_
   fun:_ZN12_GLOBAL__N_117CommandLineParser9addOptionEPN4llvm2cl6OptionEPNS2_10SubCommandE.constprop.393
   fun:_ZN12_GLOBAL__N_117CommandLineParser9addOptionEPN4llvm2cl6OptionEb
   fun:_ZN4llvm2cl6Option11addArgumentEv
   fun:_Z41__static_initialization_and_destruction_0ii.constprop.205
   fun:call_init.part.0
   fun:call_init
   fun:_dl_init
   obj:/usr/lib/x86_64-linux-gnu/ld-linux-x86-64.so.2
}
{
   <insert_a_suppression_name_here>
   Memcheck:Leak
   match-leak-kinds: reachable
   fun:malloc
   fun:_ZN4llvm11safe_mallocEm
   fun:_ZN4llvm9StringMapIPNS_2cl6OptionENS_15MallocAllocatorEE11try_emplaceIIS3_EEESt4pairINS_17StringMapIteratorIS3_EEbENS_9StringRefEDpOT_
   fun:_ZN12_GLOBAL__N_117CommandLineParser9addOptionEPN4llvm2cl6OptionEPNS2_10SubCommandE.constprop.393
   fun:_ZN12_GLOBAL__N_117CommandLineParser9addOptionEPN4llvm2cl6OptionEb
   fun:_ZN4llvm2cl6Option11addArgumentEv
   fun:_GLOBAL__sub_I_MergeFunctions.cpp
   fun:call_init.part.0
   fun:call_init
   fun:_dl_init
   obj:/usr/lib/x86_64-linux-gnu/ld-linux-x86-64.so.2
}
{
   <insert_a_suppression_name_here>
   Memcheck:Leak
   match-leak-kinds: reachable
   fun:malloc
   fun:_ZN4llvm11safe_mallocEm
   fun:_ZN4llvm9StringMapIPNS_2cl6OptionENS_15MallocAllocatorEE11try_emplaceIIS3_EEESt4pairINS_17StringMapIteratorIS3_EEbENS_9StringRefEDpOT_
   fun:_ZN12_GLOBAL__N_117CommandLineParser9addOptionEPN4llvm2cl6OptionEPNS2_10SubCommandE.constprop.393
   fun:_ZN12_GLOBAL__N_117CommandLineParser9addOptionEPN4llvm2cl6OptionEb
   fun:_ZN4llvm2cl6Option11addArgumentEv
   fun:_GLOBAL__sub_I_SymbolRewriter.cpp
   fun:call_init.part.0
   fun:call_init
   fun:_dl_init
   obj:/usr/lib/x86_64-linux-gnu/ld-linux-x86-64.so.2
}
{
   <insert_a_suppression_name_here>
   Memcheck:Leak
   match-leak-kinds: reachable
   fun:malloc
   fun:_ZN4llvm11safe_mallocEm
   fun:_ZN4llvm9StringMapIPNS_2cl6OptionENS_15MallocAllocatorEE11try_emplaceIIS3_EEESt4pairINS_17StringMapIteratorIS3_EEbENS_9StringRefEDpOT_
   fun:_ZN12_GLOBAL__N_117CommandLineParser9addOptionEPN4llvm2cl6OptionEPNS2_10SubCommandE.constprop.393
   fun:_ZN12_GLOBAL__N_117CommandLineParser9addOptionEPN4llvm2cl6OptionEb
   fun:_ZN4llvm2cl6Option11addArgumentEv
   fun:_Z41__static_initialization_and_destruction_0ii.constprop.460
   fun:call_init.part.0
   fun:call_init
   fun:_dl_init
   obj:/usr/lib/x86_64-linux-gnu/ld-linux-x86-64.so.2
}
{
   <insert_a_suppression_name_here>
   Memcheck:Leak
   match-leak-kinds: reachable
   fun:malloc
   fun:_ZN4llvm11safe_mallocEm
   fun:_ZN4llvm9StringMapIPNS_2cl6OptionENS_15MallocAllocatorEE11try_emplaceIIS3_EEESt4pairINS_17StringMapIteratorIS3_EEbENS_9StringRefEDpOT_
   fun:_ZN12_GLOBAL__N_117CommandLineParser9addOptionEPN4llvm2cl6OptionEPNS2_10SubCommandE.constprop.393
   fun:_ZN12_GLOBAL__N_117CommandLineParser9addOptionEPN4llvm2cl6OptionEb
   fun:_ZN4llvm2cl6Option11addArgumentEv
   fun:_Z41__static_initialization_and_destruction_0ii.constprop.747
   fun:call_init.part.0
   fun:call_init
   fun:_dl_init
   obj:/usr/lib/x86_64-linux-gnu/ld-linux-x86-64.so.2
}
{
   <insert_a_suppression_name_here>
   Memcheck:Leak
   match-leak-kinds: reachable
   fun:malloc
   fun:_ZN4llvm11safe_mallocEm
   fun:_ZN4llvm9StringMapIPNS_2cl6OptionENS_15MallocAllocatorEE11try_emplaceIIS3_EEESt4pairINS_17StringMapIteratorIS3_EEbENS_9StringRefEDpOT_
   fun:_ZN12_GLOBAL__N_117CommandLineParser9addOptionEPN4llvm2cl6OptionEPNS2_10SubCommandE.constprop.393
   fun:_ZN12_GLOBAL__N_117CommandLineParser9addOptionEPN4llvm2cl6OptionEb
   fun:_ZN4llvm2cl6Option11addArgumentEv
   fun:_GLOBAL__sub_I_ResourcePriorityQueue.cpp
   fun:call_init.part.0
   fun:call_init
   fun:_dl_init
   obj:/usr/lib/x86_64-linux-gnu/ld-linux-x86-64.so.2
}
{
   <insert_a_suppression_name_here>
   Memcheck:Leak
   match-leak-kinds: reachable
   fun:malloc
   fun:_ZN4llvm11safe_mallocEm
   fun:_ZN4llvm9StringMapIPNS_2cl6OptionENS_15MallocAllocatorEE11try_emplaceIIS3_EEESt4pairINS_17StringMapIteratorIS3_EEbENS_9StringRefEDpOT_
   fun:_ZN12_GLOBAL__N_117CommandLineParser9addOptionEPN4llvm2cl6OptionEPNS2_10SubCommandE.constprop.393
   fun:_ZN12_GLOBAL__N_117CommandLineParser9addOptionEPN4llvm2cl6OptionEb
   fun:_ZN4llvm2cl6Option11addArgumentEv
   fun:_GLOBAL__sub_I_EarlyIfConversion.cpp
   fun:call_init.part.0
   fun:call_init
   fun:_dl_init
   obj:/usr/lib/x86_64-linux-gnu/ld-linux-x86-64.so.2
}
{
   <insert_a_suppression_name_here>
   Memcheck:Leak
   match-leak-kinds: reachable
   fun:malloc
   fun:_ZN4llvm11safe_mallocEm
   fun:_ZN4llvm9StringMapIPNS_2cl6OptionENS_15MallocAllocatorEE11try_emplaceIIS3_EEESt4pairINS_17StringMapIteratorIS3_EEbENS_9StringRefEDpOT_
   fun:_ZN12_GLOBAL__N_117CommandLineParser9addOptionEPN4llvm2cl6OptionEPNS2_10SubCommandE.constprop.393
   fun:_ZN12_GLOBAL__N_117CommandLineParser9addOptionEPN4llvm2cl6OptionEb
   fun:_ZN4llvm2cl6Option11addArgumentEv
   fun:_ZN4llvm2cl3optIbLb0ENS0_6parserIbEEEC1IIA18_cNS0_12OptionHiddenENS0_4descEEEEDpRKT_
   fun:_GLOBAL__sub_I_EdgeBundles.cpp
   fun:call_init.part.0
   fun:call_init
   fun:_dl_init
   obj:/usr/lib/x86_64-linux-gnu/ld-linux-x86-64.so.2
}
{
   <insert_a_suppression_name_here>
   Memcheck:Leak
   match-leak-kinds: reachable
   fun:malloc
   fun:_ZN4llvm11safe_mallocEm
   fun:_ZN4llvm9StringMapIPNS_2cl6OptionENS_15MallocAllocatorEE11try_emplaceIIS3_EEESt4pairINS_17StringMapIteratorIS3_EEbENS_9StringRefEDpOT_
   fun:_ZN12_GLOBAL__N_117CommandLineParser9addOptionEPN4llvm2cl6OptionEPNS2_10SubCommandE.constprop.393
   fun:_ZN12_GLOBAL__N_117CommandLineParser9addOptionEPN4llvm2cl6OptionEb
   fun:_ZN4llvm2cl6Option11addArgumentEv
   fun:_Z41__static_initialization_and_destruction_0ii.constprop.327
   fun:call_init.part.0
   fun:call_init
   fun:_dl_init
   obj:/usr/lib/x86_64-linux-gnu/ld-linux-x86-64.so.2
}
{
   <insert_a_suppression_name_here>
   Memcheck:Leak
   match-leak-kinds: reachable
   fun:malloc
   fun:_ZN4llvm11safe_mallocEm
   fun:_ZN4llvm9StringMapIPNS_2cl6OptionENS_15MallocAllocatorEE11try_emplaceIIS3_EEESt4pairINS_17StringMapIteratorIS3_EEbENS_9StringRefEDpOT_
   fun:_ZN12_GLOBAL__N_117CommandLineParser9addOptionEPN4llvm2cl6OptionEPNS2_10SubCommandE.constprop.393
   fun:_ZN12_GLOBAL__N_117CommandLineParser9addOptionEPN4llvm2cl6OptionEb
   fun:_ZN4llvm2cl6Option11addArgumentEv
   fun:_Z41__static_initialization_and_destruction_0ii.constprop.222
   fun:call_init.part.0
   fun:call_init
   fun:_dl_init
   obj:/usr/lib/x86_64-linux-gnu/ld-linux-x86-64.so.2
}
{
   <insert_a_suppression_name_here>
   Memcheck:Leak
   match-leak-kinds: reachable
   fun:malloc
   fun:_ZN4llvm11safe_mallocEm
   fun:_ZN4llvm9StringMapIPNS_2cl6OptionENS_15MallocAllocatorEE11try_emplaceIIS3_EEESt4pairINS_17StringMapIteratorIS3_EEbENS_9StringRefEDpOT_
   fun:_ZN12_GLOBAL__N_117CommandLineParser9addOptionEPN4llvm2cl6OptionEPNS2_10SubCommandE.constprop.393
   fun:_ZN12_GLOBAL__N_117CommandLineParser9addOptionEPN4llvm2cl6OptionEb
   fun:_ZN4llvm2cl6Option11addArgumentEv
   fun:_Z41__static_initialization_and_destruction_0ii.constprop.1196
   fun:call_init.part.0
   fun:call_init
   fun:_dl_init
   obj:/usr/lib/x86_64-linux-gnu/ld-linux-x86-64.so.2
}
{
   <insert_a_suppression_name_here>
   Memcheck:Leak
   match-leak-kinds: reachable
   fun:malloc
   fun:_ZN4llvm11safe_mallocEm
   fun:_ZN4llvm9StringMapIPNS_2cl6OptionENS_15MallocAllocatorEE11try_emplaceIIS3_EEESt4pairINS_17StringMapIteratorIS3_EEbENS_9StringRefEDpOT_
   fun:_ZN12_GLOBAL__N_117CommandLineParser9addOptionEPN4llvm2cl6OptionEPNS2_10SubCommandE.constprop.393
   fun:_ZN12_GLOBAL__N_117CommandLineParser9addOptionEPN4llvm2cl6OptionEb
   fun:_ZN4llvm2cl6Option11addArgumentEv
   fun:_GLOBAL__sub_I_MachineLICM.cpp
   fun:call_init.part.0
   fun:call_init
   fun:_dl_init
   obj:/usr/lib/x86_64-linux-gnu/ld-linux-x86-64.so.2
}
{
   <insert_a_suppression_name_here>
   Memcheck:Leak
   match-leak-kinds: reachable
   fun:malloc
   fun:_ZN4llvm11safe_mallocEm
   fun:_ZN4llvm9StringMapIPNS_2cl6OptionENS_15MallocAllocatorEE11try_emplaceIIS3_EEESt4pairINS_17StringMapIteratorIS3_EEbENS_9StringRefEDpOT_
   fun:_ZN12_GLOBAL__N_117CommandLineParser9addOptionEPN4llvm2cl6OptionEPNS2_10SubCommandE.constprop.393
   fun:_ZN12_GLOBAL__N_117CommandLineParser9addOptionEPN4llvm2cl6OptionEb
   fun:_ZN4llvm2cl6Option11addArgumentEv
   fun:_GLOBAL__sub_I_PostRASchedulerList.cpp
   fun:call_init.part.0
   fun:call_init
   fun:_dl_init
   obj:/usr/lib/x86_64-linux-gnu/ld-linux-x86-64.so.2
}
{
   <insert_a_suppression_name_here>
   Memcheck:Leak
   match-leak-kinds: reachable
   fun:malloc
   fun:_ZN4llvm11safe_mallocEm
   fun:_ZN4llvm9StringMapIPNS_2cl6OptionENS_15MallocAllocatorEE11try_emplaceIIS3_EEESt4pairINS_17StringMapIteratorIS3_EEbENS_9StringRefEDpOT_
   fun:_ZN12_GLOBAL__N_117CommandLineParser9addOptionEPN4llvm2cl6OptionEPNS2_10SubCommandE.constprop.393
   fun:_ZN12_GLOBAL__N_117CommandLineParser9addOptionEPN4llvm2cl6OptionEb
   fun:_ZN4llvm2cl6Option11addArgumentEv
   fun:_GLOBAL__sub_I_SafeStackLayout.cpp
   fun:call_init.part.0
   fun:call_init
   fun:_dl_init
   obj:/usr/lib/x86_64-linux-gnu/ld-linux-x86-64.so.2
}
{
   <insert_a_suppression_name_here>
   Memcheck:Leak
   match-leak-kinds: reachable
   fun:malloc
   fun:_ZN4llvm11safe_mallocEm
   fun:_ZN4llvm9StringMapIPNS_2cl6OptionENS_15MallocAllocatorEE11try_emplaceIIS3_EEESt4pairINS_17StringMapIteratorIS3_EEbENS_9StringRefEDpOT_
   fun:_ZN12_GLOBAL__N_117CommandLineParser9addOptionEPN4llvm2cl6OptionEPNS2_10SubCommandE.constprop.393
   fun:_ZN12_GLOBAL__N_117CommandLineParser9addOptionEPN4llvm2cl6OptionEb
   fun:_ZN4llvm2cl6Option11addArgumentEv
   fun:_GLOBAL__sub_I_StackColoring.cpp
   fun:call_init.part.0
   fun:call_init
   fun:_dl_init
   obj:/usr/lib/x86_64-linux-gnu/ld-linux-x86-64.so.2
}
{
   <insert_a_suppression_name_here>
   Memcheck:Leak
   match-leak-kinds: reachable
   fun:malloc
   fun:_ZN4llvm11safe_mallocEm
   fun:_ZN4llvm9StringMapIPNS_2cl6OptionENS_15MallocAllocatorEE11try_emplaceIIS3_EEESt4pairINS_17StringMapIteratorIS3_EEbENS_9StringRefEDpOT_
   fun:_ZN12_GLOBAL__N_117CommandLineParser9addOptionEPN4llvm2cl6OptionEPNS2_10SubCommandE.constprop.393
   fun:_ZN12_GLOBAL__N_117CommandLineParser9addOptionEPN4llvm2cl6OptionEb
   fun:_ZN4llvm2cl6Option11addArgumentEv
   fun:_GLOBAL__sub_I_Attributor.cpp
   fun:call_init.part.0
   fun:call_init
   fun:_dl_init
   obj:/usr/lib/x86_64-linux-gnu/ld-linux-x86-64.so.2
}
{
   <insert_a_suppression_name_here>
   Memcheck:Leak
   match-leak-kinds: reachable
   fun:malloc
   fun:_ZN4llvm11safe_mallocEm
   fun:_ZN4llvm9StringMapIPNS_2cl6OptionENS_15MallocAllocatorEE11try_emplaceIIS3_EEESt4pairINS_17StringMapIteratorIS3_EEbENS_9StringRefEDpOT_
   fun:_ZN12_GLOBAL__N_117CommandLineParser9addOptionEPN4llvm2cl6OptionEPNS2_10SubCommandE.constprop.393
   fun:_ZN12_GLOBAL__N_117CommandLineParser9addOptionEPN4llvm2cl6OptionEb
   fun:_ZN4llvm2cl6Option11addArgumentEv
   fun:_GLOBAL__sub_I_ADCE.cpp
   fun:call_init.part.0
   fun:call_init
   fun:_dl_init
   obj:/usr/lib/x86_64-linux-gnu/ld-linux-x86-64.so.2
}
{
   <insert_a_suppression_name_here>
   Memcheck:Leak
   match-leak-kinds: reachable
   fun:_Znwm
   fun:_ZNSs4_Rep9_S_createEmmRKSaIcE
   fun:_ZNSs12_S_constructIPKcEEPcT_S3_RKSaIcESt20forward_iterator_tag
   fun:_ZNSsC1EPKcmRKSaIcE
   fun:_ZNK4llvm9StringRef3strEv
   fun:_GLOBAL__sub_I_EarlyCSE.cpp
   fun:call_init.part.0
   fun:call_init
   fun:_dl_init
   obj:/usr/lib/x86_64-linux-gnu/ld-linux-x86-64.so.2
}
{
   <insert_a_suppression_name_here>
   Memcheck:Leak
   match-leak-kinds: reachable
   fun:malloc
   fun:_ZN4llvm11safe_mallocEm
   fun:_ZN4llvm9StringMapIPNS_2cl6OptionENS_15MallocAllocatorEE11try_emplaceIIS3_EEESt4pairINS_17StringMapIteratorIS3_EEbENS_9StringRefEDpOT_
   fun:_ZN12_GLOBAL__N_117CommandLineParser9addOptionEPN4llvm2cl6OptionEPNS2_10SubCommandE.constprop.393
   fun:_ZN12_GLOBAL__N_117CommandLineParser9addOptionEPN4llvm2cl6OptionEb
   fun:_ZN4llvm2cl6Option11addArgumentEv
   fun:_Z41__static_initialization_and_destruction_0ii.constprop.669
   fun:call_init.part.0
   fun:call_init
   fun:_dl_init
   obj:/usr/lib/x86_64-linux-gnu/ld-linux-x86-64.so.2
}
{
   <insert_a_suppression_name_here>
   Memcheck:Leak
   match-leak-kinds: reachable
   fun:_Znwm
   fun:_ZNSs4_Rep9_S_createEmmRKSaIcE
   fun:_ZNSs12_S_constructIPKcEEPcT_S3_RKSaIcESt20forward_iterator_tag
   fun:_ZNSsC1EPKcmRKSaIcE
   fun:_ZNK4llvm9StringRef3strEv
   fun:_ZN4llvm12DebugCounter15registerCounterENS_9StringRefES1_
   fun:_GLOBAL__sub_I_NewGVN.cpp
   fun:call_init.part.0
   fun:call_init
   fun:_dl_init
   obj:/usr/lib/x86_64-linux-gnu/ld-linux-x86-64.so.2
}
{
   <insert_a_suppression_name_here>
   Memcheck:Leak
   match-leak-kinds: reachable
   fun:malloc
   fun:_ZN4llvm11safe_mallocEm
   fun:_ZN4llvm9StringMapIPNS_2cl6OptionENS_15MallocAllocatorEE11try_emplaceIIS3_EEESt4pairINS_17StringMapIteratorIS3_EEbENS_9StringRefEDpOT_
   fun:_ZN12_GLOBAL__N_117CommandLineParser9addOptionEPN4llvm2cl6OptionEPNS2_10SubCommandE.constprop.393
   fun:_ZN12_GLOBAL__N_117CommandLineParser9addOptionEPN4llvm2cl6OptionEb
   fun:_ZN4llvm2cl6Option11addArgumentEv
   fun:_GLOBAL__sub_I_NewGVN.cpp
   fun:call_init.part.0
   fun:call_init
   fun:_dl_init
   obj:/usr/lib/x86_64-linux-gnu/ld-linux-x86-64.so.2
}
{
   <insert_a_suppression_name_here>
   Memcheck:Leak
   match-leak-kinds: reachable
   fun:malloc
   fun:_ZN4llvm11safe_mallocEm
   fun:_ZN4llvm9StringMapIPNS_2cl6OptionENS_15MallocAllocatorEE11try_emplaceIIS3_EEESt4pairINS_17StringMapIteratorIS3_EEbENS_9StringRefEDpOT_
   fun:_ZN12_GLOBAL__N_117CommandLineParser9addOptionEPN4llvm2cl6OptionEPNS2_10SubCommandE.constprop.393
   fun:_ZN12_GLOBAL__N_117CommandLineParser9addOptionEPN4llvm2cl6OptionEb
   fun:_ZN4llvm2cl6Option11addArgumentEv
   fun:_Z41__static_initialization_and_destruction_0ii.constprop.304
   fun:call_init.part.0
   fun:call_init
   fun:_dl_init
   obj:/usr/lib/x86_64-linux-gnu/ld-linux-x86-64.so.2
}
{
   <insert_a_suppression_name_here>
   Memcheck:Leak
   match-leak-kinds: reachable
   fun:malloc
   fun:_ZN4llvm11safe_mallocEm
   fun:_ZN4llvm9StringMapIPNS_2cl6OptionENS_15MallocAllocatorEE11try_emplaceIIS3_EEESt4pairINS_17StringMapIteratorIS3_EEbENS_9StringRefEDpOT_
   fun:_ZN12_GLOBAL__N_117CommandLineParser9addOptionEPN4llvm2cl6OptionEPNS2_10SubCommandE.constprop.393
   fun:_ZN12_GLOBAL__N_117CommandLineParser9addOptionEPN4llvm2cl6OptionEb
   fun:_ZN4llvm2cl6Option11addArgumentEv
   fun:_GLOBAL__sub_I_VPlanVerifier.cpp
   fun:call_init.part.0
   fun:call_init
   fun:_dl_init
   obj:/usr/lib/x86_64-linux-gnu/ld-linux-x86-64.so.2
}
{
   <insert_a_suppression_name_here>
   Memcheck:Leak
   match-leak-kinds: reachable
   fun:malloc
   fun:_ZN4llvm11safe_mallocEm
   fun:_ZN4llvm9StringMapIPNS_2cl6OptionENS_15MallocAllocatorEE11try_emplaceIIS3_EEESt4pairINS_17StringMapIteratorIS3_EEbENS_9StringRefEDpOT_
   fun:_ZN12_GLOBAL__N_117CommandLineParser9addOptionEPN4llvm2cl6OptionEPNS2_10SubCommandE.constprop.393
   fun:_ZN12_GLOBAL__N_117CommandLineParser9addOptionEPN4llvm2cl6OptionEb
   fun:_ZN4llvm2cl6Option11addArgumentEv
   fun:_GLOBAL__sub_I_LCSSA.cpp
   fun:call_init.part.0
   fun:call_init
   fun:_dl_init
   obj:/usr/lib/x86_64-linux-gnu/ld-linux-x86-64.so.2
}
{
   <insert_a_suppression_name_here>
   Memcheck:Leak
   match-leak-kinds: reachable
   fun:malloc
   fun:_ZN4llvm11safe_mallocEm
   fun:_ZN4llvm9StringMapIPNS_2cl6OptionENS_15MallocAllocatorEE11try_emplaceIIS3_EEESt4pairINS_17StringMapIteratorIS3_EEbENS_9StringRefEDpOT_
   fun:_ZN12_GLOBAL__N_117CommandLineParser9addOptionEPN4llvm2cl6OptionEPNS2_10SubCommandE.constprop.393
   fun:_ZN12_GLOBAL__N_117CommandLineParser9addOptionEPN4llvm2cl6OptionEb
   fun:_ZN4llvm2cl6Option11addArgumentEv
   fun:_GLOBAL__sub_I_MemorySSA.cpp
   fun:call_init.part.0
   fun:call_init
   fun:_dl_init
   obj:/usr/lib/x86_64-linux-gnu/ld-linux-x86-64.so.2
}
{
   <insert_a_suppression_name_here>
   Memcheck:Leak
   match-leak-kinds: reachable
   fun:malloc
   fun:_ZN4llvm11safe_mallocEm
   fun:_ZN4llvm9StringMapIPNS_2cl6OptionENS_15MallocAllocatorEE11try_emplaceIIS3_EEESt4pairINS_17StringMapIteratorIS3_EEbENS_9StringRefEDpOT_
   fun:_ZN12_GLOBAL__N_117CommandLineParser9addOptionEPN4llvm2cl6OptionEPNS2_10SubCommandE.constprop.393
   fun:_ZN12_GLOBAL__N_117CommandLineParser9addOptionEPN4llvm2cl6OptionEb
   fun:_ZN4llvm2cl6Option11addArgumentEv
   fun:_GLOBAL__sub_I_X86TargetMachine.cpp
   fun:call_init.part.0
   fun:call_init
   fun:_dl_init
   obj:/usr/lib/x86_64-linux-gnu/ld-linux-x86-64.so.2
}
{
   <insert_a_suppression_name_here>
   Memcheck:Leak
   match-leak-kinds: reachable
   fun:malloc
   fun:_ZN4llvm11safe_mallocEm
   fun:_ZN4llvm9StringMapIPNS_2cl6OptionENS_15MallocAllocatorEE11try_emplaceIIS3_EEESt4pairINS_17StringMapIteratorIS3_EEbENS_9StringRefEDpOT_
   fun:_ZN12_GLOBAL__N_117CommandLineParser9addOptionEPN4llvm2cl6OptionEPNS2_10SubCommandE.constprop.393
   fun:_ZN12_GLOBAL__N_117CommandLineParser9addOptionEPN4llvm2cl6OptionEb
   fun:_ZN4llvm2cl6Option11addArgumentEv
   fun:_GLOBAL__sub_I_X86CmovConversion.cpp
   fun:call_init.part.0
   fun:call_init
   fun:_dl_init
   obj:/usr/lib/x86_64-linux-gnu/ld-linux-x86-64.so.2
}
{
   <insert_a_suppression_name_here>
   Memcheck:Leak
   match-leak-kinds: reachable
   fun:malloc
   fun:_ZN4llvm11safe_mallocEm
   fun:_ZN4llvm9StringMapIPNS_2cl6OptionENS_15MallocAllocatorEE11try_emplaceIIS3_EEESt4pairINS_17StringMapIteratorIS3_EEbENS_9StringRefEDpOT_
   fun:_ZN12_GLOBAL__N_117CommandLineParser9addOptionEPN4llvm2cl6OptionEPNS2_10SubCommandE.constprop.393
   fun:_ZN12_GLOBAL__N_117CommandLineParser9addOptionEPN4llvm2cl6OptionEb
   fun:_ZN4llvm2cl6Option11addArgumentEv
   fun:_ZN4llvm2cl3optIbLb0ENS0_6parserIbEEEC1IIA19_cNS0_11initializerIbEENS0_4descENS0_12OptionHiddenEEEEDpRKT_
   fun:_GLOBAL__sub_I_X86ISelDAGToDAG.cpp
   fun:call_init.part.0
   fun:call_init
   fun:_dl_init
   obj:/usr/lib/x86_64-linux-gnu/ld-linux-x86-64.so.2
}
{
   <insert_a_suppression_name_here>
   Memcheck:Leak
   match-leak-kinds: reachable
   fun:malloc
   fun:_ZN4llvm11safe_mallocEm
   fun:_ZN4llvm9StringMapIPNS_2cl6OptionENS_15MallocAllocatorEE11try_emplaceIIS3_EEESt4pairINS_17StringMapIteratorIS3_EEbENS_9StringRefEDpOT_
   fun:_ZN12_GLOBAL__N_117CommandLineParser9addOptionEPN4llvm2cl6OptionEPNS2_10SubCommandE.constprop.393
   fun:_ZN12_GLOBAL__N_117CommandLineParser9addOptionEPN4llvm2cl6OptionEb
   fun:_ZN4llvm2cl6Option11addArgumentEv
   fun:_GLOBAL__sub_I_MachineBranchProbabilityInfo.cpp
   fun:call_init.part.0
   fun:call_init
   fun:_dl_init
   obj:/usr/lib/x86_64-linux-gnu/ld-linux-x86-64.so.2
}
{
   <insert_a_suppression_name_here>
   Memcheck:Leak
   match-leak-kinds: reachable
   fun:malloc
   fun:_ZN4llvm11safe_mallocEm
   fun:_ZN4llvm9StringMapIPNS_2cl6OptionENS_15MallocAllocatorEE11try_emplaceIIS3_EEESt4pairINS_17StringMapIteratorIS3_EEbENS_9StringRefEDpOT_
   fun:_ZN12_GLOBAL__N_117CommandLineParser9addOptionEPN4llvm2cl6OptionEPNS2_10SubCommandE.constprop.393
   fun:_ZN12_GLOBAL__N_117CommandLineParser9addOptionEPN4llvm2cl6OptionEb
   fun:_ZN4llvm2cl6Option11addArgumentEv
   fun:_GLOBAL__sub_I_ScheduleDAGInstrs.cpp
   fun:call_init.part.0
   fun:call_init
   fun:_dl_init
   obj:/usr/lib/x86_64-linux-gnu/ld-linux-x86-64.so.2
}
{
   <insert_a_suppression_name_here>
   Memcheck:Leak
   match-leak-kinds: reachable
   fun:malloc
   fun:_ZN4llvm11safe_mallocEm
   fun:_ZN4llvm9StringMapIPNS_2cl6OptionENS_15MallocAllocatorEE11try_emplaceIIS3_EEESt4pairINS_17StringMapIteratorIS3_EEbENS_9StringRefEDpOT_
   fun:_ZN12_GLOBAL__N_117CommandLineParser9addOptionEPN4llvm2cl6OptionEPNS2_10SubCommandE.constprop.393
   fun:_ZN12_GLOBAL__N_117CommandLineParser9addOptionEPN4llvm2cl6OptionEb
   fun:_ZN4llvm2cl6Option11addArgumentEv
   fun:_GLOBAL__sub_I_TwoAddressInstructionPass.cpp
   fun:call_init.part.0
   fun:call_init
   fun:_dl_init
   obj:/usr/lib/x86_64-linux-gnu/ld-linux-x86-64.so.2
}
{
   <insert_a_suppression_name_here>
   Memcheck:Leak
   match-leak-kinds: reachable
   fun:malloc
   fun:_ZN4llvm11safe_mallocEm
   fun:_ZN4llvm9StringMapIPNS_2cl6OptionENS_15MallocAllocatorEE11try_emplaceIIS3_EEESt4pairINS_17StringMapIteratorIS3_EEbENS_9StringRefEDpOT_
   fun:_ZN12_GLOBAL__N_117CommandLineParser9addOptionEPN4llvm2cl6OptionEPNS2_10SubCommandE.constprop.393
   fun:_ZN12_GLOBAL__N_117CommandLineParser9addOptionEPN4llvm2cl6OptionEb
   fun:_ZN4llvm2cl6Option11addArgumentEv
   fun:_GLOBAL__sub_I_MIRCanonicalizerPass.cpp
   fun:call_init.part.0
   fun:call_init
   fun:_dl_init
   obj:/usr/lib/x86_64-linux-gnu/ld-linux-x86-64.so.2
}
{
   <insert_a_suppression_name_here>
   Memcheck:Leak
   match-leak-kinds: reachable
   fun:malloc
   fun:_ZN4llvm11safe_mallocEm
   fun:_ZN4llvm9StringMapIPNS_2cl6OptionENS_15MallocAllocatorEE11try_emplaceIIS3_EEESt4pairINS_17StringMapIteratorIS3_EEbENS_9StringRefEDpOT_
   fun:_ZN12_GLOBAL__N_117CommandLineParser9addOptionEPN4llvm2cl6OptionEPNS2_10SubCommandE.constprop.393
   fun:_ZN12_GLOBAL__N_117CommandLineParser9addOptionEPN4llvm2cl6OptionEb
   fun:_ZN4llvm2cl6Option11addArgumentEv
   fun:_ZN4llvm2cl3optINS0_13boolOrDefaultELb0ENS0_6parserIS2_EEEC1IIA19_cNS0_12OptionHiddenENS0_4descEEEEDpRKT_
   fun:_GLOBAL__sub_I_ShrinkWrap.cpp
   fun:call_init.part.0
   fun:call_init
   fun:_dl_init
   obj:/usr/lib/x86_64-linux-gnu/ld-linux-x86-64.so.2
}
{
   <insert_a_suppression_name_here>
   Memcheck:Leak
   match-leak-kinds: reachable
   fun:malloc
   fun:_ZN4llvm11safe_mallocEm
   fun:_ZN4llvm9StringMapIPNS_2cl6OptionENS_15MallocAllocatorEE11try_emplaceIIS3_EEESt4pairINS_17StringMapIteratorIS3_EEbENS_9StringRefEDpOT_
   fun:_ZN12_GLOBAL__N_117CommandLineParser9addOptionEPN4llvm2cl6OptionEPNS2_10SubCommandE.constprop.393
   fun:_ZN12_GLOBAL__N_117CommandLineParser9addOptionEPN4llvm2cl6OptionEb
   fun:_ZN4llvm2cl6Option11addArgumentEv
   fun:_Z41__static_initialization_and_destruction_0ii.constprop.595
   fun:call_init.part.0
   fun:call_init
   fun:_dl_init
   obj:/usr/lib/x86_64-linux-gnu/ld-linux-x86-64.so.2
}
{
   <insert_a_suppression_name_here>
   Memcheck:Leak
   match-leak-kinds: reachable
   fun:malloc
   fun:_ZN4llvm11safe_mallocEm
   fun:_ZN4llvm9StringMapIPNS_2cl6OptionENS_15MallocAllocatorEE11try_emplaceIIS3_EEESt4pairINS_17StringMapIteratorIS3_EEbENS_9StringRefEDpOT_
   fun:_ZN12_GLOBAL__N_117CommandLineParser9addOptionEPN4llvm2cl6OptionEPNS2_10SubCommandE.constprop.393
   fun:_ZN12_GLOBAL__N_117CommandLineParser9addOptionEPN4llvm2cl6OptionEb
   fun:_ZN4llvm2cl6Option11addArgumentEv
   fun:_GLOBAL__sub_I_InstructionCombining.cpp
   fun:call_init.part.0
   fun:call_init
   fun:_dl_init
   obj:/usr/lib/x86_64-linux-gnu/ld-linux-x86-64.so.2
}
{
   <insert_a_suppression_name_here>
   Memcheck:Leak
   match-leak-kinds: reachable
   fun:malloc
   fun:_ZN4llvm11safe_mallocEm
   fun:_ZN4llvm9StringMapIPNS_2cl6OptionENS_15MallocAllocatorEE11try_emplaceIIS3_EEESt4pairINS_17StringMapIteratorIS3_EEbENS_9StringRefEDpOT_
   fun:_ZN12_GLOBAL__N_117CommandLineParser9addOptionEPN4llvm2cl6OptionEPNS2_10SubCommandE.constprop.393
   fun:_ZN12_GLOBAL__N_117CommandLineParser9addOptionEPN4llvm2cl6OptionEb
   fun:_ZN4llvm2cl6Option11addArgumentEv
   fun:_Z41__static_initialization_and_destruction_0ii.constprop.372
   fun:call_init.part.0
   fun:call_init
   fun:_dl_init
   obj:/usr/lib/x86_64-linux-gnu/ld-linux-x86-64.so.2
}
{
   <insert_a_suppression_name_here>
   Memcheck:Leak
   match-leak-kinds: reachable
   fun:malloc
   fun:_ZN4llvm11safe_mallocEm
   fun:_ZN4llvm9StringMapIPNS_2cl6OptionENS_15MallocAllocatorEE11try_emplaceIIS3_EEESt4pairINS_17StringMapIteratorIS3_EEbENS_9StringRefEDpOT_
   fun:_ZN12_GLOBAL__N_117CommandLineParser9addOptionEPN4llvm2cl6OptionEPNS2_10SubCommandE.constprop.393
   fun:_ZN12_GLOBAL__N_117CommandLineParser9addOptionEPN4llvm2cl6OptionEb
   fun:_ZN4llvm2cl6Option11addArgumentEv
   fun:_ZN4llvm2cl3optI12DefaultOnOffLb0ENS0_6parserIS2_EEEC1IIA19_cNS0_12OptionHiddenENS0_4descENS0_11ValuesClassENS0_11initializerIS2_EEEEEDpRKT_
   fun:_Z41__static_initialization_and_destruction_0ii.constprop.67
   fun:call_init.part.0
   fun:call_init
   fun:_dl_init
   obj:/usr/lib/x86_64-linux-gnu/ld-linux-x86-64.so.2
}
{
   <insert_a_suppression_name_here>
   Memcheck:Leak
   match-leak-kinds: reachable
   fun:malloc
   fun:_ZN4llvm11safe_mallocEm
   fun:_ZN4llvm9StringMapIPNS_2cl6OptionENS_15MallocAllocatorEE11try_emplaceIIS3_EEESt4pairINS_17StringMapIteratorIS3_EEbENS_9StringRefEDpOT_
   fun:_ZN12_GLOBAL__N_117CommandLineParser9addOptionEPN4llvm2cl6OptionEPNS2_10SubCommandE.constprop.393
   fun:_ZN12_GLOBAL__N_117CommandLineParser9addOptionEPN4llvm2cl6OptionEb
   fun:_ZN4llvm2cl6Option11addArgumentEv
   fun:_ZN4llvm2cl3optIbLb0ENS0_6parserIbEEEC1IIA20_cNS0_11initializerIbEENS0_12OptionHiddenENS0_4descEEEEDpRKT_
   fun:_GLOBAL__sub_I_TargetTransformInfo.cpp
   fun:call_init.part.0
   fun:call_init
   fun:_dl_init
   obj:/usr/lib/x86_64-linux-gnu/ld-linux-x86-64.so.2
}
{
   <insert_a_suppression_name_here>
   Memcheck:Leak
   match-leak-kinds: reachable
   fun:malloc
   fun:_ZN4llvm11safe_mallocEm
   fun:_ZN4llvm9StringMapIPNS_2cl6OptionENS_15MallocAllocatorEE11try_emplaceIIS3_EEESt4pairINS_17StringMapIteratorIS3_EEbENS_9StringRefEDpOT_
   fun:_ZN12_GLOBAL__N_117CommandLineParser9addOptionEPN4llvm2cl6OptionEPNS2_10SubCommandE.constprop.393
   fun:_ZN12_GLOBAL__N_117CommandLineParser9addOptionEPN4llvm2cl6OptionEb
   fun:_ZN4llvm2cl6Option11addArgumentEv
   fun:_ZN4llvm2cl3optISsLb0ENS0_6parserISsEEEC1IIA20_cNS0_4descENS0_12OptionHiddenEEEEDpRKT_
   fun:_GLOBAL__sub_I_X86InsertPrefetch.cpp
   fun:call_init.part.0
   fun:call_init
   fun:_dl_init
   obj:/usr/lib/x86_64-linux-gnu/ld-linux-x86-64.so.2
}
{
   <insert_a_suppression_name_here>
   Memcheck:Leak
   match-leak-kinds: reachable
   fun:malloc
   fun:_ZN4llvm11safe_mallocEm
   fun:_ZN4llvm9StringMapIPNS_2cl6OptionENS_15MallocAllocatorEE11try_emplaceIIS3_EEESt4pairINS_17StringMapIteratorIS3_EEbENS_9StringRefEDpOT_
   fun:_ZN12_GLOBAL__N_117CommandLineParser9addOptionEPN4llvm2cl6OptionEPNS2_10SubCommandE.constprop.393
   fun:_ZN12_GLOBAL__N_117CommandLineParser9addOptionEPN4llvm2cl6OptionEb
   fun:_ZN4llvm2cl6Option11addArgumentEv
   fun:_GLOBAL__sub_I_X86InstrInfo.cpp
   fun:call_init.part.0
   fun:call_init
   fun:_dl_init
   obj:/usr/lib/x86_64-linux-gnu/ld-linux-x86-64.so.2
}
{
   <insert_a_suppression_name_here>
   Memcheck:Leak
   match-leak-kinds: reachable
   fun:malloc
   fun:_ZN4llvm11safe_mallocEm
   fun:_ZN4llvm9StringMapIPNS_2cl6OptionENS_15MallocAllocatorEE11try_emplaceIIS3_EEESt4pairINS_17StringMapIteratorIS3_EEbENS_9StringRefEDpOT_
   fun:_ZN12_GLOBAL__N_117CommandLineParser9addOptionEPN4llvm2cl6OptionEPNS2_10SubCommandE.constprop.393
   fun:_ZN12_GLOBAL__N_117CommandLineParser9addOptionEPN4llvm2cl6OptionEb
   fun:_ZN4llvm2cl6Option11addArgumentEv
   fun:_GLOBAL__sub_I_X86OptimizeLEAs.cpp
   fun:call_init.part.0
   fun:call_init
   fun:_dl_init
   obj:/usr/lib/x86_64-linux-gnu/ld-linux-x86-64.so.2
}
{
   <insert_a_suppression_name_here>
   Memcheck:Leak
   match-leak-kinds: reachable
   fun:malloc
   fun:_ZN4llvm11safe_mallocEm
   fun:_ZN4llvm9StringMapIPNS_2cl6OptionENS_15MallocAllocatorEE11try_emplaceIIS3_EEESt4pairINS_17StringMapIteratorIS3_EEbENS_9StringRefEDpOT_
   fun:_ZN12_GLOBAL__N_117CommandLineParser9addOptionEPN4llvm2cl6OptionEPNS2_10SubCommandE.constprop.393
   fun:_ZN12_GLOBAL__N_117CommandLineParser9addOptionEPN4llvm2cl6OptionEb
   fun:_ZN4llvm2cl6Option11addArgumentEv
   fun:_GLOBAL__sub_I_SelectionDAG.cpp
   fun:call_init.part.0
   fun:call_init
   fun:_dl_init
   obj:/usr/lib/x86_64-linux-gnu/ld-linux-x86-64.so.2
}
{
   <insert_a_suppression_name_here>
   Memcheck:Leak
   match-leak-kinds: reachable
   fun:malloc
   fun:_ZN4llvm11safe_mallocEm
   fun:_ZN4llvm9StringMapIPNS_2cl6OptionENS_15MallocAllocatorEE11try_emplaceIIS3_EEESt4pairINS_17StringMapIteratorIS3_EEbENS_9StringRefEDpOT_
   fun:_ZN12_GLOBAL__N_117CommandLineParser9addOptionEPN4llvm2cl6OptionEPNS2_10SubCommandE.constprop.393
   fun:_ZN12_GLOBAL__N_117CommandLineParser9addOptionEPN4llvm2cl6OptionEb
   fun:_ZN4llvm2cl6Option11addArgumentEv
   fun:_ZN4llvm2cl3optIjLb0ENS0_6parserIjEEEC1IIA20_cNS0_4descENS0_11initializerIiEENS0_12OptionHiddenEEEEDpRKT_
   fun:_GLOBAL__sub_I_MachineFunction.cpp
   fun:call_init.part.0
   fun:call_init
   fun:_dl_init
   obj:/usr/lib/x86_64-linux-gnu/ld-linux-x86-64.so.2
}
{
   <insert_a_suppression_name_here>
   Memcheck:Leak
   match-leak-kinds: reachable
   fun:malloc
   fun:_ZN4llvm11safe_mallocEm
   fun:_ZN4llvm9StringMapIPNS_2cl6OptionENS_15MallocAllocatorEE11try_emplaceIIS3_EEESt4pairINS_17StringMapIteratorIS3_EEbENS_9StringRefEDpOT_
   fun:_ZN12_GLOBAL__N_117CommandLineParser9addOptionEPN4llvm2cl6OptionEPNS2_10SubCommandE.constprop.393
   fun:_ZN12_GLOBAL__N_117CommandLineParser9addOptionEPN4llvm2cl6OptionEb
   fun:_ZN4llvm2cl6Option11addArgumentEv
   fun:_GLOBAL__sub_I_SafeStackColoring.cpp
   fun:call_init.part.0
   fun:call_init
   fun:_dl_init
   obj:/usr/lib/x86_64-linux-gnu/ld-linux-x86-64.so.2
}
{
   <insert_a_suppression_name_here>
   Memcheck:Leak
   match-leak-kinds: reachable
   fun:malloc
   fun:_ZN4llvm11safe_mallocEm
   fun:_ZN4llvm9StringMapIPNS_2cl6OptionENS_15MallocAllocatorEE11try_emplaceIIS3_EEESt4pairINS_17StringMapIteratorIS3_EEbENS_9StringRefEDpOT_
   fun:_ZN12_GLOBAL__N_117CommandLineParser9addOptionEPN4llvm2cl6OptionEPNS2_10SubCommandE.constprop.393
   fun:_ZN12_GLOBAL__N_117CommandLineParser9addOptionEPN4llvm2cl6OptionEb
   fun:_ZN4llvm2cl6Option11addArgumentEv
   fun:_GLOBAL__sub_I_InlineSpiller.cpp
   fun:call_init.part.0
   fun:call_init
   fun:_dl_init
   obj:/usr/lib/x86_64-linux-gnu/ld-linux-x86-64.so.2
}
{
   <insert_a_suppression_name_here>
   Memcheck:Leak
   match-leak-kinds: reachable
   fun:malloc
   fun:_ZN4llvm11safe_mallocEm
   fun:_ZN4llvm9StringMapIPNS_2cl6OptionENS_15MallocAllocatorEE11try_emplaceIIS3_EEESt4pairINS_17StringMapIteratorIS3_EEbENS_9StringRefEDpOT_
   fun:_ZN12_GLOBAL__N_117CommandLineParser9addOptionEPN4llvm2cl6OptionEPNS2_10SubCommandE.constprop.393
   fun:_ZN12_GLOBAL__N_117CommandLineParser9addOptionEPN4llvm2cl6OptionEb
   fun:_ZN4llvm2cl6Option11addArgumentEv
   fun:_Z41__static_initialization_and_destruction_0ii.constprop.601
   fun:call_init.part.0
   fun:call_init
   fun:_dl_init
   obj:/usr/lib/x86_64-linux-gnu/ld-linux-x86-64.so.2
}
{
   <insert_a_suppression_name_here>
   Memcheck:Leak
   match-leak-kinds: reachable
   fun:malloc
   fun:_ZN4llvm11safe_mallocEm
   fun:_ZN4llvm9StringMapIPNS_2cl6OptionENS_15MallocAllocatorEE11try_emplaceIIS3_EEESt4pairINS_17StringMapIteratorIS3_EEbENS_9StringRefEDpOT_
   fun:_ZN12_GLOBAL__N_117CommandLineParser9addOptionEPN4llvm2cl6OptionEPNS2_10SubCommandE.constprop.393
   fun:_ZN12_GLOBAL__N_117CommandLineParser9addOptionEPN4llvm2cl6OptionEb
   fun:_ZN4llvm2cl6Option11addArgumentEv
   fun:_GLOBAL__sub_I_EarlyCSE.cpp
   fun:call_init.part.0
   fun:call_init
   fun:_dl_init
   obj:/usr/lib/x86_64-linux-gnu/ld-linux-x86-64.so.2
}
{
   <insert_a_suppression_name_here>
   Memcheck:Leak
   match-leak-kinds: reachable
   fun:malloc
   fun:_ZN4llvm11safe_mallocEm
   fun:_ZN4llvm9StringMapIPNS_2cl6OptionENS_15MallocAllocatorEE11try_emplaceIIS3_EEESt4pairINS_17StringMapIteratorIS3_EEbENS_9StringRefEDpOT_
   fun:_ZN12_GLOBAL__N_117CommandLineParser9addOptionEPN4llvm2cl6OptionEPNS2_10SubCommandE.constprop.393
   fun:_ZN12_GLOBAL__N_117CommandLineParser9addOptionEPN4llvm2cl6OptionEb
   fun:_ZN4llvm2cl6Option11addArgumentEv
   fun:_Z41__static_initialization_and_destruction_0ii.constprop.921
   fun:call_init.part.0
   fun:call_init
   fun:_dl_init
   obj:/usr/lib/x86_64-linux-gnu/ld-linux-x86-64.so.2
}
{
   <insert_a_suppression_name_here>
   Memcheck:Leak
   match-leak-kinds: reachable
   fun:malloc
   fun:_ZN4llvm11safe_mallocEm
   fun:_ZN4llvm9StringMapIPNS_2cl6OptionENS_15MallocAllocatorEE11try_emplaceIIS3_EEESt4pairINS_17StringMapIteratorIS3_EEbENS_9StringRefEDpOT_
   fun:_ZN12_GLOBAL__N_117CommandLineParser9addOptionEPN4llvm2cl6OptionEPNS2_10SubCommandE.constprop.393
   fun:_ZN12_GLOBAL__N_117CommandLineParser9addOptionEPN4llvm2cl6OptionEb
   fun:_ZN4llvm2cl6Option11addArgumentEv
   fun:_GLOBAL__sub_I_RegionPrinter.cpp
   fun:call_init.part.0
   fun:call_init
   fun:_dl_init
   obj:/usr/lib/x86_64-linux-gnu/ld-linux-x86-64.so.2
}
{
   <insert_a_suppression_name_here>
   Memcheck:Leak
   match-leak-kinds: reachable
   fun:malloc
   fun:_ZN4llvm11safe_mallocEm
   fun:_ZN4llvm9StringMapIPNS_2cl6OptionENS_15MallocAllocatorEE11try_emplaceIIS3_EEESt4pairINS_17StringMapIteratorIS3_EEbENS_9StringRefEDpOT_
   fun:_ZN12_GLOBAL__N_117CommandLineParser9addOptionEPN4llvm2cl6OptionEPNS2_10SubCommandE.constprop.393
   fun:_ZN12_GLOBAL__N_117CommandLineParser9addOptionEPN4llvm2cl6OptionEb
   fun:_ZN4llvm2cl6Option11addArgumentEv
   fun:_ZN4llvm2cl3optIbLb1ENS0_6parserIbEEEC1IIA21_cNS0_4descENS0_13LocationClassIbEENS0_11initializerIbEENS0_12OptionHiddenEEEEDpRKT_
   fun:_GLOBAL__sub_I_ObjCARCAnalysisUtils.cpp
   fun:call_init.part.0
   fun:call_init
   fun:_dl_init
   obj:/usr/lib/x86_64-linux-gnu/ld-linux-x86-64.so.2
}
{
   <insert_a_suppression_name_here>
   Memcheck:Leak
   match-leak-kinds: reachable
   fun:malloc
   fun:_ZN4llvm11safe_mallocEm
   fun:_ZN4llvm9StringMapIPNS_2cl6OptionENS_15MallocAllocatorEE11try_emplaceIIS3_EEESt4pairINS_17StringMapIteratorIS3_EEbENS_9StringRefEDpOT_
   fun:_ZN12_GLOBAL__N_117CommandLineParser9addOptionEPN4llvm2cl6OptionEPNS2_10SubCommandE.constprop.393
   fun:_ZN12_GLOBAL__N_117CommandLineParser9addOptionEPN4llvm2cl6OptionEb
   fun:_ZN4llvm2cl6Option11addArgumentEv
   fun:_GLOBAL__sub_I_X86RegisterInfo.cpp
   fun:call_init.part.0
   fun:call_init
   fun:_dl_init
   obj:/usr/lib/x86_64-linux-gnu/ld-linux-x86-64.so.2
}
{
   <insert_a_suppression_name_here>
   Memcheck:Leak
   match-leak-kinds: reachable
   fun:malloc
   fun:_ZN4llvm11safe_mallocEm
   fun:_ZN4llvm9StringMapIPNS_2cl6OptionENS_15MallocAllocatorEE11try_emplaceIIS3_EEESt4pairINS_17StringMapIteratorIS3_EEbENS_9StringRefEDpOT_
   fun:_ZN12_GLOBAL__N_117CommandLineParser9addOptionEPN4llvm2cl6OptionEPNS2_10SubCommandE.constprop.393
   fun:_ZN12_GLOBAL__N_117CommandLineParser9addOptionEPN4llvm2cl6OptionEb
   fun:_ZN4llvm2cl6Option11addArgumentEv
   fun:_GLOBAL__sub_I_Core.cpp
   fun:call_init.part.0
   fun:call_init
   fun:_dl_init
   obj:/usr/lib/x86_64-linux-gnu/ld-linux-x86-64.so.2
}
{
   <insert_a_suppression_name_here>
   Memcheck:Leak
   match-leak-kinds: reachable
   fun:malloc
   fun:_ZN4llvm11safe_mallocEm
   fun:_ZN4llvm9StringMapIPNS_2cl6OptionENS_15MallocAllocatorEE11try_emplaceIIS3_EEESt4pairINS_17StringMapIteratorIS3_EEbENS_9StringRefEDpOT_
   fun:_ZN12_GLOBAL__N_117CommandLineParser9addOptionEPN4llvm2cl6OptionEPNS2_10SubCommandE.constprop.393
   fun:_ZN12_GLOBAL__N_117CommandLineParser9addOptionEPN4llvm2cl6OptionEb
   fun:_ZN4llvm2cl6Option11addArgumentEv
   fun:_GLOBAL__sub_I_TargetInstrInfo.cpp
   fun:call_init.part.0
   fun:call_init
   fun:_dl_init
   obj:/usr/lib/x86_64-linux-gnu/ld-linux-x86-64.so.2
}
{
   <insert_a_suppression_name_here>
   Memcheck:Leak
   match-leak-kinds: reachable
   fun:malloc
   fun:_ZN4llvm11safe_mallocEm
   fun:_ZN4llvm9StringMapIPNS_2cl6OptionENS_15MallocAllocatorEE11try_emplaceIIS3_EEESt4pairINS_17StringMapIteratorIS3_EEbENS_9StringRefEDpOT_
   fun:_ZN12_GLOBAL__N_117CommandLineParser9addOptionEPN4llvm2cl6OptionEPNS2_10SubCommandE.constprop.393
   fun:_ZN12_GLOBAL__N_117CommandLineParser9addOptionEPN4llvm2cl6OptionEb
   fun:_ZN4llvm2cl6Option11addArgumentEv
   fun:_GLOBAL__sub_I_ExpandMemCmp.cpp
   fun:call_init.part.0
   fun:call_init
   fun:_dl_init
   obj:/usr/lib/x86_64-linux-gnu/ld-linux-x86-64.so.2
}
{
   <insert_a_suppression_name_here>
   Memcheck:Leak
   match-leak-kinds: reachable
   fun:malloc
   fun:_ZN4llvm11safe_mallocEm
   fun:_ZN4llvm9StringMapIPNS_2cl6OptionENS_15MallocAllocatorEE11try_emplaceIIS3_EEESt4pairINS_17StringMapIteratorIS3_EEbENS_9StringRefEDpOT_
   fun:_ZN12_GLOBAL__N_117CommandLineParser9addOptionEPN4llvm2cl6OptionEPNS2_10SubCommandE.constprop.393
   fun:_ZN12_GLOBAL__N_117CommandLineParser9addOptionEPN4llvm2cl6OptionEb
   fun:_ZN4llvm2cl6Option11addArgumentEv
   fun:_Z41__static_initialization_and_destruction_0ii.constprop.174
   fun:call_init.part.0
   fun:call_init
   fun:_dl_init
   obj:/usr/lib/x86_64-linux-gnu/ld-linux-x86-64.so.2
}
{
   <insert_a_suppression_name_here>
   Memcheck:Leak
   match-leak-kinds: reachable
   fun:malloc
   fun:_ZN4llvm11safe_mallocEm
   fun:_ZN4llvm9StringMapIPNS_2cl6OptionENS_15MallocAllocatorEE11try_emplaceIIS3_EEESt4pairINS_17StringMapIteratorIS3_EEbENS_9StringRefEDpOT_
   fun:_ZN12_GLOBAL__N_117CommandLineParser9addOptionEPN4llvm2cl6OptionEPNS2_10SubCommandE.constprop.393
   fun:_ZN12_GLOBAL__N_117CommandLineParser9addOptionEPN4llvm2cl6OptionEb
   fun:_ZN4llvm2cl6Option11addArgumentEv
   fun:_ZN4llvm2cl3optIbLb0ENS0_6parserIbEEEC1IIA21_cNS0_11initializerIbEENS0_4descENS0_12OptionHiddenEEEEDpRKT_
   fun:_GLOBAL__sub_I_LiveDebugVariables.cpp
   fun:call_init.part.0
   fun:call_init
   fun:_dl_init
   obj:/usr/lib/x86_64-linux-gnu/ld-linux-x86-64.so.2
}
{
   <insert_a_suppression_name_here>
   Memcheck:Leak
   match-leak-kinds: reachable
   fun:malloc
   fun:_ZN4llvm11safe_mallocEm
   fun:_ZN4llvm9StringMapIPNS_2cl6OptionENS_15MallocAllocatorEE11try_emplaceIIS3_EEESt4pairINS_17StringMapIteratorIS3_EEbENS_9StringRefEDpOT_
   fun:_ZN12_GLOBAL__N_117CommandLineParser9addOptionEPN4llvm2cl6OptionEPNS2_10SubCommandE.constprop.393
   fun:_ZN12_GLOBAL__N_117CommandLineParser9addOptionEPN4llvm2cl6OptionEb
   fun:_ZN4llvm2cl6Option11addArgumentEv
   fun:_GLOBAL__sub_I_AggressiveAntiDepBreaker.cpp
   fun:call_init.part.0
   fun:call_init
   fun:_dl_init
   obj:/usr/lib/x86_64-linux-gnu/ld-linux-x86-64.so.2
}
{
   <insert_a_suppression_name_here>
   Memcheck:Leak
   match-leak-kinds: reachable
   fun:malloc
   fun:_ZN4llvm11safe_mallocEm
   fun:_ZN4llvm9StringMapIPNS_2cl6OptionENS_15MallocAllocatorEE11try_emplaceIIS3_EEESt4pairINS_17StringMapIteratorIS3_EEbENS_9StringRefEDpOT_
   fun:_ZN12_GLOBAL__N_117CommandLineParser9addOptionEPN4llvm2cl6OptionEPNS2_10SubCommandE.constprop.393
   fun:_ZN12_GLOBAL__N_117CommandLineParser9addOptionEPN4llvm2cl6OptionEb
   fun:_ZN4llvm2cl6Option11addArgumentEv
   fun:_GLOBAL__sub_I_LoopSink.cpp
   fun:call_init.part.0
   fun:call_init
   fun:_dl_init
   obj:/usr/lib/x86_64-linux-gnu/ld-linux-x86-64.so.2
}
{
   <insert_a_suppression_name_here>
   Memcheck:Leak
   match-leak-kinds: reachable
   fun:malloc
   fun:_ZN4llvm11safe_mallocEm
   fun:_ZN4llvm9StringMapIPNS_2cl6OptionENS_15MallocAllocatorEE11try_emplaceIIS3_EEESt4pairINS_17StringMapIteratorIS3_EEbENS_9StringRefEDpOT_
   fun:_ZN12_GLOBAL__N_117CommandLineParser9addOptionEPN4llvm2cl6OptionEPNS2_10SubCommandE.constprop.393
   fun:_ZN12_GLOBAL__N_117CommandLineParser9addOptionEPN4llvm2cl6OptionEb
   fun:_ZN4llvm2cl6Option11addArgumentEv
   fun:_GLOBAL__sub_I_LoopUnrollAndJamPass.cpp
   fun:call_init.part.0
   fun:call_init
   fun:_dl_init
   obj:/usr/lib/x86_64-linux-gnu/ld-linux-x86-64.so.2
}
{
   <insert_a_suppression_name_here>
   Memcheck:Leak
   match-leak-kinds: reachable
   fun:malloc
   fun:_ZN4llvm11safe_mallocEm
   fun:_ZN4llvm9StringMapIPNS_2cl6OptionENS_15MallocAllocatorEE11try_emplaceIIS3_EEESt4pairINS_17StringMapIteratorIS3_EEbENS_9StringRefEDpOT_
   fun:_ZN12_GLOBAL__N_117CommandLineParser9addOptionEPN4llvm2cl6OptionEPNS2_10SubCommandE.constprop.393
   fun:_ZN12_GLOBAL__N_117CommandLineParser9addOptionEPN4llvm2cl6OptionEb
   fun:_ZN4llvm2cl6Option11addArgumentEv
   fun:_GLOBAL__sub_I_LowerExpectIntrinsic.cpp
   fun:call_init.part.0
   fun:call_init
   fun:_dl_init
   obj:/usr/lib/x86_64-linux-gnu/ld-linux-x86-64.so.2
}
{
   <insert_a_suppression_name_here>
   Memcheck:Leak
   match-leak-kinds: reachable
   fun:malloc
   fun:_ZN4llvm11safe_mallocEm
   fun:_ZN4llvm9StringMapIPNS_2cl6OptionENS_15MallocAllocatorEE11try_emplaceIIS3_EEESt4pairINS_17StringMapIteratorIS3_EEbENS_9StringRefEDpOT_
   fun:_ZN12_GLOBAL__N_117CommandLineParser9addOptionEPN4llvm2cl6OptionEPNS2_10SubCommandE.constprop.393
   fun:_ZN12_GLOBAL__N_117CommandLineParser9addOptionEPN4llvm2cl6OptionEb
   fun:_ZN4llvm2cl6Option11addArgumentEv
   fun:_GLOBAL__sub_I_SROA.cpp
   fun:call_init.part.0
   fun:call_init
   fun:_dl_init
   obj:/usr/lib/x86_64-linux-gnu/ld-linux-x86-64.so.2
}
{
   <insert_a_suppression_name_here>
   Memcheck:Leak
   match-leak-kinds: reachable
   fun:malloc
   fun:_ZN4llvm11safe_mallocEm
   fun:_ZN4llvm9StringMapIPNS_2cl6OptionENS_15MallocAllocatorEE11try_emplaceIIS3_EEESt4pairINS_17StringMapIteratorIS3_EEbENS_9StringRefEDpOT_
   fun:_ZN12_GLOBAL__N_117CommandLineParser9addOptionEPN4llvm2cl6OptionEPNS2_10SubCommandE.constprop.393
   fun:_ZN12_GLOBAL__N_117CommandLineParser9addOptionEPN4llvm2cl6OptionEb
   fun:_ZN4llvm2cl6Option11addArgumentEv
   fun:_GLOBAL__sub_I_LoopVectorizationLegality.cpp
   fun:call_init.part.0
   fun:call_init
   fun:_dl_init
   obj:/usr/lib/x86_64-linux-gnu/ld-linux-x86-64.so.2
}
{
   <insert_a_suppression_name_here>
   Memcheck:Leak
   match-leak-kinds: reachable
   fun:malloc
   fun:_ZN4llvm11safe_mallocEm
   fun:_ZN4llvm9StringMapIPNS_2cl6OptionENS_15MallocAllocatorEE11try_emplaceIIS3_EEESt4pairINS_17StringMapIteratorIS3_EEbENS_9StringRefEDpOT_
   fun:_ZN12_GLOBAL__N_117CommandLineParser9addOptionEPN4llvm2cl6OptionEPNS2_10SubCommandE.constprop.393
   fun:_ZN12_GLOBAL__N_117CommandLineParser9addOptionEPN4llvm2cl6OptionEb
   fun:_ZN4llvm2cl6Option11addArgumentEv
   fun:_GLOBAL__sub_I_PredicateInfo.cpp
   fun:call_init.part.0
   fun:call_init
   fun:_dl_init
   obj:/usr/lib/x86_64-linux-gnu/ld-linux-x86-64.so.2
}
{
   <insert_a_suppression_name_here>
   Memcheck:Leak
   match-leak-kinds: reachable
   fun:malloc
   fun:_ZN4llvm11safe_mallocEm
   fun:_ZN4llvm9StringMapIPNS_2cl6OptionENS_15MallocAllocatorEE11try_emplaceIIS3_EEESt4pairINS_17StringMapIteratorIS3_EEbENS_9StringRefEDpOT_
   fun:_ZN12_GLOBAL__N_117CommandLineParser9addOptionEPN4llvm2cl6OptionEPNS2_10SubCommandE.constprop.393
   fun:_ZN12_GLOBAL__N_117CommandLineParser9addOptionEPN4llvm2cl6OptionEb
   fun:_ZN4llvm2cl6Option11addArgumentEv
   fun:_ZN4llvm2cl3optIbLb1ENS0_6parserIbEEEC1IIA22_cNS0_4descENS0_13LocationClassIbEENS0_12OptionHiddenEEEEDpRKT_
   fun:_GLOBAL__sub_I_Signals.cpp
   fun:call_init.part.0
   fun:call_init
   fun:_dl_init
   obj:/usr/lib/x86_64-linux-gnu/ld-linux-x86-64.so.2
}
{
   <insert_a_suppression_name_here>
   Memcheck:Leak
   match-leak-kinds: reachable
   fun:malloc
   fun:_ZN4llvm11safe_mallocEm
   fun:_ZN4llvm9StringMapIPNS_2cl6OptionENS_15MallocAllocatorEE11try_emplaceIIS3_EEESt4pairINS_17StringMapIteratorIS3_EEbENS_9StringRefEDpOT_
   fun:_ZN12_GLOBAL__N_117CommandLineParser9addOptionEPN4llvm2cl6OptionEPNS2_10SubCommandE.constprop.393
   fun:_ZN12_GLOBAL__N_117CommandLineParser9addOptionEPN4llvm2cl6OptionEb
   fun:_ZN4llvm2cl6Option11addArgumentEv
   fun:_GLOBAL__sub_I_ScopedNoAliasAA.cpp
   fun:call_init.part.0
   fun:call_init
   fun:_dl_init
   obj:/usr/lib/x86_64-linux-gnu/ld-linux-x86-64.so.2
}
{
   <insert_a_suppression_name_here>
   Memcheck:Leak
   match-leak-kinds: reachable
   fun:_Znwm
   fun:_ZNSs4_Rep9_S_createEmmRKSaIcE
   fun:_ZNSs12_S_constructIPKcEEPcT_S3_RKSaIcESt20forward_iterator_tag
   fun:_ZNSsC1EPKcmRKSaIcE
   fun:_ZNK4llvm9StringRef3strEv
   fun:_GLOBAL__sub_I_DCE.cpp
   fun:call_init.part.0
   fun:call_init
   fun:_dl_init
   obj:/usr/lib/x86_64-linux-gnu/ld-linux-x86-64.so.2
}
{
   <insert_a_suppression_name_here>
   Memcheck:Leak
   match-leak-kinds: reachable
   fun:malloc
   fun:_ZN4llvm11safe_mallocEm
   fun:_ZN4llvm9StringMapIPNS_2cl6OptionENS_15MallocAllocatorEE11try_emplaceIIS3_EEESt4pairINS_17StringMapIteratorIS3_EEbENS_9StringRefEDpOT_
   fun:_ZN12_GLOBAL__N_117CommandLineParser9addOptionEPN4llvm2cl6OptionEPNS2_10SubCommandE.constprop.393
   fun:_ZN12_GLOBAL__N_117CommandLineParser9addOptionEPN4llvm2cl6OptionEb
   fun:_ZN4llvm2cl6Option11addArgumentEv
   fun:_ZN4llvm2cl3optIbLb0ENS0_6parserIbEEEC1IIA22_cNS0_4descENS0_11initializerIbEENS0_12OptionHiddenEEEEDpRKT_
   fun:_GLOBAL__sub_I_X86CallFrameOptimization.cpp
   fun:call_init.part.0
   fun:call_init
   fun:_dl_init
   obj:/usr/lib/x86_64-linux-gnu/ld-linux-x86-64.so.2
}
{
   <insert_a_suppression_name_here>
   Memcheck:Leak
   match-leak-kinds: reachable
   fun:malloc
   fun:_ZN4llvm11safe_mallocEm
   fun:_ZN4llvm9StringMapIPNS_2cl6OptionENS_15MallocAllocatorEE11try_emplaceIIS3_EEESt4pairINS_17StringMapIteratorIS3_EEbENS_9StringRefEDpOT_
   fun:_ZN12_GLOBAL__N_117CommandLineParser9addOptionEPN4llvm2cl6OptionEPNS2_10SubCommandE.constprop.393
   fun:_ZN12_GLOBAL__N_117CommandLineParser9addOptionEPN4llvm2cl6OptionEb
   fun:_ZN4llvm2cl6Option11addArgumentEv
   fun:_ZN4llvm2cl3optIbLb0ENS0_6parserIbEEEC1IIA22_cNS0_4descENS0_11initializerIbEENS0_12OptionHiddenEEEEDpRKT_
   fun:_GLOBAL__sub_I_X86FixupBWInsts.cpp
   fun:call_init.part.0
   fun:call_init
   fun:_dl_init
   obj:/usr/lib/x86_64-linux-gnu/ld-linux-x86-64.so.2
}
{
   <insert_a_suppression_name_here>
   Memcheck:Leak
   match-leak-kinds: reachable
   fun:malloc
   fun:_ZN4llvm11safe_mallocEm
   fun:_ZN4llvm9StringMapIPNS_2cl6OptionENS_15MallocAllocatorEE11try_emplaceIIS3_EEESt4pairINS_17StringMapIteratorIS3_EEbENS_9StringRefEDpOT_
   fun:_ZN12_GLOBAL__N_117CommandLineParser9addOptionEPN4llvm2cl6OptionEPNS2_10SubCommandE.constprop.393
   fun:_ZN12_GLOBAL__N_117CommandLineParser9addOptionEPN4llvm2cl6OptionEb
   fun:_ZN4llvm2cl6Option11addArgumentEv
   fun:_GLOBAL__sub_I_X86AvoidStoreForwardingBlocks.cpp
   fun:call_init.part.0
   fun:call_init
   fun:_dl_init
   obj:/usr/lib/x86_64-linux-gnu/ld-linux-x86-64.so.2
}
{
   <insert_a_suppression_name_here>
   Memcheck:Leak
   match-leak-kinds: reachable
   fun:malloc
   fun:_ZN4llvm11safe_mallocEm
   fun:_ZN4llvm9StringMapIPNS_2cl6OptionENS_15MallocAllocatorEE11try_emplaceIIS3_EEESt4pairINS_17StringMapIteratorIS3_EEbENS_9StringRefEDpOT_
   fun:_ZN12_GLOBAL__N_117CommandLineParser9addOptionEPN4llvm2cl6OptionEPNS2_10SubCommandE.constprop.393
   fun:_ZN12_GLOBAL__N_117CommandLineParser9addOptionEPN4llvm2cl6OptionEb
   fun:_ZN4llvm2cl6Option11addArgumentEv
   fun:_GLOBAL__sub_I_SelectionDAGBuilder.cpp
   fun:call_init.part.0
   fun:call_init
   fun:_dl_init
   obj:/usr/lib/x86_64-linux-gnu/ld-linux-x86-64.so.2
}
{
   <insert_a_suppression_name_here>
   Memcheck:Leak
   match-leak-kinds: reachable
   fun:malloc
   fun:_ZN4llvm11safe_mallocEm
   fun:_ZN4llvm9StringMapIPNS_2cl6OptionENS_15MallocAllocatorEE11try_emplaceIIS3_EEESt4pairINS_17StringMapIteratorIS3_EEbENS_9StringRefEDpOT_
   fun:_ZN12_GLOBAL__N_117CommandLineParser9addOptionEPN4llvm2cl6OptionEPNS2_10SubCommandE.constprop.393
   fun:_ZN12_GLOBAL__N_117CommandLineParser9addOptionEPN4llvm2cl6OptionEb
   fun:_ZN4llvm2cl6Option11addArgumentEv
   fun:_ZN4llvm2cl3optIbLb0ENS0_6parserIbEEEC1IIA22_cNS0_4descENS0_11initializerIbEENS0_12OptionHiddenEEEEDpRKT_
   fun:_Z41__static_initialization_and_destruction_0ii.constprop.358
   fun:call_init.part.0
   fun:call_init
   fun:_dl_init
   obj:/usr/lib/x86_64-linux-gnu/ld-linux-x86-64.so.2
}
{
   <insert_a_suppression_name_here>
   Memcheck:Leak
   match-leak-kinds: reachable
   fun:malloc
   fun:_ZN4llvm11safe_mallocEm
   fun:_ZN4llvm9StringMapIPNS_2cl6OptionENS_15MallocAllocatorEE11try_emplaceIIS3_EEESt4pairINS_17StringMapIteratorIS3_EEbENS_9StringRefEDpOT_
   fun:_ZN12_GLOBAL__N_117CommandLineParser9addOptionEPN4llvm2cl6OptionEPNS2_10SubCommandE.constprop.393
   fun:_ZN12_GLOBAL__N_117CommandLineParser9addOptionEPN4llvm2cl6OptionEb
   fun:_ZN4llvm2cl6Option11addArgumentEv
   fun:_ZN4llvm2cl3optIiLb0ENS0_6parserIiEEEC1IIA22_cNS0_4descENS0_11initializerIiEENS0_12OptionHiddenEEEEDpRKT_
   fun:_GLOBAL__sub_I_PostRASchedulerList.cpp
   fun:call_init.part.0
   fun:call_init
   fun:_dl_init
   obj:/usr/lib/x86_64-linux-gnu/ld-linux-x86-64.so.2
}
{
   <insert_a_suppression_name_here>
   Memcheck:Leak
   match-leak-kinds: reachable
   fun:malloc
   fun:_ZN4llvm11safe_mallocEm
   fun:_ZN4llvm9StringMapIPNS_2cl6OptionENS_15MallocAllocatorEE11try_emplaceIIS3_EEESt4pairINS_17StringMapIteratorIS3_EEbENS_9StringRefEDpOT_
   fun:_ZN12_GLOBAL__N_117CommandLineParser9addOptionEPN4llvm2cl6OptionEPNS2_10SubCommandE.constprop.393
   fun:_ZN12_GLOBAL__N_117CommandLineParser9addOptionEPN4llvm2cl6OptionEb
   fun:_ZN4llvm2cl6Option11addArgumentEv
   fun:_GLOBAL__sub_I_LoopUnroll.cpp
   fun:call_init.part.0
   fun:call_init
   fun:_dl_init
   obj:/usr/lib/x86_64-linux-gnu/ld-linux-x86-64.so.2
}
{
   <insert_a_suppression_name_here>
   Memcheck:Leak
   match-leak-kinds: reachable
   fun:malloc
   fun:_ZN4llvm11safe_mallocEm
   fun:_ZN4llvm9StringMapIPNS_2cl6OptionENS_15MallocAllocatorEE11try_emplaceIIS3_EEESt4pairINS_17StringMapIteratorIS3_EEbENS_9StringRefEDpOT_
   fun:_ZN12_GLOBAL__N_117CommandLineParser9addOptionEPN4llvm2cl6OptionEPNS2_10SubCommandE.constprop.393
   fun:_ZN12_GLOBAL__N_117CommandLineParser9addOptionEPN4llvm2cl6OptionEb
   fun:_ZN4llvm2cl6Option11addArgumentEv
   fun:_GLOBAL__sub_I_LoopUnrollPeel.cpp
   fun:call_init.part.0
   fun:call_init
   fun:_dl_init
   obj:/usr/lib/x86_64-linux-gnu/ld-linux-x86-64.so.2
}
{
   <insert_a_suppression_name_here>
   Memcheck:Leak
   match-leak-kinds: reachable
   fun:malloc
   fun:_ZN4llvm11safe_mallocEm
   fun:_ZN4llvm9StringMapIPNS_2cl6OptionENS_15MallocAllocatorEE11try_emplaceIIS3_EEESt4pairINS_17StringMapIteratorIS3_EEbENS_9StringRefEDpOT_
   fun:_ZN12_GLOBAL__N_117CommandLineParser9addOptionEPN4llvm2cl6OptionEPNS2_10SubCommandE.constprop.393
   fun:_ZN12_GLOBAL__N_117CommandLineParser9addOptionEPN4llvm2cl6OptionEb
   fun:_ZN4llvm2cl6Option11addArgumentEv
   fun:_ZN4llvm2cl3optIjLb0ENS0_6parserIjEEEC1IIA22_cNS0_12OptionHiddenENS0_11initializerIiEEEEEDpRKT_
   fun:_GLOBAL__sub_I_CallGraphSCCPass.cpp
   fun:call_init.part.0
   fun:call_init
   fun:_dl_init
   obj:/usr/lib/x86_64-linux-gnu/ld-linux-x86-64.so.2
}
{
   <insert_a_suppression_name_here>
   Memcheck:Leak
   match-leak-kinds: reachable
   fun:malloc
   fun:_ZN4llvm11safe_mallocEm
   fun:_ZN4llvm9StringMapIPNS_2cl6OptionENS_15MallocAllocatorEE11try_emplaceIIS3_EEESt4pairINS_17StringMapIteratorIS3_EEbENS_9StringRefEDpOT_
   fun:_ZN12_GLOBAL__N_117CommandLineParser9addOptionEPN4llvm2cl6OptionEPNS2_10SubCommandE.constprop.393
   fun:_ZN12_GLOBAL__N_117CommandLineParser9addOptionEPN4llvm2cl6OptionEb
   fun:_ZN4llvm2cl6Option11addArgumentEv
   fun:_ZN4llvm2cl3optIbLb0ENS0_6parserIbEEEC1IIA22_cNS0_4descENS0_11initializerIbEENS0_12OptionHiddenEEEEDpRKT_
   fun:_GLOBAL__sub_I_InstructionPrecedenceTracking.cpp
   fun:call_init.part.0
   fun:call_init
   fun:_dl_init
   obj:/usr/lib/x86_64-linux-gnu/ld-linux-x86-64.so.2
}
{
   <insert_a_suppression_name_here>
   Memcheck:Leak
   match-leak-kinds: reachable
   fun:malloc
   fun:_ZN4llvm11safe_mallocEm
   fun:_ZN4llvm9StringMapIPNS_2cl6OptionENS_15MallocAllocatorEE11try_emplaceIIS3_EEESt4pairINS_17StringMapIteratorIS3_EEbENS_9StringRefEDpOT_
   fun:_ZN12_GLOBAL__N_117CommandLineParser9addOptionEPN4llvm2cl6OptionEPNS2_10SubCommandE.constprop.393
   fun:_ZN12_GLOBAL__N_117CommandLineParser9addOptionEPN4llvm2cl6OptionEb
   fun:_ZN4llvm2cl6Option11addArgumentEv
   fun:_ZN4llvm2cl3optIiLb0ENS0_6parserIiEEEC1IIA23_cNS0_4descENS0_11initializerIiEENS0_12OptionHiddenEEEEDpRKT_
   fun:_GLOBAL__sub_I_MachineOperand.cpp
   fun:call_init.part.0
   fun:call_init
   fun:_dl_init
   obj:/usr/lib/x86_64-linux-gnu/ld-linux-x86-64.so.2
}
{
   <insert_a_suppression_name_here>
   Memcheck:Leak
   match-leak-kinds: reachable
   fun:malloc
   fun:_ZN4llvm11safe_mallocEm
   fun:_ZN4llvm9StringMapIPNS_2cl6OptionENS_15MallocAllocatorEE11try_emplaceIIS3_EEESt4pairINS_17StringMapIteratorIS3_EEbENS_9StringRefEDpOT_
   fun:_ZN12_GLOBAL__N_117CommandLineParser9addOptionEPN4llvm2cl6OptionEPNS2_10SubCommandE.constprop.393
   fun:_ZN12_GLOBAL__N_117CommandLineParser9addOptionEPN4llvm2cl6OptionEb
   fun:_ZN4llvm2cl6Option11addArgumentEv
   fun:_GLOBAL__sub_I_MachineRegisterInfo.cpp
   fun:call_init.part.0
   fun:call_init
   fun:_dl_init
   obj:/usr/lib/x86_64-linux-gnu/ld-linux-x86-64.so.2
}
{
   <insert_a_suppression_name_here>
   Memcheck:Leak
   match-leak-kinds: reachable
   fun:malloc
   fun:_ZN4llvm11safe_mallocEm
   fun:_ZN4llvm9StringMapIPNS_2cl6OptionENS_15MallocAllocatorEE11try_emplaceIIS3_EEESt4pairINS_17StringMapIteratorIS3_EEbENS_9StringRefEDpOT_
   fun:_ZN12_GLOBAL__N_117CommandLineParser9addOptionEPN4llvm2cl6OptionEPNS2_10SubCommandE.constprop.393
   fun:_ZN12_GLOBAL__N_117CommandLineParser9addOptionEPN4llvm2cl6OptionEb
   fun:_ZN4llvm2cl6Option11addArgumentEv
   fun:_ZN4llvm2cl3optIbLb0ENS0_6parserIbEEEC1IIA23_cNS0_11initializerIbEENS0_12OptionHiddenEEEEDpRKT_
   fun:_GLOBAL__sub_I_StackProtector.cpp
   fun:call_init.part.0
   fun:call_init
   fun:_dl_init
   obj:/usr/lib/x86_64-linux-gnu/ld-linux-x86-64.so.2
}
{
   <insert_a_suppression_name_here>
   Memcheck:Leak
   match-leak-kinds: reachable
   fun:_Znwm
   fun:_ZNSs4_Rep9_S_createEmmRKSaIcE
   fun:_ZNSs12_S_constructIPKcEEPcT_S3_RKSaIcESt20forward_iterator_tag
   fun:_ZNSsC1EPKcmRKSaIcE
   fun:_ZNK4llvm9StringRef3strEv
   fun:_GLOBAL__sub_I_MachineCopyPropagation.cpp
   fun:call_init.part.0
   fun:call_init
   fun:_dl_init
   obj:/usr/lib/x86_64-linux-gnu/ld-linux-x86-64.so.2
}
{
   <insert_a_suppression_name_here>
   Memcheck:Leak
   match-leak-kinds: reachable
   fun:malloc
   fun:_ZN4llvm11safe_mallocEm
   fun:_ZN4llvm9StringMapIPNS_2cl6OptionENS_15MallocAllocatorEE11try_emplaceIIS3_EEESt4pairINS_17StringMapIteratorIS3_EEbENS_9StringRefEDpOT_
   fun:_ZN12_GLOBAL__N_117CommandLineParser9addOptionEPN4llvm2cl6OptionEPNS2_10SubCommandE.constprop.393
   fun:_ZN12_GLOBAL__N_117CommandLineParser9addOptionEPN4llvm2cl6OptionEb
   fun:_ZN4llvm2cl6Option11addArgumentEv
   fun:_GLOBAL__sub_I_HotColdSplitting.cpp
   fun:call_init.part.0
   fun:call_init
   fun:_dl_init
   obj:/usr/lib/x86_64-linux-gnu/ld-linux-x86-64.so.2
}
{
   <insert_a_suppression_name_here>
   Memcheck:Leak
   match-leak-kinds: reachable
   fun:malloc
   fun:_ZN4llvm11safe_mallocEm
   fun:_ZN4llvm9StringMapIPNS_2cl6OptionENS_15MallocAllocatorEE11try_emplaceIIS3_EEESt4pairINS_17StringMapIteratorIS3_EEbENS_9StringRefEDpOT_
   fun:_ZN12_GLOBAL__N_117CommandLineParser9addOptionEPN4llvm2cl6OptionEPNS2_10SubCommandE.constprop.393
   fun:_ZN12_GLOBAL__N_117CommandLineParser9addOptionEPN4llvm2cl6OptionEb
   fun:_ZN4llvm2cl6Option11addArgumentEv
   fun:_GLOBAL__sub_I_LoopDistribute.cpp
   fun:call_init.part.0
   fun:call_init
   fun:_dl_init
   obj:/usr/lib/x86_64-linux-gnu/ld-linux-x86-64.so.2
}
{
   <insert_a_suppression_name_here>
   Memcheck:Leak
   match-leak-kinds: reachable
   fun:malloc
   fun:_ZN4llvm11safe_mallocEm
   fun:_ZN4llvm9StringMapIPNS_2cl6OptionENS_15MallocAllocatorEE11try_emplaceIIS3_EEESt4pairINS_17StringMapIteratorIS3_EEbENS_9StringRefEDpOT_
   fun:_ZN12_GLOBAL__N_117CommandLineParser9addOptionEPN4llvm2cl6OptionEPNS2_10SubCommandE.constprop.393
   fun:_ZN12_GLOBAL__N_117CommandLineParser9addOptionEPN4llvm2cl6OptionEb
   fun:_ZN4llvm2cl6Option11addArgumentEv
   fun:_GLOBAL__sub_I_BitcodeWriter.cpp
   fun:call_init.part.0
   fun:call_init
   fun:_dl_init
   obj:/usr/lib/x86_64-linux-gnu/ld-linux-x86-64.so.2
}
{
   <insert_a_suppression_name_here>
   Memcheck:Leak
   match-leak-kinds: reachable
   fun:malloc
   fun:_ZN4llvm11safe_mallocEm
   fun:_ZN4llvm9StringMapIPNS_2cl6OptionENS_15MallocAllocatorEE11try_emplaceIIS3_EEESt4pairINS_17StringMapIteratorIS3_EEbENS_9StringRefEDpOT_
   fun:_ZN12_GLOBAL__N_117CommandLineParser9addOptionEPN4llvm2cl6OptionEPNS2_10SubCommandE.constprop.393
   fun:_ZN12_GLOBAL__N_117CommandLineParser9addOptionEPN4llvm2cl6OptionEb
   fun:_ZN4llvm2cl6Option11addArgumentEv
   fun:_ZN4llvm2cl3optIjLb0ENS0_6parserIjEEEC1IIA23_cNS0_4descENS0_11initializerIiEEEEEDpRKT_
   fun:_GLOBAL__sub_I_TimeProfiler.cpp
   fun:call_init.part.0
   fun:call_init
   fun:_dl_init
   obj:/usr/lib/x86_64-linux-gnu/ld-linux-x86-64.so.2
}
{
   <insert_a_suppression_name_here>
   Memcheck:Leak
   match-leak-kinds: reachable
   fun:malloc
   fun:_ZN4llvm3sys9MutexImplC1Eb
   fun:_ZL15initializeMutexv
   fun:__pthread_once_slow
   fun:_ZSt9call_onceIRFvvEIEEvRSt9once_flagOT_DpOT0_
   fun:_ZNK4llvm17ManagedStaticBase21RegisterManagedStaticEPFPvvEPFvS1_E
   fun:_ZN4llvm13ManagedStaticIN12_GLOBAL__N_117CommandLineParserENS_14object_creatorIS2_EENS_14object_deleterIS2_EEEdeEv.constprop.395
   fun:_ZN4llvm2cl6Option11addArgumentEv
   fun:_GLOBAL__sub_I_Debug.cpp
   fun:call_init.part.0
   fun:call_init
   fun:_dl_init
   obj:/usr/lib/x86_64-linux-gnu/ld-linux-x86-64.so.2
}
{
   <insert_a_suppression_name_here>
   Memcheck:Leak
   match-leak-kinds: reachable
   fun:malloc
   fun:_ZN4llvm11safe_mallocEm
   fun:_ZN4llvm9StringMapIPNS_2cl6OptionENS_15MallocAllocatorEE11try_emplaceIIS3_EEESt4pairINS_17StringMapIteratorIS3_EEbENS_9StringRefEDpOT_
   fun:_ZN12_GLOBAL__N_117CommandLineParser9addOptionEPN4llvm2cl6OptionEPNS2_10SubCommandE.constprop.393
   fun:_ZN12_GLOBAL__N_117CommandLineParser9addOptionEPN4llvm2cl6OptionEb
   fun:_ZN4llvm2cl6Option11addArgumentEv
   fun:_GLOBAL__sub_I_ValueTracking.cpp
   fun:call_init.part.0
   fun:call_init
   fun:_dl_init
   obj:/usr/lib/x86_64-linux-gnu/ld-linux-x86-64.so.2
}
{
   <insert_a_suppression_name_here>
   Memcheck:Leak
   match-leak-kinds: reachable
   fun:malloc
   fun:_ZN4llvm11safe_mallocEm
   fun:_ZN4llvm9StringMapIPNS_2cl6OptionENS_15MallocAllocatorEE11try_emplaceIIS3_EEESt4pairINS_17StringMapIteratorIS3_EEbENS_9StringRefEDpOT_
   fun:_ZN12_GLOBAL__N_117CommandLineParser9addOptionEPN4llvm2cl6OptionEPNS2_10SubCommandE.constprop.393
   fun:_ZN12_GLOBAL__N_117CommandLineParser9addOptionEPN4llvm2cl6OptionEb
   fun:_ZN4llvm2cl6Option11addArgumentEv
   fun:_ZN4llvm2cl3optIbLb0ENS0_6parserIbEEEC1IIA24_cNS0_12OptionHiddenENS0_4descENS0_11initializerIbEEEEEDpRKT_
   fun:_GLOBAL__sub_I_AssumptionCache.cpp
   fun:call_init.part.0
   fun:call_init
   fun:_dl_init
   obj:/usr/lib/x86_64-linux-gnu/ld-linux-x86-64.so.2
}
{
   <insert_a_suppression_name_here>
   Memcheck:Leak
   match-leak-kinds: reachable
   fun:malloc
   fun:_ZN4llvm11safe_mallocEm
   fun:_ZN4llvm9StringMapIPNS_2cl6OptionENS_15MallocAllocatorEE11try_emplaceIIS3_EEESt4pairINS_17StringMapIteratorIS3_EEbENS_9StringRefEDpOT_
   fun:_ZN12_GLOBAL__N_117CommandLineParser9addOptionEPN4llvm2cl6OptionEPNS2_10SubCommandE.constprop.393
   fun:_ZN12_GLOBAL__N_117CommandLineParser9addOptionEPN4llvm2cl6OptionEb
   fun:_ZN4llvm2cl6Option11addArgumentEv
   fun:_GLOBAL__sub_I_X86DiscriminateMemOps.cpp
   fun:call_init.part.0
   fun:call_init
   fun:_dl_init
   obj:/usr/lib/x86_64-linux-gnu/ld-linux-x86-64.so.2
}
{
   <insert_a_suppression_name_here>
   Memcheck:Leak
   match-leak-kinds: reachable
   fun:malloc
   fun:_ZN4llvm11safe_mallocEm
   fun:_ZN4llvm9StringMapIPNS_2cl6OptionENS_15MallocAllocatorEE11try_emplaceIIS3_EEESt4pairINS_17StringMapIteratorIS3_EEbENS_9StringRefEDpOT_
   fun:_ZN12_GLOBAL__N_117CommandLineParser9addOptionEPN4llvm2cl6OptionEPNS2_10SubCommandE.constprop.393
   fun:_ZN12_GLOBAL__N_117CommandLineParser9addOptionEPN4llvm2cl6OptionEb
   fun:_ZN4llvm2cl6Option11addArgumentEv
   fun:_ZN4llvm2cl3optIbLb0ENS0_6parserIbEEEC1IIA24_cNS0_12OptionHiddenENS0_4descENS0_11initializerIbEEEEEDpRKT_
   fun:_Z41__static_initialization_and_destruction_0ii.constprop.1172
   fun:call_init.part.0
   fun:call_init
   fun:_dl_init
   obj:/usr/lib/x86_64-linux-gnu/ld-linux-x86-64.so.2
}
{
   <insert_a_suppression_name_here>
   Memcheck:Leak
   match-leak-kinds: reachable
   fun:malloc
   fun:_ZN4llvm11safe_mallocEm
   fun:_ZN4llvm9StringMapIPNS_2cl6OptionENS_15MallocAllocatorEE11try_emplaceIIS3_EEESt4pairINS_17StringMapIteratorIS3_EEbENS_9StringRefEDpOT_
   fun:_ZN12_GLOBAL__N_117CommandLineParser9addOptionEPN4llvm2cl6OptionEPNS2_10SubCommandE.constprop.393
   fun:_ZN12_GLOBAL__N_117CommandLineParser9addOptionEPN4llvm2cl6OptionEb
   fun:_ZN4llvm2cl6Option11addArgumentEv
   fun:_ZN4llvm2cl3optIbLb0ENS0_6parserIbEEEC1IIA24_cNS0_4descENS0_18NumOccurrencesFlagENS0_11initializerIbEEEEEDpRKT_
   fun:_GLOBAL__sub_I_Legalizer.cpp
   fun:call_init.part.0
   fun:call_init
   fun:_dl_init
   obj:/usr/lib/x86_64-linux-gnu/ld-linux-x86-64.so.2
}
{
   <insert_a_suppression_name_here>
   Memcheck:Leak
   match-leak-kinds: reachable
   fun:malloc
   fun:_ZN4llvm11safe_mallocEm
   fun:_ZN4llvm9StringMapIPNS_2cl6OptionENS_15MallocAllocatorEE11try_emplaceIIS3_EEESt4pairINS_17StringMapIteratorIS3_EEbENS_9StringRefEDpOT_
   fun:_ZN12_GLOBAL__N_117CommandLineParser9addOptionEPN4llvm2cl6OptionEPNS2_10SubCommandE.constprop.393
   fun:_ZN12_GLOBAL__N_117CommandLineParser9addOptionEPN4llvm2cl6OptionEb
   fun:_ZN4llvm2cl6Option11addArgumentEv
   fun:_ZN4llvm2cl3optIbLb1ENS0_6parserIbEEEC1IIA24_cNS0_13LocationClassIbEENS0_12OptionHiddenENS0_4descEEEEDpRKT_
   fun:_GLOBAL__sub_I_MachineDominators.cpp
   fun:call_init.part.0
   fun:call_init
   fun:_dl_init
   obj:/usr/lib/x86_64-linux-gnu/ld-linux-x86-64.so.2
}
{
   <insert_a_suppression_name_here>
   Memcheck:Leak
   match-leak-kinds: reachable
   fun:malloc
   fun:_ZN4llvm11safe_mallocEm
   fun:_ZN4llvm9StringMapIPNS_2cl6OptionENS_15MallocAllocatorEE11try_emplaceIIS3_EEESt4pairINS_17StringMapIteratorIS3_EEbENS_9StringRefEDpOT_
   fun:_ZN12_GLOBAL__N_117CommandLineParser9addOptionEPN4llvm2cl6OptionEPNS2_10SubCommandE.constprop.393
   fun:_ZN12_GLOBAL__N_117CommandLineParser9addOptionEPN4llvm2cl6OptionEb
   fun:_ZN4llvm2cl6Option11addArgumentEv
   fun:_Z41__static_initialization_and_destruction_0ii.constprop.353
   fun:call_init.part.0
   fun:call_init
   fun:_dl_init
   obj:/usr/lib/x86_64-linux-gnu/ld-linux-x86-64.so.2
}
{
   <insert_a_suppression_name_here>
   Memcheck:Leak
   match-leak-kinds: reachable
   fun:malloc
   fun:_ZN4llvm11safe_mallocEm
   fun:_ZN4llvm9StringMapIPNS_2cl6OptionENS_15MallocAllocatorEE11try_emplaceIIS3_EEESt4pairINS_17StringMapIteratorIS3_EEbENS_9StringRefEDpOT_
   fun:_ZN12_GLOBAL__N_117CommandLineParser9addOptionEPN4llvm2cl6OptionEPNS2_10SubCommandE.constprop.393
   fun:_ZN12_GLOBAL__N_117CommandLineParser9addOptionEPN4llvm2cl6OptionEb
   fun:_ZN4llvm2cl6Option11addArgumentEv
   fun:_GLOBAL__sub_I_FunctionAttrs.cpp
   fun:call_init.part.0
   fun:call_init
   fun:_dl_init
   obj:/usr/lib/x86_64-linux-gnu/ld-linux-x86-64.so.2
}
{
   <insert_a_suppression_name_here>
   Memcheck:Leak
   match-leak-kinds: reachable
   fun:malloc
   fun:_ZN4llvm11safe_mallocEm
   fun:_ZN4llvm9StringMapIPNS_2cl6OptionENS_15MallocAllocatorEE11try_emplaceIIS3_EEESt4pairINS_17StringMapIteratorIS3_EEbENS_9StringRefEDpOT_
   fun:_ZN12_GLOBAL__N_117CommandLineParser9addOptionEPN4llvm2cl6OptionEPNS2_10SubCommandE.constprop.393
   fun:_ZN12_GLOBAL__N_117CommandLineParser9addOptionEPN4llvm2cl6OptionEb
   fun:_ZN4llvm2cl6Option11addArgumentEv
   fun:_ZN4llvm2cl3optIbLb0ENS0_6parserIbEEEC1IIA24_cNS0_4descENS0_11initializerIbEENS0_12OptionHiddenEEEEDpRKT_
   fun:_GLOBAL__sub_I_LoopIdiomRecognize.cpp
   fun:call_init.part.0
   fun:call_init
   fun:_dl_init
   obj:/usr/lib/x86_64-linux-gnu/ld-linux-x86-64.so.2
}
{
   <insert_a_suppression_name_here>
   Memcheck:Leak
   match-leak-kinds: reachable
   fun:malloc
   fun:_ZN4llvm11safe_mallocEm
   fun:_ZN4llvm9StringMapIPNS_2cl6OptionENS_15MallocAllocatorEE11try_emplaceIIS3_EEESt4pairINS_17StringMapIteratorIS3_EEbENS_9StringRefEDpOT_
   fun:_ZN12_GLOBAL__N_117CommandLineParser9addOptionEPN4llvm2cl6OptionEPNS2_10SubCommandE.constprop.393
   fun:_ZN12_GLOBAL__N_117CommandLineParser9addOptionEPN4llvm2cl6OptionEb
   fun:_ZN4llvm2cl6Option11addArgumentEv
   fun:_ZN4llvm2cl3optIjLb0ENS0_6parserIjEEEC1IIA24_cNS0_4descENS0_11initializerIiEENS0_12OptionHiddenEEEEDpRKT_
   fun:_GLOBAL__sub_I_LoopUnswitch.cpp
   fun:call_init.part.0
   fun:call_init
   fun:_dl_init
   obj:/usr/lib/x86_64-linux-gnu/ld-linux-x86-64.so.2
}
{
   <insert_a_suppression_name_here>
   Memcheck:Leak
   match-leak-kinds: reachable
   fun:malloc
   fun:_ZN4llvm11safe_mallocEm
   fun:_ZN4llvm9StringMapIPNS_2cl6OptionENS_15MallocAllocatorEE11try_emplaceIIS3_EEESt4pairINS_17StringMapIteratorIS3_EEbENS_9StringRefEDpOT_
   fun:_ZN12_GLOBAL__N_117CommandLineParser9addOptionEPN4llvm2cl6OptionEPNS2_10SubCommandE.constprop.393
   fun:_ZN12_GLOBAL__N_117CommandLineParser9addOptionEPN4llvm2cl6OptionEb
   fun:_ZN4llvm2cl6Option11addArgumentEv
   fun:_ZN4llvm2cl3optISsLb0ENS0_6parserISsEEEC1IIA24_cNS0_11initializerIA1_cEENS0_4descENS0_12OptionHiddenEEEEDpRKT_
   fun:_GLOBAL__sub_I_InstrOrderFile.cpp
   fun:call_init.part.0
   fun:call_init
   fun:_dl_init
   obj:/usr/lib/x86_64-linux-gnu/ld-linux-x86-64.so.2
}
{
   <insert_a_suppression_name_here>
   Memcheck:Leak
   match-leak-kinds: reachable
   fun:malloc
   fun:_ZN4llvm11safe_mallocEm
   fun:_ZN4llvm9StringMapIPNS_2cl6OptionENS_15MallocAllocatorEE11try_emplaceIIS3_EEESt4pairINS_17StringMapIteratorIS3_EEbENS_9StringRefEDpOT_
   fun:_ZN12_GLOBAL__N_117CommandLineParser9addOptionEPN4llvm2cl6OptionEPNS2_10SubCommandE.constprop.393
   fun:_ZN12_GLOBAL__N_117CommandLineParser9addOptionEPN4llvm2cl6OptionEb
   fun:_ZN4llvm2cl6Option11addArgumentEv
   fun:_GLOBAL__sub_I_MemoryDependenceAnalysis.cpp
   fun:call_init.part.0
   fun:call_init
   fun:_dl_init
   obj:/usr/lib/x86_64-linux-gnu/ld-linux-x86-64.so.2
}
{
   <insert_a_suppression_name_here>
   Memcheck:Leak
   match-leak-kinds: reachable
   fun:malloc
   fun:_ZN4llvm11safe_mallocEm
   fun:_ZN4llvm9StringMapIPNS_2cl6OptionENS_15MallocAllocatorEE11try_emplaceIIS3_EEESt4pairINS_17StringMapIteratorIS3_EEbENS_9StringRefEDpOT_
   fun:_ZN12_GLOBAL__N_117CommandLineParser9addOptionEPN4llvm2cl6OptionEPNS2_10SubCommandE.constprop.393
   fun:_ZN12_GLOBAL__N_117CommandLineParser9addOptionEPN4llvm2cl6OptionEb
   fun:_ZN4llvm2cl6Option11addArgumentEv
   fun:_Z41__static_initialization_and_destruction_0ii.constprop.811
   fun:call_init.part.0
   fun:call_init
   fun:_dl_init
   obj:/usr/lib/x86_64-linux-gnu/ld-linux-x86-64.so.2
}
{
   <insert_a_suppression_name_here>
   Memcheck:Leak
   match-leak-kinds: reachable
   fun:malloc
   fun:_ZN4llvm11safe_mallocEm
   fun:_ZN4llvm9StringMapIPNS_2cl6OptionENS_15MallocAllocatorEE11try_emplaceIIS3_EEESt4pairINS_17StringMapIteratorIS3_EEbENS_9StringRefEDpOT_
   fun:_ZN12_GLOBAL__N_117CommandLineParser9addOptionEPN4llvm2cl6OptionEPNS2_10SubCommandE.constprop.393
   fun:_ZN12_GLOBAL__N_117CommandLineParser9addOptionEPN4llvm2cl6OptionEb
   fun:_ZN4llvm2cl6Option11addArgumentEv
   fun:_ZN4llvm2cl3optIPcLb0ENS0_6parserIS2_EEEC1IIA24_cNS0_4descENS0_11initializerIS2_EENS0_12OptionHiddenEEEEDpRKT_
   fun:_GLOBAL__sub_I_MCContext.cpp
   fun:call_init.part.0
   fun:call_init
   fun:_dl_init
   obj:/usr/lib/x86_64-linux-gnu/ld-linux-x86-64.so.2
}
{
   <insert_a_suppression_name_here>
   Memcheck:Leak
   match-leak-kinds: reachable
   fun:_Znwm
   fun:_ZN6google8protobuf14DescriptorPool24InternalAddGeneratedFileEPKvi
   fun:_ZN6google8protobuf12_GLOBAL__N_118AddDescriptorsImplEPKNS0_8internal15DescriptorTableE
   fun:_ZN6google8protobuf12_GLOBAL__N_118AddDescriptorsImplEPKNS0_8internal15DescriptorTableE
   fun:call_init.part.0
   fun:call_init
   fun:_dl_init
   obj:/usr/lib/x86_64-linux-gnu/ld-linux-x86-64.so.2
}
{
   <insert_a_suppression_name_here>
   Memcheck:Leak
   match-leak-kinds: reachable
   fun:_Znwm
   fun:_ZNSs4_Rep9_S_createEmmRKSaIcE
   fun:_ZNSs12_S_constructIPKcEEPcT_S3_RKSaIcESt20forward_iterator_tag
   fun:_ZNSsC1EPKcmRKSaIcE
   fun:_ZN6google8protobuf25EncodedDescriptorDatabase15DescriptorIndex9AddSymbolENS0_11StringPieceE
   fun:_ZN6google8protobuf25EncodedDescriptorDatabase15DescriptorIndex7AddFileINS0_19FileDescriptorProtoEEEbRKT_St4pairIPKviE
   fun:_ZN6google8protobuf25EncodedDescriptorDatabase3AddEPKvi
   fun:_ZN6google8protobuf14DescriptorPool24InternalAddGeneratedFileEPKvi
   fun:_ZN6google8protobuf12_GLOBAL__N_118AddDescriptorsImplEPKNS0_8internal15DescriptorTableE
   fun:_ZN6google8protobuf12_GLOBAL__N_118AddDescriptorsImplEPKNS0_8internal15DescriptorTableE
   fun:call_init.part.0
   fun:call_init
   fun:_dl_init
}
{
   <insert_a_suppression_name_here>
   Memcheck:Leak
   match-leak-kinds: reachable
   fun:_Znwm
   fun:_ZN9libkineto12ConfigLoaderD1Ev
   fun:__cxa_finalize
   obj:/home/lvand/workspace/neuralwindow/libtorch/lib/libtorch_cpu.so
   fun:_dl_fini
   fun:__run_exit_handlers
   fun:exit
   fun:(below main)
}
{
   <insert_a_suppression_name_here>
   Memcheck:Leak
   match-leak-kinds: reachable
   fun:_Znwm
   fun:_ZN9libkineto12ConfigLoaderD1Ev
   fun:__cxa_finalize
   obj:/home/runner/work/neuralwindow/neuralwindow/libtorch/lib/libtorch_cpu.so
   fun:_dl_fini
   fun:__run_exit_handlers
   fun:exit
   fun:(below main)
}
{
   <insert_a_suppression_name_here>
   Memcheck:Leak
   match-leak-kinds: reachable
   fun:malloc
   fun:_ZN4llvm11safe_mallocEm
   fun:_ZN4llvm9StringMapIPNS_2cl6OptionENS_15MallocAllocatorEE11try_emplaceIIS3_EEESt4pairINS_17StringMapIteratorIS3_EEbENS_9StringRefEDpOT_
   fun:_ZN12_GLOBAL__N_117CommandLineParser9addOptionEPN4llvm2cl6OptionEPNS2_10SubCommandE.constprop.393
   fun:_ZN12_GLOBAL__N_117CommandLineParser9addOptionEPN4llvm2cl6OptionEb
   fun:_ZN4llvm2cl6Option11addArgumentEv
   fun:_GLOBAL__sub_I_ImplicitNullChecks.cpp
   fun:call_init.part.0
   fun:call_init
   fun:_dl_init
   obj:/usr/lib/x86_64-linux-gnu/ld-linux-x86-64.so.2
}
{
   <insert_a_suppression_name_here>
   Memcheck:Leak
   match-leak-kinds: reachable
   fun:malloc
   fun:_ZN4llvm11safe_mallocEm
   fun:_ZN4llvm9StringMapIPNS_2cl6OptionENS_15MallocAllocatorEE11try_emplaceIIS3_EEESt4pairINS_17StringMapIteratorIS3_EEbENS_9StringRefEDpOT_
   fun:_ZN12_GLOBAL__N_117CommandLineParser9addOptionEPN4llvm2cl6OptionEPNS2_10SubCommandE.constprop.393
   fun:_ZN12_GLOBAL__N_117CommandLineParser9addOptionEPN4llvm2cl6OptionEb
   fun:_ZN4llvm2cl6Option11addArgumentEv
   fun:_GLOBAL__sub_I_LiveIntervals.cpp
   fun:call_init.part.0
   fun:call_init
   fun:_dl_init
   obj:/usr/lib/x86_64-linux-gnu/ld-linux-x86-64.so.2
}
{
   <insert_a_suppression_name_here>
   Memcheck:Leak
   match-leak-kinds: reachable
   fun:malloc
   fun:_ZN4llvm11safe_mallocEm
   fun:_ZN4llvm9StringMapIPNS_2cl6OptionENS_15MallocAllocatorEE11try_emplaceIIS3_EEESt4pairINS_17StringMapIteratorIS3_EEbENS_9StringRefEDpOT_
   fun:_ZN12_GLOBAL__N_117CommandLineParser9addOptionEPN4llvm2cl6OptionEPNS2_10SubCommandE.constprop.393
   fun:_ZN12_GLOBAL__N_117CommandLineParser9addOptionEPN4llvm2cl6OptionEb
   fun:_ZN4llvm2cl6Option11addArgumentEv
   fun:_ZN4llvm2cl3optIjLb0ENS0_6parserIjEEEC1IIA25_cNS0_11initializerIiEENS0_12OptionHiddenENS0_4descEEEEDpRKT_
   fun:_GLOBAL__sub_I_Float2Int.cpp
   fun:call_init.part.0
   fun:call_init
   fun:_dl_init
   obj:/usr/lib/x86_64-linux-gnu/ld-linux-x86-64.so.2
}
{
   <insert_a_suppression_name_here>
   Memcheck:Leak
   match-leak-kinds: reachable
   fun:malloc
   fun:_ZN4llvm11safe_mallocEm
   fun:_ZN4llvm9StringMapIPNS_2cl6OptionENS_15MallocAllocatorEE11try_emplaceIIS3_EEESt4pairINS_17StringMapIteratorIS3_EEbENS_9StringRefEDpOT_
   fun:_ZN12_GLOBAL__N_117CommandLineParser9addOptionEPN4llvm2cl6OptionEPNS2_10SubCommandE.constprop.393
   fun:_ZN12_GLOBAL__N_117CommandLineParser9addOptionEPN4llvm2cl6OptionEb
   fun:_ZN4llvm2cl6Option11addArgumentEv
   fun:_GLOBAL__sub_I_JumpThreading.cpp
   fun:call_init.part.0
   fun:call_init
   fun:_dl_init
   obj:/usr/lib/x86_64-linux-gnu/ld-linux-x86-64.so.2
}
{
   <insert_a_suppression_name_here>
   Memcheck:Leak
   match-leak-kinds: reachable
   fun:malloc
   fun:_ZN4llvm11safe_mallocEm
   fun:_ZN4llvm9StringMapIPNS_2cl6OptionENS_15MallocAllocatorEE11try_emplaceIIS3_EEESt4pairINS_17StringMapIteratorIS3_EEbENS_9StringRefEDpOT_
   fun:_ZN12_GLOBAL__N_117CommandLineParser9addOptionEPN4llvm2cl6OptionEPNS2_10SubCommandE.constprop.393
   fun:_ZN12_GLOBAL__N_117CommandLineParser9addOptionEPN4llvm2cl6OptionEb
   fun:_ZN4llvm2cl6Option11addArgumentEv
   fun:_ZN4llvm2cl3optIjLb0ENS0_6parserIjEEEC1IIA25_cNS0_11initializerIiEENS0_12OptionHiddenENS0_4descEEEEDpRKT_
   fun:_GLOBAL__sub_I_LoopRotation.cpp
   fun:call_init.part.0
   fun:call_init
   fun:_dl_init
   obj:/usr/lib/x86_64-linux-gnu/ld-linux-x86-64.so.2
}
{
   <insert_a_suppression_name_here>
   Memcheck:Leak
   match-leak-kinds: reachable
   fun:malloc
   fun:_ZN4llvm11safe_mallocEm
   fun:_ZN4llvm9StringMapIPNS_2cl6OptionENS_15MallocAllocatorEE11try_emplaceIIS3_EEESt4pairINS_17StringMapIteratorIS3_EEbENS_9StringRefEDpOT_
   fun:_ZN12_GLOBAL__N_117CommandLineParser9addOptionEPN4llvm2cl6OptionEPNS2_10SubCommandE.constprop.393
   fun:_ZN12_GLOBAL__N_117CommandLineParser9addOptionEPN4llvm2cl6OptionEb
   fun:_ZN4llvm2cl6Option11addArgumentEv
   fun:_GLOBAL__sub_I_InstCombinePHI.cpp
   fun:call_init.part.0
   fun:call_init
   fun:_dl_init
   obj:/usr/lib/x86_64-linux-gnu/ld-linux-x86-64.so.2
}
{
   <insert_a_suppression_name_here>
   Memcheck:Leak
   match-leak-kinds: reachable
   fun:malloc
   fun:_ZN4llvm11safe_mallocEm
   fun:_ZN4llvm9StringMapIPNS_2cl6OptionENS_15MallocAllocatorEE11try_emplaceIIS3_EEESt4pairINS_17StringMapIteratorIS3_EEbENS_9StringRefEDpOT_
   fun:_ZN12_GLOBAL__N_117CommandLineParser9addOptionEPN4llvm2cl6OptionEPNS2_10SubCommandE.constprop.393
   fun:_ZN12_GLOBAL__N_117CommandLineParser9addOptionEPN4llvm2cl6OptionEb
   fun:_ZN4llvm2cl6Option11addArgumentEv
   fun:_GLOBAL__sub_I_CodeExtractor.cpp
   fun:call_init.part.0
   fun:call_init
   fun:_dl_init
   obj:/usr/lib/x86_64-linux-gnu/ld-linux-x86-64.so.2
}
{
   <insert_a_suppression_name_here>
   Memcheck:Leak
   match-leak-kinds: reachable
   fun:malloc
   fun:_ZN4llvm11safe_mallocEm
   fun:_ZN4llvm9StringMapIPNS_2cl6OptionENS_15MallocAllocatorEE11try_emplaceIIS3_EEESt4pairINS_17StringMapIteratorIS3_EEbENS_9StringRefEDpOT_
   fun:_ZN12_GLOBAL__N_117CommandLineParser9addOptionEPN4llvm2cl6OptionEPNS2_10SubCommandE.constprop.393
   fun:_ZN12_GLOBAL__N_117CommandLineParser9addOptionEPN4llvm2cl6OptionEb
   fun:_ZN4llvm2cl6Option11addArgumentEv
   fun:_GLOBAL__sub_I_BitcodeReader.cpp
   fun:call_init.part.0
   fun:call_init
   fun:_dl_init
   obj:/usr/lib/x86_64-linux-gnu/ld-linux-x86-64.so.2
}
{
   <insert_a_suppression_name_here>
   Memcheck:Leak
   match-leak-kinds: reachable
   fun:malloc
   fun:_ZN4llvm11safe_mallocEm
   fun:_ZN4llvm9StringMapIPNS_2cl6OptionENS_15MallocAllocatorEE11try_emplaceIIS3_EEESt4pairINS_17StringMapIteratorIS3_EEbENS_9StringRefEDpOT_
   fun:_ZN12_GLOBAL__N_117CommandLineParser9addOptionEPN4llvm2cl6OptionEPNS2_10SubCommandE.constprop.393
   fun:_ZN12_GLOBAL__N_117CommandLineParser9addOptionEPN4llvm2cl6OptionEb
   fun:_ZN4llvm2cl6Option11addArgumentEv
   fun:_GLOBAL__sub_I_Loads.cpp
   fun:call_init.part.0
   fun:call_init
   fun:_dl_init
   obj:/usr/lib/x86_64-linux-gnu/ld-linux-x86-64.so.2
}
{
   <insert_a_suppression_name_here>
   Memcheck:Leak
   match-leak-kinds: reachable
   fun:malloc
   fun:_ZN4llvm11safe_mallocEm
   fun:_ZN4llvm9StringMapIPNS_2cl6OptionENS_15MallocAllocatorEE11try_emplaceIIS3_EEESt4pairINS_17StringMapIteratorIS3_EEbENS_9StringRefEDpOT_
   fun:_ZN12_GLOBAL__N_117CommandLineParser9addOptionEPN4llvm2cl6OptionEPNS2_10SubCommandE.constprop.393
   fun:_ZN12_GLOBAL__N_117CommandLineParser9addOptionEPN4llvm2cl6OptionEb
   fun:_ZN4llvm2cl6Option11addArgumentEv
   fun:_GLOBAL__sub_I_X86ISelLowering.cpp
   fun:call_init.part.0
   fun:call_init
   fun:_dl_init
   obj:/usr/lib/x86_64-linux-gnu/ld-linux-x86-64.so.2
}
{
   <insert_a_suppression_name_here>
   Memcheck:Leak
   match-leak-kinds: reachable
   fun:malloc
   fun:_ZN4llvm11safe_mallocEm
   fun:_ZN4llvm9StringMapIPNS_2cl6OptionENS_15MallocAllocatorEE11try_emplaceIIS3_EEESt4pairINS_17StringMapIteratorIS3_EEbENS_9StringRefEDpOT_
   fun:_ZN12_GLOBAL__N_117CommandLineParser9addOptionEPN4llvm2cl6OptionEPNS2_10SubCommandE.constprop.393
   fun:_ZN12_GLOBAL__N_117CommandLineParser9addOptionEPN4llvm2cl6OptionEb
   fun:_ZN4llvm2cl6Option11addArgumentEv
   fun:_GLOBAL__sub_I_ScheduleDAGSDNodes.cpp
   fun:call_init.part.0
   fun:call_init
   fun:_dl_init
   obj:/usr/lib/x86_64-linux-gnu/ld-linux-x86-64.so.2
}
{
   <insert_a_suppression_name_here>
   Memcheck:Leak
   match-leak-kinds: reachable
   fun:malloc
   fun:_ZN4llvm11safe_mallocEm
   fun:_ZN4llvm9StringMapIPNS_2cl6OptionENS_15MallocAllocatorEE11try_emplaceIIS3_EEESt4pairINS_17StringMapIteratorIS3_EEbENS_9StringRefEDpOT_
   fun:_ZN12_GLOBAL__N_117CommandLineParser9addOptionEPN4llvm2cl6OptionEPNS2_10SubCommandE.constprop.393
   fun:_ZN12_GLOBAL__N_117CommandLineParser9addOptionEPN4llvm2cl6OptionEb
   fun:_ZN4llvm2cl6Option11addArgumentEv
   fun:_GLOBAL__sub_I_CorrelatedValuePropagation.cpp
   fun:call_init.part.0
   fun:call_init
   fun:_dl_init
   obj:/usr/lib/x86_64-linux-gnu/ld-linux-x86-64.so.2
}
{
   <insert_a_suppression_name_here>
   Memcheck:Leak
   match-leak-kinds: reachable
   fun:malloc
   fun:_ZN4llvm11safe_mallocEm
   fun:_ZN4llvm9StringMapIPNS_2cl6OptionENS_15MallocAllocatorEE11try_emplaceIIS3_EEESt4pairINS_17StringMapIteratorIS3_EEbENS_9StringRefEDpOT_
   fun:_ZN12_GLOBAL__N_117CommandLineParser9addOptionEPN4llvm2cl6OptionEPNS2_10SubCommandE.constprop.393
   fun:_ZN12_GLOBAL__N_117CommandLineParser9addOptionEPN4llvm2cl6OptionEb
   fun:_ZN4llvm2cl6Option11addArgumentEv
   fun:_GLOBAL__sub_I_SpeculativeExecution.cpp
   fun:call_init.part.0
   fun:call_init
   fun:_dl_init
   obj:/usr/lib/x86_64-linux-gnu/ld-linux-x86-64.so.2
}
{
   <insert_a_suppression_name_here>
   Memcheck:Leak
   match-leak-kinds: reachable
   fun:_Znwm
   fun:_ZNSs4_Rep9_S_createEmmRKSaIcE
   fun:_ZNSs12_S_constructIPKcEEPcT_S3_RKSaIcESt20forward_iterator_tag
   fun:_ZNSsC1EPKcmRKSaIcE
   fun:_ZNK4llvm9StringRef3strEv
   fun:_GLOBAL__sub_I_InstructionCombining.cpp
   fun:call_init.part.0
   fun:call_init
   fun:_dl_init
   obj:/usr/lib/x86_64-linux-gnu/ld-linux-x86-64.so.2
}
{
   <insert_a_suppression_name_here>
   Memcheck:Leak
   match-leak-kinds: reachable
   fun:malloc
   fun:_ZN4llvm11safe_mallocEm
   fun:_ZN4llvm9StringMapIPNS_2cl6OptionENS_15MallocAllocatorEE11try_emplaceIIS3_EEESt4pairINS_17StringMapIteratorIS3_EEbENS_9StringRefEDpOT_
   fun:_ZN12_GLOBAL__N_117CommandLineParser9addOptionEPN4llvm2cl6OptionEPNS2_10SubCommandE.constprop.393
   fun:_ZN12_GLOBAL__N_117CommandLineParser9addOptionEPN4llvm2cl6OptionEb
   fun:_ZN4llvm2cl6Option11addArgumentEv
   fun:_ZN4llvm2cl3optIbLb0ENS0_6parserIbEEEC1IIA26_cNS0_11initializerIbEENS0_12OptionHiddenENS0_4descEEEEDpRKT_
   fun:_GLOBAL__sub_I_LoopUnrollRuntime.cpp
   fun:call_init.part.0
   fun:call_init
   fun:_dl_init
   obj:/usr/lib/x86_64-linux-gnu/ld-linux-x86-64.so.2
}
{
   <insert_a_suppression_name_here>
   Memcheck:Leak
   match-leak-kinds: reachable
   fun:malloc
   fun:_ZN4llvm11safe_mallocEm
   fun:_ZN4llvm9StringMapIPNS_2cl6OptionENS_15MallocAllocatorEE11try_emplaceIIS3_EEESt4pairINS_17StringMapIteratorIS3_EEbENS_9StringRefEDpOT_
   fun:_ZN12_GLOBAL__N_117CommandLineParser9addOptionEPN4llvm2cl6OptionEPNS2_10SubCommandE.constprop.393
   fun:_ZN12_GLOBAL__N_117CommandLineParser9addOptionEPN4llvm2cl6OptionEb
   fun:_ZN4llvm2cl6Option11addArgumentEv
   fun:_GLOBAL__sub_I_ProfileSummaryInfo.cpp
   fun:call_init.part.0
   fun:call_init
   fun:_dl_init
   obj:/usr/lib/x86_64-linux-gnu/ld-linux-x86-64.so.2
}
{
   <insert_a_suppression_name_here>
   Memcheck:Leak
   match-leak-kinds: reachable
   fun:malloc
   fun:_ZN4llvm11safe_mallocEm
   fun:_ZN4llvm9StringMapIPNS_2cl6OptionENS_15MallocAllocatorEE11try_emplaceIIS3_EEESt4pairINS_17StringMapIteratorIS3_EEbENS_9StringRefEDpOT_
   fun:_ZN12_GLOBAL__N_117CommandLineParser9addOptionEPN4llvm2cl6OptionEPNS2_10SubCommandE.constprop.393
   fun:_ZN12_GLOBAL__N_117CommandLineParser9addOptionEPN4llvm2cl6OptionEb
   fun:_ZN4llvm2cl6Option11addArgumentEv
   fun:_ZN4llvm2cl3optIbLb0ENS0_6parserIbEEEC1IIA26_cNS0_11initializerIbEENS0_12OptionHiddenENS0_4descEEEEDpRKT_
   fun:_GLOBAL__sub_I_YAMLRemarkSerializer.cpp
   fun:call_init.part.0
   fun:call_init
   fun:_dl_init
   obj:/usr/lib/x86_64-linux-gnu/ld-linux-x86-64.so.2
}
{
   <insert_a_suppression_name_here>
   Memcheck:Leak
   match-leak-kinds: reachable
   fun:_Znwm
   fun:_ZNSs4_Rep9_S_createEmmRKSaIcE
   fun:_ZNSs12_S_constructIPKcEEPcT_S3_RKSaIcESt20forward_iterator_tag
   fun:_ZNSsC1EPKcRKSaIcE
   fun:_GLOBAL__sub_I_config.cpp
   fun:call_init.part.0
   fun:call_init
   fun:_dl_init
   obj:/usr/lib/x86_64-linux-gnu/ld-linux-x86-64.so.2
}
{
   <insert_a_suppression_name_here>
   Memcheck:Leak
   match-leak-kinds: reachable
   fun:malloc
   fun:_ZN4llvm11safe_mallocEm
   fun:_ZN4llvm9StringMapIPNS_2cl6OptionENS_15MallocAllocatorEE11try_emplaceIIS3_EEESt4pairINS_17StringMapIteratorIS3_EEbENS_9StringRefEDpOT_
   fun:_ZN12_GLOBAL__N_117CommandLineParser9addOptionEPN4llvm2cl6OptionEPNS2_10SubCommandE.constprop.393
   fun:_ZN12_GLOBAL__N_117CommandLineParser9addOptionEPN4llvm2cl6OptionEb
   fun:_ZN4llvm2cl6Option11addArgumentEv
   fun:_ZN4llvm2cl3optIbLb0ENS0_6parserIbEEEC1IIA27_cNS0_4descENS0_18NumOccurrencesFlagENS0_11initializerIbEEEEEDpRKT_
   fun:_GLOBAL__sub_I_IRTranslator.cpp
   fun:call_init.part.0
   fun:call_init
   fun:_dl_init
   obj:/usr/lib/x86_64-linux-gnu/ld-linux-x86-64.so.2
}
{
   <insert_a_suppression_name_here>
   Memcheck:Leak
   match-leak-kinds: reachable
   fun:malloc
   fun:_ZN4llvm11safe_mallocEm
   fun:_ZN4llvm9StringMapIPNS_2cl6OptionENS_15MallocAllocatorEE11try_emplaceIIS3_EEESt4pairINS_17StringMapIteratorIS3_EEbENS_9StringRefEDpOT_
   fun:_ZN12_GLOBAL__N_117CommandLineParser9addOptionEPN4llvm2cl6OptionEPNS2_10SubCommandE.constprop.393
   fun:_ZN12_GLOBAL__N_117CommandLineParser9addOptionEPN4llvm2cl6OptionEb
   fun:_ZN4llvm2cl6Option11addArgumentEv
   fun:_ZN4llvm2cl3optIbLb0ENS0_6parserIbEEEC1IIA27_cNS0_4descENS0_11initializerIbEENS0_12OptionHiddenEEEEDpRKT_
   fun:_GLOBAL__sub_I_InterleavedAccessPass.cpp
   fun:call_init.part.0
   fun:call_init
   fun:_dl_init
   obj:/usr/lib/x86_64-linux-gnu/ld-linux-x86-64.so.2
}
{
   <insert_a_suppression_name_here>
   Memcheck:Leak
   match-leak-kinds: reachable
   fun:malloc
   fun:_ZN4llvm11safe_mallocEm
   fun:_ZN4llvm9StringMapIPNS_2cl6OptionENS_15MallocAllocatorEE11try_emplaceIIS3_EEESt4pairINS_17StringMapIteratorIS3_EEbENS_9StringRefEDpOT_
   fun:_ZN12_GLOBAL__N_117CommandLineParser9addOptionEPN4llvm2cl6OptionEPNS2_10SubCommandE.constprop.393
   fun:_ZN12_GLOBAL__N_117CommandLineParser9addOptionEPN4llvm2cl6OptionEb
   fun:_ZN4llvm2cl6Option11addArgumentEv
   fun:_GLOBAL__sub_I_StackMapLivenessAnalysis.cpp
   fun:call_init.part.0
   fun:call_init
   fun:_dl_init
   obj:/usr/lib/x86_64-linux-gnu/ld-linux-x86-64.so.2
}
{
   <insert_a_suppression_name_here>
   Memcheck:Leak
   match-leak-kinds: reachable
   fun:malloc
   fun:_ZN4llvm11safe_mallocEm
   fun:_ZN4llvm9StringMapIPNS_2cl6OptionENS_15MallocAllocatorEE11try_emplaceIIS3_EEESt4pairINS_17StringMapIteratorIS3_EEbENS_9StringRefEDpOT_
   fun:_ZN12_GLOBAL__N_117CommandLineParser9addOptionEPN4llvm2cl6OptionEPNS2_10SubCommandE.constprop.393
   fun:_ZN12_GLOBAL__N_117CommandLineParser9addOptionEPN4llvm2cl6OptionEb
   fun:_ZN4llvm2cl6Option11addArgumentEv
   fun:_Z41__static_initialization_and_destruction_0ii.constprop.1360
   fun:call_init.part.0
   fun:call_init
   fun:_dl_init
   obj:/usr/lib/x86_64-linux-gnu/ld-linux-x86-64.so.2
}
{
   <insert_a_suppression_name_here>
   Memcheck:Leak
   match-leak-kinds: reachable
   fun:malloc
   fun:_ZN4llvm11safe_mallocEm
   fun:_ZN4llvm9StringMapIPNS_2cl6OptionENS_15MallocAllocatorEE11try_emplaceIIS3_EEESt4pairINS_17StringMapIteratorIS3_EEbENS_9StringRefEDpOT_
   fun:_ZN12_GLOBAL__N_117CommandLineParser9addOptionEPN4llvm2cl6OptionEPNS2_10SubCommandE.constprop.393
   fun:_ZN12_GLOBAL__N_117CommandLineParser9addOptionEPN4llvm2cl6OptionEb
   fun:_ZN4llvm2cl6Option11addArgumentEv
   fun:_ZN4llvm2cl3optIiLb0ENS0_6parserIiEEEC1IIA27_cNS0_11initializerIiEENS0_12OptionHiddenENS0_4descEEEEDpRKT_
   fun:_GLOBAL__sub_I_LoopInterchange.cpp
   fun:call_init.part.0
   fun:call_init
   fun:_dl_init
   obj:/usr/lib/x86_64-linux-gnu/ld-linux-x86-64.so.2
}
{
   <insert_a_suppression_name_here>
   Memcheck:Leak
   match-leak-kinds: reachable
   fun:malloc
   fun:_ZN4llvm11safe_mallocEm
   fun:_ZN4llvm9StringMapIPNS_2cl6OptionENS_15MallocAllocatorEE11try_emplaceIIS3_EEESt4pairINS_17StringMapIteratorIS3_EEbENS_9StringRefEDpOT_
   fun:_ZN12_GLOBAL__N_117CommandLineParser9addOptionEPN4llvm2cl6OptionEPNS2_10SubCommandE.constprop.393
   fun:_ZN12_GLOBAL__N_117CommandLineParser9addOptionEPN4llvm2cl6OptionEb
   fun:_ZN4llvm2cl6Option11addArgumentEv
   fun:_GLOBAL__sub_I_SimplifyLibCalls.cpp
   fun:call_init.part.0
   fun:call_init
   fun:_dl_init
   obj:/usr/lib/x86_64-linux-gnu/ld-linux-x86-64.so.2
}
{
   <insert_a_suppression_name_here>
   Memcheck:Leak
   match-leak-kinds: reachable
   fun:malloc
   fun:_ZN4llvm11safe_mallocEm
   fun:_ZN4llvm9StringMapIPNS_2cl6OptionENS_15MallocAllocatorEE11try_emplaceIIS3_EEESt4pairINS_17StringMapIteratorIS3_EEbENS_9StringRefEDpOT_
   fun:_ZN12_GLOBAL__N_117CommandLineParser9addOptionEPN4llvm2cl6OptionEPNS2_10SubCommandE.constprop.393
   fun:_ZN12_GLOBAL__N_117CommandLineParser9addOptionEPN4llvm2cl6OptionEb
   fun:_ZN4llvm2cl6Option11addArgumentEv
   fun:_GLOBAL__sub_I_VectorUtils.cpp
   fun:call_init.part.0
   fun:call_init
   fun:_dl_init
   obj:/usr/lib/x86_64-linux-gnu/ld-linux-x86-64.so.2
}
{
   <insert_a_suppression_name_here>
   Memcheck:Leak
   match-leak-kinds: reachable
   fun:malloc
   fun:_ZN4llvm11safe_mallocEm
   fun:_ZN4llvm9StringMapIPNS_2cl6OptionENS_15MallocAllocatorEE11try_emplaceIIS3_EEESt4pairINS_17StringMapIteratorIS3_EEbENS_9StringRefEDpOT_
   fun:_ZN12_GLOBAL__N_117CommandLineParser9addOptionEPN4llvm2cl6OptionEPNS2_10SubCommandE.constprop.393
   fun:_ZN12_GLOBAL__N_117CommandLineParser9addOptionEPN4llvm2cl6OptionEb
   fun:_ZN4llvm2cl6Option11addArgumentEv
   fun:_ZN4llvm2cl3optIbLb0ENS0_6parserIbEEEC1IIA28_cNS0_11initializerIbEENS0_12OptionHiddenENS0_4descEEEEDpRKT_
   fun:_GLOBAL__sub_I_FastISel.cpp
   fun:call_init.part.0
   fun:call_init
   fun:_dl_init
   obj:/usr/lib/x86_64-linux-gnu/ld-linux-x86-64.so.2
}
{
   <insert_a_suppression_name_here>
   Memcheck:Leak
   match-leak-kinds: reachable
   fun:malloc
   fun:_ZN4llvm11safe_mallocEm
   fun:_ZN4llvm9StringMapIPNS_2cl6OptionENS_15MallocAllocatorEE11try_emplaceIIS3_EEESt4pairINS_17StringMapIteratorIS3_EEbENS_9StringRefEDpOT_
   fun:_ZN12_GLOBAL__N_117CommandLineParser9addOptionEPN4llvm2cl6OptionEPNS2_10SubCommandE.constprop.393
   fun:_ZN12_GLOBAL__N_117CommandLineParser9addOptionEPN4llvm2cl6OptionEb
   fun:_ZN4llvm2cl6Option11addArgumentEv
   fun:_GLOBAL__sub_I_BasicTargetTransformInfo.cpp
   fun:call_init.part.0
   fun:call_init
   fun:_dl_init
   obj:/usr/lib/x86_64-linux-gnu/ld-linux-x86-64.so.2
}
{
   <insert_a_suppression_name_here>
   Memcheck:Leak
   match-leak-kinds: reachable
   fun:malloc
   fun:_ZN4llvm11safe_mallocEm
   fun:_ZN4llvm9StringMapIPNS_2cl6OptionENS_15MallocAllocatorEE11try_emplaceIIS3_EEESt4pairINS_17StringMapIteratorIS3_EEbENS_9StringRefEDpOT_
   fun:_ZN12_GLOBAL__N_117CommandLineParser9addOptionEPN4llvm2cl6OptionEPNS2_10SubCommandE.constprop.393
   fun:_ZN12_GLOBAL__N_117CommandLineParser9addOptionEPN4llvm2cl6OptionEb
   fun:_ZN4llvm2cl6Option11addArgumentEv
   fun:_ZN4llvm2cl3optIbLb0ENS0_6parserIbEEEC1IIA28_cNS0_11initializerIbEENS0_12OptionHiddenENS0_4descEEEEDpRKT_
   fun:_Z41__static_initialization_and_destruction_0ii.constprop.91
   fun:call_init.part.0
   fun:call_init
   fun:_dl_init
   obj:/usr/lib/x86_64-linux-gnu/ld-linux-x86-64.so.2
}
{
   <insert_a_suppression_name_here>
   Memcheck:Leak
   match-leak-kinds: reachable
   fun:malloc
   fun:_ZN4llvm11safe_mallocEm
   fun:_ZN4llvm9StringMapIPNS_2cl6OptionENS_15MallocAllocatorEE11try_emplaceIIS3_EEESt4pairINS_17StringMapIteratorIS3_EEbENS_9StringRefEDpOT_
   fun:_ZN12_GLOBAL__N_117CommandLineParser9addOptionEPN4llvm2cl6OptionEPNS2_10SubCommandE.constprop.393
   fun:_ZN12_GLOBAL__N_117CommandLineParser9addOptionEPN4llvm2cl6OptionEb
   fun:_ZN4llvm2cl6Option11addArgumentEv
   fun:_ZN4llvm2cl3optIjLb0ENS0_6parserIjEEEC1IIA28_cNS0_12OptionHiddenENS0_11initializerIiEENS0_4descEEEEDpRKT_
   fun:_GLOBAL__sub_I_CalledValuePropagation.cpp
   fun:call_init.part.0
   fun:call_init
   fun:_dl_init
   obj:/usr/lib/x86_64-linux-gnu/ld-linux-x86-64.so.2
}
{
   <insert_a_suppression_name_here>
   Memcheck:Leak
   match-leak-kinds: reachable
   fun:malloc
   fun:_ZN4llvm11safe_mallocEm
   fun:_ZN4llvm9StringMapIPNS_2cl6OptionENS_15MallocAllocatorEE11try_emplaceIIS3_EEESt4pairINS_17StringMapIteratorIS3_EEbENS_9StringRefEDpOT_
   fun:_ZN12_GLOBAL__N_117CommandLineParser9addOptionEPN4llvm2cl6OptionEPNS2_10SubCommandE.constprop.393
   fun:_ZN12_GLOBAL__N_117CommandLineParser9addOptionEPN4llvm2cl6OptionEb
   fun:_ZN4llvm2cl6Option11addArgumentEv
   fun:_ZN4llvm2cl3optIbLb0ENS0_6parserIbEEEC1IIA28_cNS0_11initializerIbEENS0_12OptionHiddenENS0_4descEEEEDpRKT_
   fun:_GLOBAL__sub_I_LegacyDivergenceAnalysis.cpp
   fun:call_init.part.0
   fun:call_init
   fun:_dl_init
   obj:/usr/lib/x86_64-linux-gnu/ld-linux-x86-64.so.2
}
{
   <insert_a_suppression_name_here>
   Memcheck:Leak
   match-leak-kinds: reachable
   fun:malloc
   fun:_ZN4llvm11safe_mallocEm
   fun:_ZN4llvm9StringMapIPNS_2cl6OptionENS_15MallocAllocatorEE11try_emplaceIIS3_EEESt4pairINS_17StringMapIteratorIS3_EEbENS_9StringRefEDpOT_
   fun:_ZN12_GLOBAL__N_117CommandLineParser9addOptionEPN4llvm2cl6OptionEPNS2_10SubCommandE.constprop.393
   fun:_ZN12_GLOBAL__N_117CommandLineParser9addOptionEPN4llvm2cl6OptionEb
   fun:_ZN4llvm2cl6Option11addArgumentEv
   fun:_ZN4llvm2cl3optIjLb0ENS0_6parserIjEEEC1IIA28_cNS0_11initializerIiEENS0_12OptionHiddenENS0_4descEEEEDpRKT_
   fun:_GLOBAL__sub_I_AsmParser.cpp
   fun:call_init.part.0
   fun:call_init
   fun:_dl_init
   obj:/usr/lib/x86_64-linux-gnu/ld-linux-x86-64.so.2
}
{
   <insert_a_suppression_name_here>
   Memcheck:Leak
   match-leak-kinds: reachable
   fun:malloc
   fun:_ZN4llvm11safe_mallocEm
   fun:_ZN4llvm9StringMapIPNS_2cl6OptionENS_15MallocAllocatorEE11try_emplaceIIS3_EEESt4pairINS_17StringMapIteratorIS3_EEbENS_9StringRefEDpOT_
   fun:_ZN12_GLOBAL__N_117CommandLineParser9addOptionEPN4llvm2cl6OptionEPNS2_10SubCommandE.constprop.393
   fun:_ZN12_GLOBAL__N_117CommandLineParser9addOptionEPN4llvm2cl6OptionEb
   fun:_ZN4llvm2cl6Option11addArgumentEv
   fun:_GLOBAL__sub_I_X86IndirectBranchTracking.cpp
   fun:call_init.part.0
   fun:call_init
   fun:_dl_init
   obj:/usr/lib/x86_64-linux-gnu/ld-linux-x86-64.so.2
}
{
   <insert_a_suppression_name_here>
   Memcheck:Leak
   match-leak-kinds: reachable
   fun:malloc
   fun:_ZN4llvm11safe_mallocEm
   fun:_ZN4llvm9StringMapIPNS_2cl6OptionENS_15MallocAllocatorEE11try_emplaceIIS3_EEESt4pairINS_17StringMapIteratorIS3_EEbENS_9StringRefEDpOT_
   fun:_ZN12_GLOBAL__N_117CommandLineParser9addOptionEPN4llvm2cl6OptionEPNS2_10SubCommandE.constprop.393
   fun:_ZN12_GLOBAL__N_117CommandLineParser9addOptionEPN4llvm2cl6OptionEb
   fun:_ZN4llvm2cl6Option11addArgumentEv
   fun:_ZN4llvm2cl3optIbLb0ENS0_6parserIbEEEC1IIA29_cNS0_4descENS0_12OptionHiddenEEEEDpRKT_
   fun:_GLOBAL__sub_I_LegalizerInfo.cpp
   fun:call_init.part.0
   fun:call_init
   fun:_dl_init
   obj:/usr/lib/x86_64-linux-gnu/ld-linux-x86-64.so.2
}
{
   <insert_a_suppression_name_here>
   Memcheck:Leak
   match-leak-kinds: reachable
   fun:malloc
   fun:_ZN4llvm11safe_mallocEm
   fun:_ZN4llvm9StringMapIPNS_2cl6OptionENS_15MallocAllocatorEE11try_emplaceIIS3_EEESt4pairINS_17StringMapIteratorIS3_EEbENS_9StringRefEDpOT_
   fun:_ZN12_GLOBAL__N_117CommandLineParser9addOptionEPN4llvm2cl6OptionEPNS2_10SubCommandE.constprop.393
   fun:_ZN12_GLOBAL__N_117CommandLineParser9addOptionEPN4llvm2cl6OptionEb
   fun:_ZN4llvm2cl6Option11addArgumentEv
   fun:_ZN4llvm2cl3optIbLb0ENS0_6parserIbEEEC1IIA29_cNS0_12OptionHiddenENS0_4descENS0_11initializerIbEEEEEDpRKT_
   fun:_GLOBAL__sub_I_MachineOutliner.cpp
   fun:call_init.part.0
   fun:call_init
   fun:_dl_init
   obj:/usr/lib/x86_64-linux-gnu/ld-linux-x86-64.so.2
}
{
   <insert_a_suppression_name_here>
   Memcheck:Leak
   match-leak-kinds: reachable
   fun:_Znwm
   fun:_ZNSs4_Rep9_S_createEmmRKSaIcE
   fun:_ZNSs12_S_constructIPKcEEPcT_S3_RKSaIcESt20forward_iterator_tag
   fun:_ZNSsC1EPKcmRKSaIcE
   fun:_ZNK4llvm9StringRef3strEv
   fun:_GLOBAL__sub_I_PredicateInfo.cpp
   fun:call_init.part.0
   fun:call_init
   fun:_dl_init
   obj:/usr/lib/x86_64-linux-gnu/ld-linux-x86-64.so.2
}
{
   <insert_a_suppression_name_here>
   Memcheck:Leak
   match-leak-kinds: reachable
   fun:malloc
   fun:_ZN4llvm11safe_mallocEm
   fun:_ZN4llvm9StringMapIPNS_2cl6OptionENS_15MallocAllocatorEE11try_emplaceIIS3_EEESt4pairINS_17StringMapIteratorIS3_EEbENS_9StringRefEDpOT_
   fun:_ZN12_GLOBAL__N_117CommandLineParser9addOptionEPN4llvm2cl6OptionEPNS2_10SubCommandE.constprop.393
   fun:_ZN12_GLOBAL__N_117CommandLineParser9addOptionEPN4llvm2cl6OptionEb
   fun:_ZN4llvm2cl6Option11addArgumentEv
   fun:_GLOBAL__sub_I_MetadataLoader.cpp
   fun:call_init.part.0
   fun:call_init
   fun:_dl_init
   obj:/usr/lib/x86_64-linux-gnu/ld-linux-x86-64.so.2
}
{
   <insert_a_suppression_name_here>
   Memcheck:Leak
   match-leak-kinds: reachable
   fun:_Znwm
   fun:_ZNSs4_Rep9_S_createEmmRKSaIcE
   fun:_ZNSs12_S_constructIPKcEEPcT_S3_RKSaIcESt20forward_iterator_tag
   fun:_ZNSsC1EPKcRKSaIcE
   fun:_GLOBAL__sub_I_TensorImpl.cpp
   fun:call_init.part.0
   fun:call_init
   fun:_dl_init
   obj:/usr/lib/x86_64-linux-gnu/ld-linux-x86-64.so.2
}
{
   <insert_a_suppression_name_here>
   Memcheck:Leak
   match-leak-kinds: reachable
   fun:malloc
   fun:_ZN4llvm11safe_mallocEm
   fun:_ZN4llvm9StringMapIPNS_2cl6OptionENS_15MallocAllocatorEE11try_emplaceIIS3_EEESt4pairINS_17StringMapIteratorIS3_EEbENS_9StringRefEDpOT_
   fun:_ZN12_GLOBAL__N_117CommandLineParser9addOptionEPN4llvm2cl6OptionEPNS2_10SubCommandE.constprop.393
   fun:_ZN12_GLOBAL__N_117CommandLineParser9addOptionEPN4llvm2cl6OptionEb
   fun:_ZN4llvm2cl6Option11addArgumentEv
   fun:_ZN4llvm2cl3optIbLb0ENS0_6parserIbEEEC1IIA30_cNS0_11initializerIbEENS0_12OptionHiddenEEEEDpRKT_
   fun:_GLOBAL__sub_I_SafeStack.cpp
   fun:call_init.part.0
   fun:call_init
   fun:_dl_init
   obj:/usr/lib/x86_64-linux-gnu/ld-linux-x86-64.so.2
}
{
   <insert_a_suppression_name_here>
   Memcheck:Leak
   match-leak-kinds: reachable
   fun:malloc
   fun:_ZN4llvm11safe_mallocEm
   fun:_ZN4llvm9StringMapIPNS_2cl6OptionENS_15MallocAllocatorEE11try_emplaceIIS3_EEESt4pairINS_17StringMapIteratorIS3_EEbENS_9StringRefEDpOT_
   fun:_ZN12_GLOBAL__N_117CommandLineParser9addOptionEPN4llvm2cl6OptionEPNS2_10SubCommandE.constprop.393
   fun:_ZN12_GLOBAL__N_117CommandLineParser9addOptionEPN4llvm2cl6OptionEb
   fun:_ZN4llvm2cl6Option11addArgumentEv
   fun:_ZN4llvm2cl3optIjLb0ENS0_6parserIjEEEC1IIA31_cNS0_12OptionHiddenENS0_11initializerIiEENS0_4descEEEEDpRKT_
   fun:_GLOBAL__sub_I_Value.cpp
   fun:call_init.part.0
   fun:call_init
   fun:_dl_init
   obj:/usr/lib/x86_64-linux-gnu/ld-linux-x86-64.so.2
}
{
   <insert_a_suppression_name_here>
   Memcheck:Leak
   match-leak-kinds: reachable
   fun:malloc
   fun:_ZN4llvm11safe_mallocEm
   fun:_ZN4llvm9StringMapIPNS_2cl6OptionENS_15MallocAllocatorEE11try_emplaceIIS3_EEESt4pairINS_17StringMapIteratorIS3_EEbENS_9StringRefEDpOT_
   fun:_ZN12_GLOBAL__N_117CommandLineParser9addOptionEPN4llvm2cl6OptionEPNS2_10SubCommandE.constprop.393
   fun:_ZN12_GLOBAL__N_117CommandLineParser9addOptionEPN4llvm2cl6OptionEb
   fun:_ZN4llvm2cl6Option11addArgumentEv
   fun:_ZN4llvm2cl3optIjLb0ENS0_6parserIjEEEC1IIA31_cNS0_12OptionHiddenENS0_11initializerIiEENS0_4descEEEEDpRKT_
   fun:_GLOBAL__sub_I_AliasSetTracker.cpp
   fun:call_init.part.0
   fun:call_init
   fun:_dl_init
   obj:/usr/lib/x86_64-linux-gnu/ld-linux-x86-64.so.2
}
{
   <insert_a_suppression_name_here>
   Memcheck:Leak
   match-leak-kinds: reachable
   fun:malloc
   fun:_ZN4llvm11safe_mallocEm
   fun:_ZN4llvm9StringMapIPNS_2cl6OptionENS_15MallocAllocatorEE11try_emplaceIIS3_EEESt4pairINS_17StringMapIteratorIS3_EEbENS_9StringRefEDpOT_
   fun:_ZN12_GLOBAL__N_117CommandLineParser9addOptionEPN4llvm2cl6OptionEPNS2_10SubCommandE.constprop.393
   fun:_ZN12_GLOBAL__N_117CommandLineParser9addOptionEPN4llvm2cl6OptionEb
   fun:_ZN4llvm2cl6Option11addArgumentEv
   fun:_GLOBAL__sub_I_LegalizeTypes.cpp
   fun:call_init.part.0
   fun:call_init
   fun:_dl_init
   obj:/usr/lib/x86_64-linux-gnu/ld-linux-x86-64.so.2
}
{
   <insert_a_suppression_name_here>
   Memcheck:Leak
   match-leak-kinds: reachable
   fun:malloc
   fun:_ZN4llvm11safe_mallocEm
   fun:_ZN4llvm9StringMapIPNS_2cl6OptionENS_15MallocAllocatorEE11try_emplaceIIS3_EEESt4pairINS_17StringMapIteratorIS3_EEbENS_9StringRefEDpOT_
   fun:_ZN12_GLOBAL__N_117CommandLineParser9addOptionEPN4llvm2cl6OptionEPNS2_10SubCommandE.constprop.393
   fun:_ZN12_GLOBAL__N_117CommandLineParser9addOptionEPN4llvm2cl6OptionEb
   fun:_ZN4llvm2cl6Option11addArgumentEv
   fun:_GLOBAL__sub_I_MachineCombiner.cpp
   fun:call_init.part.0
   fun:call_init
   fun:_dl_init
   obj:/usr/lib/x86_64-linux-gnu/ld-linux-x86-64.so.2
}
{
   <insert_a_suppression_name_here>
   Memcheck:Leak
   match-leak-kinds: reachable
   fun:malloc
   fun:_ZN4llvm11safe_mallocEm
   fun:_ZN4llvm9StringMapIPNS_2cl6OptionENS_15MallocAllocatorEE11try_emplaceIIS3_EEESt4pairINS_17StringMapIteratorIS3_EEbENS_9StringRefEDpOT_
   fun:_ZN12_GLOBAL__N_117CommandLineParser9addOptionEPN4llvm2cl6OptionEPNS2_10SubCommandE.constprop.393
   fun:_ZN12_GLOBAL__N_117CommandLineParser9addOptionEPN4llvm2cl6OptionEb
   fun:_ZN4llvm2cl6Option11addArgumentEv
   fun:_GLOBAL__sub_I_LoopVersioning.cpp
   fun:call_init.part.0
   fun:call_init
   fun:_dl_init
   obj:/usr/lib/x86_64-linux-gnu/ld-linux-x86-64.so.2
}
{
   <insert_a_suppression_name_here>
   Memcheck:Leak
   match-leak-kinds: reachable
   fun:malloc
   fun:_ZN4llvm11safe_mallocEm
   fun:_ZN4llvm9StringMapIPNS_2cl6OptionENS_15MallocAllocatorEE11try_emplaceIIS3_EEESt4pairINS_17StringMapIteratorIS3_EEbENS_9StringRefEDpOT_
   fun:_ZN12_GLOBAL__N_117CommandLineParser9addOptionEPN4llvm2cl6OptionEPNS2_10SubCommandE.constprop.393
   fun:_ZN12_GLOBAL__N_117CommandLineParser9addOptionEPN4llvm2cl6OptionEb
   fun:_ZN4llvm2cl6Option11addArgumentEv
   fun:_GLOBAL__sub_I_InstrProf.cpp
   fun:call_init.part.0
   fun:call_init
   fun:_dl_init
   obj:/usr/lib/x86_64-linux-gnu/ld-linux-x86-64.so.2
}
{
   <insert_a_suppression_name_here>
   Memcheck:Leak
   match-leak-kinds: reachable
   fun:_Znwm
   fun:_ZNSs4_Rep9_S_createEmmRKSaIcE
   fun:_ZNSs12_S_constructIPKcEEPcT_S3_RKSaIcESt20forward_iterator_tag
   fun:_ZNSsC1EPKcRKSaIcE
   fun:_GLOBAL__sub_I_numa.cpp
   fun:call_init.part.0
   fun:call_init
   fun:_dl_init
   obj:/usr/lib/x86_64-linux-gnu/ld-linux-x86-64.so.2
}
{
   <insert_a_suppression_name_here>
   Memcheck:Leak
   match-leak-kinds: reachable
   fun:_Znwm
   fun:_ZN4llvm12DebugCounter10addCounterERKSsS2_
   fun:_GLOBAL__sub_I_DCE.cpp
   fun:call_init.part.0
   fun:call_init
   fun:_dl_init
   obj:/usr/lib/x86_64-linux-gnu/ld-linux-x86-64.so.2
}
{
   <insert_a_suppression_name_here>
   Memcheck:Leak
   match-leak-kinds: reachable
   fun:malloc
   fun:_ZN4llvm11safe_mallocEm
   fun:_ZN4llvm9StringMapIPNS_2cl6OptionENS_15MallocAllocatorEE11try_emplaceIIS3_EEESt4pairINS_17StringMapIteratorIS3_EEbENS_9StringRefEDpOT_
   fun:_ZN12_GLOBAL__N_117CommandLineParser9addOptionEPN4llvm2cl6OptionEPNS2_10SubCommandE.constprop.393
   fun:_ZN12_GLOBAL__N_117CommandLineParser9addOptionEPN4llvm2cl6OptionEb
   fun:_ZN4llvm2cl6Option11addArgumentEv
   fun:_ZN4llvm2cl3optIbLb0ENS0_6parserIbEEEC1IIA32_cNS0_12OptionHiddenENS0_4descENS0_11initializerIbEEEEEDpRKT_
   fun:_GLOBAL__sub_I_X86DomainReassignment.cpp
   fun:call_init.part.0
   fun:call_init
   fun:_dl_init
   obj:/usr/lib/x86_64-linux-gnu/ld-linux-x86-64.so.2
}
{
   <insert_a_suppression_name_here>
   Memcheck:Leak
   match-leak-kinds: reachable
   fun:_Znwm
   fun:_ZN4llvm12DebugCounter10addCounterERKSsS2_
   fun:_GLOBAL__sub_I_MachineCopyPropagation.cpp
   fun:call_init.part.0
   fun:call_init
   fun:_dl_init
   obj:/usr/lib/x86_64-linux-gnu/ld-linux-x86-64.so.2
}
{
   <insert_a_suppression_name_here>
   Memcheck:Leak
   match-leak-kinds: reachable
   fun:malloc
   fun:_ZN4llvm11safe_mallocEm
   fun:_ZN4llvm9StringMapIPNS_2cl6OptionENS_15MallocAllocatorEE11try_emplaceIIS3_EEESt4pairINS_17StringMapIteratorIS3_EEbENS_9StringRefEDpOT_
   fun:_ZN12_GLOBAL__N_117CommandLineParser9addOptionEPN4llvm2cl6OptionEPNS2_10SubCommandE.constprop.393
   fun:_ZN12_GLOBAL__N_117CommandLineParser9addOptionEPN4llvm2cl6OptionEb
   fun:_ZN4llvm2cl6Option11addArgumentEv
   fun:_GLOBAL__sub_I_PHIElimination.cpp
   fun:call_init.part.0
   fun:call_init
   fun:_dl_init
   obj:/usr/lib/x86_64-linux-gnu/ld-linux-x86-64.so.2
}
{
   <insert_a_suppression_name_here>
   Memcheck:Leak
   match-leak-kinds: reachable
   fun:malloc
   fun:_ZN4llvm11safe_mallocEm
   fun:_ZN4llvm9StringMapIPNS_2cl6OptionENS_15MallocAllocatorEE11try_emplaceIIS3_EEESt4pairINS_17StringMapIteratorIS3_EEbENS_9StringRefEDpOT_
   fun:_ZN12_GLOBAL__N_117CommandLineParser9addOptionEPN4llvm2cl6OptionEPNS2_10SubCommandE.constprop.393
   fun:_ZN12_GLOBAL__N_117CommandLineParser9addOptionEPN4llvm2cl6OptionEb
   fun:_ZN4llvm2cl6Option11addArgumentEv
   fun:_Z41__static_initialization_and_destruction_0ii.constprop.1144
   fun:call_init.part.0
   fun:call_init
   fun:_dl_init
   obj:/usr/lib/x86_64-linux-gnu/ld-linux-x86-64.so.2
}
{
   <insert_a_suppression_name_here>
   Memcheck:Leak
   match-leak-kinds: reachable
   fun:_Znwm
   fun:_ZNSs4_Rep9_S_createEmmRKSaIcE
   fun:_ZNSs12_S_constructIPKcEEPcT_S3_RKSaIcESt20forward_iterator_tag
   fun:_ZNSsC1EPKcmRKSaIcE
   fun:_ZNK4llvm9StringRef3strEv
   fun:_GLOBAL__sub_I_DivRemPairs.cpp
   fun:call_init.part.0
   fun:call_init
   fun:_dl_init
   obj:/usr/lib/x86_64-linux-gnu/ld-linux-x86-64.so.2
}
{
   <insert_a_suppression_name_here>
   Memcheck:Leak
   match-leak-kinds: reachable
   fun:_Znwm
   fun:_ZN4llvm12DebugCounter10addCounterERKSsS2_
   fun:_GLOBAL__sub_I_DivRemPairs.cpp
   fun:call_init.part.0
   fun:call_init
   fun:_dl_init
   obj:/usr/lib/x86_64-linux-gnu/ld-linux-x86-64.so.2
}
{
   <insert_a_suppression_name_here>
   Memcheck:Leak
   match-leak-kinds: reachable
   fun:_Znwm
   fun:_ZN4llvm12DebugCounter10addCounterERKSsS2_
   fun:_GLOBAL__sub_I_EarlyCSE.cpp
   fun:call_init.part.0
   fun:call_init
   fun:_dl_init
   obj:/usr/lib/x86_64-linux-gnu/ld-linux-x86-64.so.2
}
{
   <insert_a_suppression_name_here>
   Memcheck:Leak
   match-leak-kinds: reachable
   fun:_Znwm
   fun:_ZN4llvm12DebugCounter10addCounterERKSsS2_
   fun:_ZN4llvm12DebugCounter15registerCounterENS_9StringRefES1_
   fun:_GLOBAL__sub_I_NewGVN.cpp
   fun:call_init.part.0
   fun:call_init
   fun:_dl_init
   obj:/usr/lib/x86_64-linux-gnu/ld-linux-x86-64.so.2
}
{
   <insert_a_suppression_name_here>
   Memcheck:Leak
   match-leak-kinds: reachable
   fun:_Znwm
   fun:_ZN4llvm12DebugCounter10addCounterERKSsS2_
   fun:_GLOBAL__sub_I_PartiallyInlineLibCalls.cpp
   fun:call_init.part.0
   fun:call_init
   fun:_dl_init
   obj:/usr/lib/x86_64-linux-gnu/ld-linux-x86-64.so.2
}
{
   <insert_a_suppression_name_here>
   Memcheck:Leak
   match-leak-kinds: reachable
   fun:_Znwm
   fun:_ZN4llvm12DebugCounter10addCounterERKSsS2_
   fun:_GLOBAL__sub_I_InstructionCombining.cpp
   fun:call_init.part.0
   fun:call_init
   fun:_dl_init
   obj:/usr/lib/x86_64-linux-gnu/ld-linux-x86-64.so.2
}
{
   <insert_a_suppression_name_here>
   Memcheck:Leak
   match-leak-kinds: reachable
   fun:malloc
   fun:_ZN4llvm11safe_mallocEm
   fun:_ZN4llvm9StringMapIPNS_2cl6OptionENS_15MallocAllocatorEE11try_emplaceIIS3_EEESt4pairINS_17StringMapIteratorIS3_EEbENS_9StringRefEDpOT_
   fun:_ZN12_GLOBAL__N_117CommandLineParser9addOptionEPN4llvm2cl6OptionEPNS2_10SubCommandE.constprop.393
   fun:_ZN12_GLOBAL__N_117CommandLineParser9addOptionEPN4llvm2cl6OptionEb
   fun:_ZN4llvm2cl6Option11addArgumentEv
   fun:_GLOBAL__sub_I_InlineFunction.cpp
   fun:call_init.part.0
   fun:call_init
   fun:_dl_init
   obj:/usr/lib/x86_64-linux-gnu/ld-linux-x86-64.so.2
}
{
   <insert_a_suppression_name_here>
   Memcheck:Leak
   match-leak-kinds: reachable
   fun:_Znwm
   fun:_ZN4llvm12DebugCounter10addCounterERKSsS2_
   fun:_GLOBAL__sub_I_PredicateInfo.cpp
   fun:call_init.part.0
   fun:call_init
   fun:_dl_init
   obj:/usr/lib/x86_64-linux-gnu/ld-linux-x86-64.so.2
}
{
   <insert_a_suppression_name_here>
   Memcheck:Leak
   match-leak-kinds: reachable
   fun:_Znwm
   fun:_ZNSt8_Rb_treeIN6google8protobuf25EncodedDescriptorDatabase15DescriptorIndex9FileEntryES4_St9_IdentityIS4_ENS3_11FileCompareESaIS4_EE16_M_insert_uniqueIRKS4_EESt4pairISt17_Rb_tree_iteratorIS4_EbEOT_
   fun:_ZN6google8protobuf25EncodedDescriptorDatabase15DescriptorIndex7AddFileINS0_19FileDescriptorProtoEEEbRKT_St4pairIPKviE
   fun:_ZN6google8protobuf25EncodedDescriptorDatabase3AddEPKvi
   fun:_ZN6google8protobuf14DescriptorPool24InternalAddGeneratedFileEPKvi
   fun:_ZN6google8protobuf12_GLOBAL__N_118AddDescriptorsImplEPKNS0_8internal15DescriptorTableE
   fun:_ZN6google8protobuf12_GLOBAL__N_118AddDescriptorsImplEPKNS0_8internal15DescriptorTableE
   fun:call_init.part.0
   fun:call_init
   fun:_dl_init
   obj:/usr/lib/x86_64-linux-gnu/ld-linux-x86-64.so.2
}
{
   <insert_a_suppression_name_here>
   Memcheck:Leak
   match-leak-kinds: reachable
   fun:_Znwm
   fun:_ZNSt8_Rb_treeIN6google8protobuf25EncodedDescriptorDatabase15DescriptorIndex11SymbolEntryES4_St9_IdentityIS4_ENS3_13SymbolCompareESaIS4_EE17_M_insert_unique_IRKS4_NS9_11_Alloc_nodeEEESt17_Rb_tree_iteratorIS4_ESt23_Rb_tree_const_iteratorIS4_EOT_RT0_
   fun:_ZN6google8protobuf25EncodedDescriptorDatabase15DescriptorIndex9AddSymbolENS0_11StringPieceE
   fun:_ZN6google8protobuf25EncodedDescriptorDatabase15DescriptorIndex7AddFileINS0_19FileDescriptorProtoEEEbRKT_St4pairIPKviE
   fun:_ZN6google8protobuf25EncodedDescriptorDatabase3AddEPKvi
   fun:_ZN6google8protobuf14DescriptorPool24InternalAddGeneratedFileEPKvi
   fun:_ZN6google8protobuf12_GLOBAL__N_118AddDescriptorsImplEPKNS0_8internal15DescriptorTableE
   fun:_ZN6google8protobuf12_GLOBAL__N_118AddDescriptorsImplEPKNS0_8internal15DescriptorTableE
   fun:call_init.part.0
   fun:call_init
   fun:_dl_init
   obj:/usr/lib/x86_64-linux-gnu/ld-linux-x86-64.so.2
}
{
   <insert_a_suppression_name_here>
   Memcheck:Leak
   match-leak-kinds: reachable
   fun:malloc
   fun:_ZN4llvm11safe_mallocEm
   fun:_ZN4llvm9StringMapIPNS_2cl6OptionENS_15MallocAllocatorEE11try_emplaceIIS3_EEESt4pairINS_17StringMapIteratorIS3_EEbENS_9StringRefEDpOT_
   fun:_ZN12_GLOBAL__N_117CommandLineParser9addOptionEPN4llvm2cl6OptionEPNS2_10SubCommandE.constprop.393
   fun:_ZN12_GLOBAL__N_117CommandLineParser9addOptionEPN4llvm2cl6OptionEb
   fun:_ZN4llvm2cl6Option11addArgumentEv
   fun:_ZN4llvm2cl3optIbLb0ENS0_6parserIbEEEC1IIA33_cNS0_11initializerIbEENS0_12OptionHiddenENS0_4descEEEEDpRKT_
   fun:_GLOBAL__sub_I_InterleavedLoadCombinePass.cpp
   fun:call_init.part.0
   fun:call_init
   fun:_dl_init
   obj:/usr/lib/x86_64-linux-gnu/ld-linux-x86-64.so.2
}
{
   <insert_a_suppression_name_here>
   Memcheck:Leak
   match-leak-kinds: reachable
   fun:malloc
   fun:_ZN4llvm11safe_mallocEm
   fun:_ZN4llvm9StringMapIPNS_2cl6OptionENS_15MallocAllocatorEE11try_emplaceIIS3_EEESt4pairINS_17StringMapIteratorIS3_EEbENS_9StringRefEDpOT_
   fun:_ZN12_GLOBAL__N_117CommandLineParser9addOptionEPN4llvm2cl6OptionEPNS2_10SubCommandE.constprop.393
   fun:_ZN12_GLOBAL__N_117CommandLineParser9addOptionEPN4llvm2cl6OptionEb
   fun:_ZN4llvm2cl6Option11addArgumentEv
   fun:_GLOBAL__sub_I_DeadStoreElimination.cpp
   fun:call_init.part.0
   fun:call_init
   fun:_dl_init
   obj:/usr/lib/x86_64-linux-gnu/ld-linux-x86-64.so.2
}
{
   <insert_a_suppression_name_here>
   Memcheck:Leak
   match-leak-kinds: reachable
   fun:malloc
   fun:_ZN4llvm11safe_mallocEm
   fun:_ZN4llvm9StringMapIPNS_2cl6OptionENS_15MallocAllocatorEE11try_emplaceIIS3_EEESt4pairINS_17StringMapIteratorIS3_EEbENS_9StringRefEDpOT_
   fun:_ZN12_GLOBAL__N_117CommandLineParser9addOptionEPN4llvm2cl6OptionEPNS2_10SubCommandE.constprop.393
   fun:_ZN12_GLOBAL__N_117CommandLineParser9addOptionEPN4llvm2cl6OptionEb
   fun:_ZN4llvm2cl6Option11addArgumentEv
   fun:_GLOBAL__sub_I_LoopLoadElimination.cpp
   fun:call_init.part.0
   fun:call_init
   fun:_dl_init
   obj:/usr/lib/x86_64-linux-gnu/ld-linux-x86-64.so.2
}
{
   <insert_a_suppression_name_here>
   Memcheck:Leak
   match-leak-kinds: reachable
   fun:_Znwm
   fun:_ZNSs4_Rep9_S_createEmmRKSaIcE
   fun:_ZNSs12_S_constructIPKcEEPcT_S3_RKSaIcESt20forward_iterator_tag
   fun:_ZNSsC1EPKcRKSaIcE
   fun:_GLOBAL__sub_I_ir.cpp
   fun:call_init.part.0
   fun:call_init
   fun:_dl_init
   obj:/usr/lib/x86_64-linux-gnu/ld-linux-x86-64.so.2
}
{
   <insert_a_suppression_name_here>
   Memcheck:Leak
   match-leak-kinds: reachable
   fun:malloc
   fun:_ZN4llvm11safe_mallocEm
   fun:_ZN4llvm9StringMapIPNS_2cl6OptionENS_15MallocAllocatorEE11try_emplaceIIS3_EEESt4pairINS_17StringMapIteratorIS3_EEbENS_9StringRefEDpOT_
   fun:_ZN12_GLOBAL__N_117CommandLineParser9addOptionEPN4llvm2cl6OptionEPNS2_10SubCommandE.constprop.393
   fun:_ZN12_GLOBAL__N_117CommandLineParser9addOptionEPN4llvm2cl6OptionEb
   fun:_ZN4llvm2cl6Option11addArgumentEv
   fun:_ZN4llvm2cl3optIjLb0ENS0_6parserIjEEEC1IIA34_cNS0_11initializerIiEENS0_4descEEEEDpRKT_
   fun:_GLOBAL__sub_I_InstCombineCalls.cpp
   fun:call_init.part.0
   fun:call_init
   fun:_dl_init
   obj:/usr/lib/x86_64-linux-gnu/ld-linux-x86-64.so.2
}
{
   <insert_a_suppression_name_here>
   Memcheck:Leak
   match-leak-kinds: reachable
   fun:_Znwm
   fun:_ZNSs4_Rep9_S_createEmmRKSaIcE
   fun:_ZNSs12_S_constructIPKcEEPcT_S3_RKSaIcESt20forward_iterator_tag
   fun:_ZNSsC1EPKcRKSaIcE
   fun:_GLOBAL__sub_I_shape.cpp
   fun:call_init.part.0
   fun:call_init
   fun:_dl_init
   obj:/usr/lib/x86_64-linux-gnu/ld-linux-x86-64.so.2
}
{
   <insert_a_suppression_name_here>
   Memcheck:Leak
   match-leak-kinds: reachable
   fun:malloc
   fun:_ZN4llvm11safe_mallocEm
   fun:_ZN4llvm9StringMapIPNS_2cl6OptionENS_15MallocAllocatorEE11try_emplaceIIS3_EEESt4pairINS_17StringMapIteratorIS3_EEbENS_9StringRefEDpOT_
   fun:_ZN12_GLOBAL__N_117CommandLineParser9addOptionEPN4llvm2cl6OptionEPNS2_10SubCommandE.constprop.393
   fun:_ZN12_GLOBAL__N_117CommandLineParser9addOptionEPN4llvm2cl6OptionEb
   fun:_ZN4llvm2cl6Option11addArgumentEv
   fun:_ZN4llvm2cl3optIjLb0ENS0_6parserIjEEEC1IIA36_cNS0_11initializerIiEENS0_12OptionHiddenENS0_4descEEEEDpRKT_
   fun:_GLOBAL__sub_I_LoopRerollPass.cpp
   fun:call_init.part.0
   fun:call_init
   fun:_dl_init
   obj:/usr/lib/x86_64-linux-gnu/ld-linux-x86-64.so.2
}
{
   <insert_a_suppression_name_here>
   Memcheck:Leak
   match-leak-kinds: reachable
   fun:malloc
   fun:_ZN4llvm11safe_mallocEm
   fun:_ZN4llvm9StringMapIPNS_2cl6OptionENS_15MallocAllocatorEE11try_emplaceIIS3_EEESt4pairINS_17StringMapIteratorIS3_EEbENS_9StringRefEDpOT_
   fun:_ZN12_GLOBAL__N_117CommandLineParser9addOptionEPN4llvm2cl6OptionEPNS2_10SubCommandE.constprop.393
   fun:_ZN12_GLOBAL__N_117CommandLineParser9addOptionEPN4llvm2cl6OptionEb
   fun:_ZN4llvm2cl6Option11addArgumentEv
   fun:_GLOBAL__sub_I_LoopVersioningLICM.cpp
   fun:call_init.part.0
   fun:call_init
   fun:_dl_init
   obj:/usr/lib/x86_64-linux-gnu/ld-linux-x86-64.so.2
}
{
   <insert_a_suppression_name_here>
   Memcheck:Leak
   match-leak-kinds: reachable
   fun:malloc
   fun:_ZN4llvm11safe_mallocEm
   fun:_ZN4llvm9StringMapIPNS_2cl6OptionENS_15MallocAllocatorEE11try_emplaceIIS3_EEESt4pairINS_17StringMapIteratorIS3_EEbENS_9StringRefEDpOT_
   fun:_ZN12_GLOBAL__N_117CommandLineParser9addOptionEPN4llvm2cl6OptionEPNS2_10SubCommandE.constprop.393
   fun:_ZN12_GLOBAL__N_117CommandLineParser9addOptionEPN4llvm2cl6OptionEb
   fun:_ZN4llvm2cl6Option11addArgumentEv
   fun:_ZN4llvm2cl3optIjLb0ENS0_6parserIjEEEC1IIA37_cNS0_11initializerIiEENS0_10value_descENS0_4descEEEEDpRKT_
   fun:_Z41__static_initialization_and_destruction_0ii.constprop.601
   fun:call_init.part.0
   fun:call_init
   fun:_dl_init
   obj:/usr/lib/x86_64-linux-gnu/ld-linux-x86-64.so.2
}
{
   <insert_a_suppression_name_here>
   Memcheck:Leak
   match-leak-kinds: reachable
   fun:malloc
   fun:_ZN4llvm11safe_mallocEm
   fun:_ZN4llvm9StringMapIPNS_2cl6OptionENS_15MallocAllocatorEE11try_emplaceIIS3_EEESt4pairINS_17StringMapIteratorIS3_EEbENS_9StringRefEDpOT_
   fun:_ZN12_GLOBAL__N_117CommandLineParser9addOptionEPN4llvm2cl6OptionEPNS2_10SubCommandE.constprop.393
   fun:_ZN12_GLOBAL__N_117CommandLineParser9addOptionEPN4llvm2cl6OptionEb
   fun:_ZN4llvm2cl6Option11addArgumentEv
   fun:_ZN4llvm2cl3optIbLb0ENS0_6parserIbEEEC1IIA37_cNS0_11initializerIbEEEEEDpRKT_
   fun:_GLOBAL__sub_I_LoopSimplifyCFG.cpp
   fun:call_init.part.0
   fun:call_init
   fun:_dl_init
   obj:/usr/lib/x86_64-linux-gnu/ld-linux-x86-64.so.2
}
{
   <insert_a_suppression_name_here>
   Memcheck:Leak
   match-leak-kinds: reachable
   fun:_Znwm
   fun:_ZNSs4_Rep9_S_createEmmRKSaIcE
   fun:_ZNSs12_S_constructIPKcEEPcT_S3_RKSaIcESt20forward_iterator_tag
   fun:_ZNSsC1EPKcRKSaIcE
   fun:_GLOBAL__sub_I_CPUAllocator.cpp
   fun:call_init.part.0
   fun:call_init
   fun:_dl_init
   obj:/usr/lib/x86_64-linux-gnu/ld-linux-x86-64.so.2
}
{
   <insert_a_suppression_name_here>
   Memcheck:Leak
   match-leak-kinds: reachable
   fun:malloc
   fun:_ZN4llvm11safe_mallocEm
   fun:_ZN4llvm9StringMapIPNS_2cl6OptionENS_15MallocAllocatorEE11try_emplaceIIS3_EEESt4pairINS_17StringMapIteratorIS3_EEbENS_9StringRefEDpOT_
   fun:_ZN12_GLOBAL__N_117CommandLineParser9addOptionEPN4llvm2cl6OptionEPNS2_10SubCommandE.constprop.393
   fun:_ZN12_GLOBAL__N_117CommandLineParser9addOptionEPN4llvm2cl6OptionEb
   fun:_ZN4llvm2cl6Option11addArgumentEv
   fun:_ZN4llvm2cl3optIbLb0ENS0_6parserIbEEEC1IIA39_cNS0_12OptionHiddenENS0_4descENS0_11initializerIbEEEEEDpRKT_
   fun:_GLOBAL__sub_I_Instructions.cpp
   fun:call_init.part.0
   fun:call_init
   fun:_dl_init
   obj:/usr/lib/x86_64-linux-gnu/ld-linux-x86-64.so.2
}
{
   <insert_a_suppression_name_here>
   Memcheck:Leak
   match-leak-kinds: reachable
   fun:_Znwm
   fun:_ZNSt8__detail9_Map_baseISsSt4pairIKSsSt8functionIFSt10unique_ptrIN3c1013C10FlagParserESt14default_deleteIS6_EERS2_EEESaISD_ENS_10_Select1stESt8equal_toISsESt4hashISsENS_18_Mod_range_hashingENS_20_Default_ranged_hashENS_20_Prime_rehash_policyENS_17_Hashtable_traitsILb1ELb0ELb1EEELb1EEixESA_
   fun:_ZN3c108RegistryISsSt10unique_ptrINS_13C10FlagParserESt14default_deleteIS2_EEJRKSsEE8RegisterES7_St8functionIFS5_S7_EENS_16RegistryPriorityE
   fun:_ZN3c1010RegistererISsSt10unique_ptrINS_13C10FlagParserESt14default_deleteIS2_EEJRKSsEEC1ES7_PNS_8RegistryISsS5_JS7_EEESt8functionIFS5_S7_EES7_
   fun:_GLOBAL__sub_I_CPUAllocator.cpp
   fun:call_init.part.0
   fun:call_init
   fun:_dl_init
   obj:/usr/lib/x86_64-linux-gnu/ld-linux-x86-64.so.2
}
{
   <insert_a_suppression_name_here>
   Memcheck:Leak
   match-leak-kinds: reachable
   fun:_Znwm
   fun:_ZNSt8__detail9_Map_baseISsSt4pairIKSsSt8functionIFSt10unique_ptrIN3c1013C10FlagParserESt14default_deleteIS6_EERS2_EEESaISD_ENS_10_Select1stESt8equal_toISsESt4hashISsENS_18_Mod_range_hashingENS_20_Default_ranged_hashENS_20_Prime_rehash_policyENS_17_Hashtable_traitsILb1ELb0ELb1EEELb1EEixESA_
   fun:_ZN3c108RegistryISsSt10unique_ptrINS_13C10FlagParserESt14default_deleteIS2_EEJRKSsEE8RegisterES7_St8functionIFS5_S7_EENS_16RegistryPriorityE
   fun:_ZN3c1010RegistererISsSt10unique_ptrINS_13C10FlagParserESt14default_deleteIS2_EEJRKSsEEC1ES7_PNS_8RegistryISsS5_JS7_EEESt8functionIFS5_S7_EES7_
   fun:_GLOBAL__sub_I_TensorImpl.cpp
   fun:call_init.part.0
   fun:call_init
   fun:_dl_init
   obj:/usr/lib/x86_64-linux-gnu/ld-linux-x86-64.so.2
}
{
   <insert_a_suppression_name_here>
   Memcheck:Leak
   match-leak-kinds: reachable
   fun:_Znwm
   fun:_ZNSt8__detail9_Map_baseISsSt4pairIKSsSt8functionIFSt10unique_ptrIN3c1013C10FlagParserESt14default_deleteIS6_EERS2_EEESaISD_ENS_10_Select1stESt8equal_toISsESt4hashISsENS_18_Mod_range_hashingENS_20_Default_ranged_hashENS_20_Prime_rehash_policyENS_17_Hashtable_traitsILb1ELb0ELb1EEELb1EEixESA_
   fun:_ZN3c108RegistryISsSt10unique_ptrINS_13C10FlagParserESt14default_deleteIS2_EEJRKSsEE8RegisterES7_St8functionIFS5_S7_EENS_16RegistryPriorityE
   fun:_ZN3c1010RegistererISsSt10unique_ptrINS_13C10FlagParserESt14default_deleteIS2_EEJRKSsEEC1ES7_PNS_8RegistryISsS5_JS7_EEESt8functionIFS5_S7_EES7_
   fun:_GLOBAL__sub_I_alloc_cpu.cpp
   fun:call_init.part.0
   fun:call_init
   fun:_dl_init
   obj:/usr/lib/x86_64-linux-gnu/ld-linux-x86-64.so.2
}
{
   <insert_a_suppression_name_here>
   Memcheck:Leak
   match-leak-kinds: reachable
   fun:_Znwm
   fun:_ZNSt8__detail9_Map_baseISsSt4pairIKSsSt8functionIFSt10unique_ptrIN3c1013C10FlagParserESt14default_deleteIS6_EERS2_EEESaISD_ENS_10_Select1stESt8equal_toISsESt4hashISsENS_18_Mod_range_hashingENS_20_Default_ranged_hashENS_20_Prime_rehash_policyENS_17_Hashtable_traitsILb1ELb0ELb1EEELb1EEixESA_
   fun:_ZN3c108RegistryISsSt10unique_ptrINS_13C10FlagParserESt14default_deleteIS2_EEJRKSsEE8RegisterES7_St8functionIFS5_S7_EENS_16RegistryPriorityE
   fun:_ZN3c1010RegistererISsSt10unique_ptrINS_13C10FlagParserESt14default_deleteIS2_EEJRKSsEEC1ES7_PNS_8RegistryISsS5_JS7_EEESt8functionIFS5_S7_EES7_
   fun:_Z41__static_initialization_and_destruction_0ii.constprop.0
   fun:call_init.part.0
   fun:call_init
   fun:_dl_init
   obj:/usr/lib/x86_64-linux-gnu/ld-linux-x86-64.so.2
}
{
   <insert_a_suppression_name_here>
   Memcheck:Leak
   match-leak-kinds: reachable
   fun:_Znwm
   fun:_ZNSt8__detail9_Map_baseISsSt4pairIKSsSt8functionIFSt10unique_ptrIN3c1013C10FlagParserESt14default_deleteIS6_EERS2_EEESaISD_ENS_10_Select1stESt8equal_toISsESt4hashISsENS_18_Mod_range_hashingENS_20_Default_ranged_hashENS_20_Prime_rehash_policyENS_17_Hashtable_traitsILb1ELb0ELb1EEELb1EEixESA_
   fun:_ZN3c108RegistryISsSt10unique_ptrINS_13C10FlagParserESt14default_deleteIS2_EEJRKSsEE8RegisterES7_St8functionIFS5_S7_EENS_16RegistryPriorityE
   fun:_ZN3c1010RegistererISsSt10unique_ptrINS_13C10FlagParserESt14default_deleteIS2_EEJRKSsEEC1ES7_PNS_8RegistryISsS5_JS7_EEESt8functionIFS5_S7_EES7_
   fun:_GLOBAL__sub_I_numa.cpp
   fun:call_init.part.0
   fun:call_init
   fun:_dl_init
   obj:/usr/lib/x86_64-linux-gnu/ld-linux-x86-64.so.2
}
{
   <insert_a_suppression_name_here>
   Memcheck:Leak
   match-leak-kinds: reachable
   fun:_Znwm
   fun:_ZNSt8__detail9_Map_baseISsSt4pairIKSsSt8functionIFSt10shared_ptrIN3c1018TaskThreadPoolBaseEEiibEEESaISA_ENS_10_Select1stESt8equal_toISsESt4hashISsENS_18_Mod_range_hashingENS_20_Default_ranged_hashENS_20_Prime_rehash_policyENS_17_Hashtable_traitsILb1ELb0ELb1EEELb1EEixERS2_
   fun:_ZN3c108RegistryISsSt10shared_ptrINS_18TaskThreadPoolBaseEEJiibEE8RegisterERKSsSt8functionIFS3_iibEENS_16RegistryPriorityE
   fun:_ZN3c1010RegistererISsSt10shared_ptrINS_18TaskThreadPoolBaseEEJiibEEC1ERKSsPNS_8RegistryISsS3_JiibEEESt8functionIFS3_iibEES6_
   fun:_GLOBAL__sub_I_ParallelThreadPoolNative.cpp
   fun:call_init.part.0
   fun:call_init
   fun:_dl_init
   obj:/usr/lib/x86_64-linux-gnu/ld-linux-x86-64.so.2
}
{
   <insert_a_suppression_name_here>
   Memcheck:Leak
   match-leak-kinds: reachable
   fun:_Znwm
   fun:_ZNSt8__detail9_Map_baseISsSt4pairIKSsSt8functionIFSt10unique_ptrIN3c1013C10FlagParserESt14default_deleteIS6_EERS2_EEESaISD_ENS_10_Select1stESt8equal_toISsESt4hashISsENS_18_Mod_range_hashingENS_20_Default_ranged_hashENS_20_Prime_rehash_policyENS_17_Hashtable_traitsILb1ELb0ELb1EEELb1EEixESA_
   fun:_ZN3c108RegistryISsSt10unique_ptrINS_13C10FlagParserESt14default_deleteIS2_EEJRKSsEE8RegisterES7_St8functionIFS5_S7_EENS_16RegistryPriorityE
   fun:_ZN3c1010RegistererISsSt10unique_ptrINS_13C10FlagParserESt14default_deleteIS2_EEJRKSsEEC1ES7_PNS_8RegistryISsS5_JS7_EEESt8functionIFS5_S7_EES7_
   fun:_GLOBAL__sub_I_interpreter.cpp
   fun:call_init.part.0
   fun:call_init
   fun:_dl_init
   obj:/usr/lib/x86_64-linux-gnu/ld-linux-x86-64.so.2
}
{
   <insert_a_suppression_name_here>
   Memcheck:Leak
   match-leak-kinds: reachable
   fun:_Znwm
   fun:_ZNSt8__detail9_Map_baseISsSt4pairIKSsSt8functionIFSt10unique_ptrIN5torch3jit17SROperatorFunctorESt14default_deleteIS7_EEvEEESaISD_ENS_10_Select1stESt8equal_toISsESt4hashISsENS_18_Mod_range_hashingENS_20_Default_ranged_hashENS_20_Prime_rehash_policyENS_17_Hashtable_traitsILb1ELb0ELb1EEELb1EEixERS2_
   fun:_ZN3c108RegistryISsSt10unique_ptrIN5torch3jit17SROperatorFunctorESt14default_deleteIS4_EEJEE8RegisterERKSsSt8functionIFS7_vEENS_16RegistryPriorityE
   fun:_ZN3c1010RegistererISsSt10unique_ptrIN5torch3jit17SROperatorFunctorESt14default_deleteIS4_EEJEEC2ERKSsPNS_8RegistryISsS7_JEEESt8functionIFS7_vEESA_.constprop.0
   fun:_Z41__static_initialization_and_destruction_0ii.constprop.0
   fun:call_init.part.0
   fun:call_init
   fun:_dl_init
   obj:/usr/lib/x86_64-linux-gnu/ld-linux-x86-64.so.2
}
{
   <insert_a_suppression_name_here>
   Memcheck:Leak
   match-leak-kinds: reachable
   fun:_Znwm
   fun:_ZNSt8__detail9_Map_baseISsSt4pairIKSsSt8functionIFSt10unique_ptrIN3c1013C10FlagParserESt14default_deleteIS6_EERS2_EEESaISD_ENS_10_Select1stESt8equal_toISsESt4hashISsENS_18_Mod_range_hashingENS_20_Default_ranged_hashENS_20_Prime_rehash_policyENS_17_Hashtable_traitsILb1ELb0ELb1EEELb1EEixESA_
   fun:_ZN3c108RegistryISsSt10unique_ptrINS_13C10FlagParserESt14default_deleteIS2_EEJRKSsEE8RegisterES7_St8functionIFS5_S7_EENS_16RegistryPriorityE
   fun:_ZN3c1010RegistererISsSt10unique_ptrINS_13C10FlagParserESt14default_deleteIS2_EEJRKSsEEC1ES7_PNS_8RegistryISsS5_JS7_EEESt8functionIFS5_S7_EES7_
   fun:_GLOBAL__sub_I_impl.cpp
   fun:call_init.part.0
   fun:call_init
   fun:_dl_init
   obj:/usr/lib/x86_64-linux-gnu/ld-linux-x86-64.so.2
}
{
   <insert_a_suppression_name_here>
   Memcheck:Leak
   match-leak-kinds: reachable
   fun:_Znwm
   fun:_ZNSt8__detail9_Map_baseISsSt4pairIKSsSt8functionIFSt10unique_ptrIN5torch3jit17SROperatorFunctorESt14default_deleteIS7_EEvEEESaISD_ENS_10_Select1stESt8equal_toISsESt4hashISsENS_18_Mod_range_hashingENS_20_Default_ranged_hashENS_20_Prime_rehash_policyENS_17_Hashtable_traitsILb1ELb0ELb1EEELb1EEixERS2_
   fun:_ZN3c1010RegistererISsSt10unique_ptrIN5torch3jit17SROperatorFunctorESt14default_deleteIS4_EEJEEC2ERKSsPNS_8RegistryISsS7_JEEESt8functionIFS7_vEESA_.constprop.0
   fun:_Z41__static_initialization_and_destruction_0ii.constprop.0
   fun:call_init.part.0
   fun:call_init
   fun:_dl_init
   obj:/usr/lib/x86_64-linux-gnu/ld-linux-x86-64.so.2
}
{
   <insert_a_suppression_name_here>
   Memcheck:Leak
   match-leak-kinds: reachable
   fun:_Znwm
   fun:_ZNSt8__detail9_Map_baseISsSt4pairIKSsSt8functionIFSt10unique_ptrIN3c1013C10FlagParserESt14default_deleteIS6_EERS2_EEESaISD_ENS_10_Select1stESt8equal_toISsESt4hashISsENS_18_Mod_range_hashingENS_20_Default_ranged_hashENS_20_Prime_rehash_policyENS_17_Hashtable_traitsILb1ELb0ELb1EEELb1EEixESA_
   fun:_ZN3c108RegistryISsSt10unique_ptrINS_13C10FlagParserESt14default_deleteIS2_EEJRKSsEE8RegisterES7_St8functionIFS5_S7_EENS_16RegistryPriorityE
   fun:_ZN3c1010RegistererISsSt10unique_ptrINS_13C10FlagParserESt14default_deleteIS2_EEJRKSsEEC1ES7_PNS_8RegistryISsS5_JS7_EEESt8functionIFS5_S7_EES7_
   fun:_GLOBAL__sub_I_passes.cpp
   fun:call_init.part.0
   fun:call_init
   fun:_dl_init
   obj:/usr/lib/x86_64-linux-gnu/ld-linux-x86-64.so.2
}
{
   <insert_a_suppression_name_here>
   Memcheck:Leak
   match-leak-kinds: reachable
   fun:_Znwm
   fun:_ZNSt8__detail9_Map_baseISsSt4pairIKSsSt8functionIFSt10unique_ptrIN3c1013C10FlagParserESt14default_deleteIS6_EERS2_EEESaISD_ENS_10_Select1stESt8equal_toISsESt4hashISsENS_18_Mod_range_hashingENS_20_Default_ranged_hashENS_20_Prime_rehash_policyENS_17_Hashtable_traitsILb1ELb0ELb1EEELb1EEixESA_
   fun:_ZN3c108RegistryISsSt10unique_ptrINS_13C10FlagParserESt14default_deleteIS2_EEJRKSsEE8RegisterES7_St8functionIFS5_S7_EENS_16RegistryPriorityE
   fun:_ZN3c1010RegistererISsSt10unique_ptrINS_13C10FlagParserESt14default_deleteIS2_EEJRKSsEEC1ES7_PNS_8RegistryISsS5_JS7_EEESt8functionIFS5_S7_EES7_
   fun:_GLOBAL__sub_I_llvm_codegen.cpp
   fun:call_init.part.0
   fun:call_init
   fun:_dl_init
   obj:/usr/lib/x86_64-linux-gnu/ld-linux-x86-64.so.2
}
{
   <insert_a_suppression_name_here>
   Memcheck:Leak
   match-leak-kinds: reachable
   fun:_Znwm
   fun:_ZNSt8__detail9_Map_baseISsSt4pairIKSsSt8functionIFSt10unique_ptrIN3c1013C10FlagParserESt14default_deleteIS6_EERS2_EEESaISD_ENS_10_Select1stESt8equal_toISsESt4hashISsENS_18_Mod_range_hashingENS_20_Default_ranged_hashENS_20_Prime_rehash_policyENS_17_Hashtable_traitsILb1ELb0ELb1EEELb1EEixESA_
   fun:_ZN3c108RegistryISsSt10unique_ptrINS_13C10FlagParserESt14default_deleteIS2_EEJRKSsEE8RegisterES7_St8functionIFS5_S7_EENS_16RegistryPriorityE
   fun:_ZN3c1010RegistererISsSt10unique_ptrINS_13C10FlagParserESt14default_deleteIS2_EEJRKSsEEC1ES7_PNS_8RegistryISsS5_JS7_EEESt8functionIFS5_S7_EES7_
   fun:_GLOBAL__sub_I_ir.cpp
   fun:call_init.part.0
   fun:call_init
   fun:_dl_init
   obj:/usr/lib/x86_64-linux-gnu/ld-linux-x86-64.so.2
}
{
   <insert_a_suppression_name_here>
   Memcheck:Leak
   match-leak-kinds: reachable
   fun:_Znwm
   fun:_ZNSt8__detail9_Map_baseISsSt4pairIKSsSt8functionIFSt10unique_ptrIN3c1013C10FlagParserESt14default_deleteIS6_EERS2_EEESaISD_ENS_10_Select1stESt8equal_toISsESt4hashISsENS_18_Mod_range_hashingENS_20_Default_ranged_hashENS_20_Prime_rehash_policyENS_17_Hashtable_traitsILb1ELb0ELb1EEELb1EEixESA_
   fun:_ZN3c108RegistryISsSt10unique_ptrINS_13C10FlagParserESt14default_deleteIS2_EEJRKSsEE8RegisterES7_St8functionIFS5_S7_EENS_16RegistryPriorityE
   fun:_ZN3c1010RegistererISsSt10unique_ptrINS_13C10FlagParserESt14default_deleteIS2_EEJRKSsEEC1ES7_PNS_8RegistryISsS5_JS7_EEESt8functionIFS5_S7_EES7_
   fun:_GLOBAL__sub_I_shape.cpp
   fun:call_init.part.0
   fun:call_init
   fun:_dl_init
   obj:/usr/lib/x86_64-linux-gnu/ld-linux-x86-64.so.2
}
{
   <insert_a_suppression_name_here>
   Memcheck:Leak
   match-leak-kinds: reachable
   fun:_Znwm
   fun:_ZNSt8__detail9_Map_baseISsSt4pairIKSsSt8functionIFSt10unique_ptrIN3c1013C10FlagParserESt14default_deleteIS6_EERS2_EEESaISD_ENS_10_Select1stESt8equal_toISsESt4hashISsENS_18_Mod_range_hashingENS_20_Default_ranged_hashENS_20_Prime_rehash_policyENS_17_Hashtable_traitsILb1ELb0ELb1EEELb1EEixESA_
   fun:_ZN3c108RegistryISsSt10unique_ptrINS_13C10FlagParserESt14default_deleteIS2_EEJRKSsEE8RegisterES7_St8functionIFS5_S7_EENS_16RegistryPriorityE
   fun:_ZN3c1010RegistererISsSt10unique_ptrINS_13C10FlagParserESt14default_deleteIS2_EEJRKSsEEC1ES7_PNS_8RegistryISsS5_JS7_EEESt8functionIFS5_S7_EES7_
   fun:_GLOBAL__sub_I_interface.cpp
   fun:call_init.part.0
   fun:call_init
   fun:_dl_init
   obj:/usr/lib/x86_64-linux-gnu/ld-linux-x86-64.so.2
}
{
   <insert_a_suppression_name_here>
   Memcheck:Leak
   match-leak-kinds: reachable
   fun:_Znwm
   fun:_ZNSt8__detail9_Map_baseISsSt4pairIKSsSt8functionIFSt10unique_ptrIN3c1013C10FlagParserESt14default_deleteIS6_EERS2_EEESaISD_ENS_10_Select1stESt8equal_toISsESt4hashISsENS_18_Mod_range_hashingENS_20_Default_ranged_hashENS_20_Prime_rehash_policyENS_17_Hashtable_traitsILb1ELb0ELb1EEELb1EEixESA_
   fun:_ZN3c108RegistryISsSt10unique_ptrINS_13C10FlagParserESt14default_deleteIS2_EEJRKSsEE8RegisterES7_St8functionIFS5_S7_EENS_16RegistryPriorityE
   fun:_ZN3c1010RegistererISsSt10unique_ptrINS_13C10FlagParserESt14default_deleteIS2_EEJRKSsEEC1ES7_PNS_8RegistryISsS5_JS7_EEESt8functionIFS5_S7_EES7_
   fun:_GLOBAL__sub_I_config.cpp
   fun:call_init.part.0
   fun:call_init
   fun:_dl_init
   obj:/usr/lib/x86_64-linux-gnu/ld-linux-x86-64.so.2
}
{
   <insert_a_suppression_name_here>
   Memcheck:Leak
   match-leak-kinds: reachable
   fun:_Znwm
   fun:_ZNSt8__detail9_Map_baseISsSt4pairIKSsSt8functionIFSt10shared_ptrIN4gloo9transport6DeviceEERS2_S9_EEESaISC_ENS_10_Select1stESt8equal_toISsESt4hashISsENS_18_Mod_range_hashingENS_20_Default_ranged_hashENS_20_Prime_rehash_policyENS_17_Hashtable_traitsILb1ELb0ELb1EEELb1EEixES9_
   fun:_ZN3c108RegistryISsSt10shared_ptrIN4gloo9transport6DeviceEEJRKSsS7_EE8RegisterES7_St8functionIFS5_S7_S7_EENS_16RegistryPriorityE
   fun:_ZN3c1010RegistererISsSt10shared_ptrIN4gloo9transport6DeviceEEJRKSsS7_EEC1ES7_PNS_8RegistryISsS5_JS7_S7_EEESt8functionIFS5_S7_S7_EES7_
   fun:_GLOBAL__sub_I_GlooDeviceFactory.cpp
   fun:call_init.part.0
   fun:call_init
   fun:_dl_init
   obj:/usr/lib/x86_64-linux-gnu/ld-linux-x86-64.so.2
}
{
   <insert_a_suppression_name_here>
   Memcheck:Leak
   match-leak-kinds: reachable
   fun:_Znwm
   fun:_ZNSt8__detail9_Map_baseIN3c1010DeviceTypeESt4pairIKS2_St8functionIFSt10unique_ptrIN4c10d5TimerESt14default_deleteIS8_EENS1_6DeviceEEEESaISF_ENS_10_Select1stESt8equal_toIS2_ESt4hashIS2_ENS_18_Mod_range_hashingENS_20_Default_ranged_hashENS_20_Prime_rehash_policyENS_17_Hashtable_traitsILb1ELb0ELb1EEELb1EEixERS4_
   fun:_ZN3c108RegistryINS_10DeviceTypeESt10unique_ptrIN4c10d5TimerESt14default_deleteIS4_EEJNS_6DeviceEEE8RegisterERKS1_St8functionIFS7_S8_EENS_16RegistryPriorityE
   fun:_ZN3c1010RegistererINS_10DeviceTypeESt10unique_ptrIN4c10d5TimerESt14default_deleteIS4_EEJNS_6DeviceEEEC1ERKS1_PNS_8RegistryIS1_S7_JS8_EEESt8functionIFS7_S8_EERKSs
   fun:_GLOBAL__sub_I_reducer.cpp
   fun:call_init.part.0
   fun:call_init
   fun:_dl_init
   obj:/usr/lib/x86_64-linux-gnu/ld-linux-x86-64.so.2
}
{
   <insert_a_suppression_name_here>
   Memcheck:Leak
   match-leak-kinds: reachable
   fun:_Znwm
   fun:_ZNSt8__detail9_Map_baseISsSt4pairIKSsSt8functionIFSt10unique_ptrIN5torch11distributed3rpc21TransportRegistrationESt14default_deleteIS8_EEvEEESaISE_ENS_10_Select1stESt8equal_toISsESt4hashISsENS_18_Mod_range_hashingENS_20_Default_ranged_hashENS_20_Prime_rehash_policyENS_17_Hashtable_traitsILb1ELb0ELb1EEELb1EEixERS2_
   fun:_ZN3c108RegistryISsSt10unique_ptrIN5torch11distributed3rpc21TransportRegistrationESt14default_deleteIS5_EEJEE8RegisterERKSsSt8functionIFS8_vEENS_16RegistryPriorityE
   fun:_ZN3c1010RegistererISsSt10unique_ptrIN5torch11distributed3rpc21TransportRegistrationESt14default_deleteIS5_EEJEEC1ERKSsPNS_8RegistryISsS8_JEEESt8functionIFS8_vEESB_
   fun:_Z41__static_initialization_and_destruction_0ii.constprop.0
   fun:call_init.part.0
   fun:call_init
   fun:_dl_init
   obj:/usr/lib/x86_64-linux-gnu/ld-linux-x86-64.so.2
}
{
   <insert_a_suppression_name_here>
   Memcheck:Leak
   match-leak-kinds: reachable
   fun:_Znwm
   fun:_ZNSt8__detail9_Map_baseISsSt4pairIKSsSt8functionIFSt10unique_ptrIN5torch11distributed3rpc19ChannelRegistrationESt14default_deleteIS8_EEvEEESaISE_ENS_10_Select1stESt8equal_toISsESt4hashISsENS_18_Mod_range_hashingENS_20_Default_ranged_hashENS_20_Prime_rehash_policyENS_17_Hashtable_traitsILb1ELb0ELb1EEELb1EEixERS2_
   fun:_ZN3c108RegistryISsSt10unique_ptrIN5torch11distributed3rpc19ChannelRegistrationESt14default_deleteIS5_EEJEE8RegisterERKSsSt8functionIFS8_vEENS_16RegistryPriorityE
   fun:_ZN3c1010RegistererISsSt10unique_ptrIN5torch11distributed3rpc19ChannelRegistrationESt14default_deleteIS5_EEJEEC1ERKSsPNS_8RegistryISsS8_JEEESt8functionIFS8_vEESB_
   fun:_Z41__static_initialization_and_destruction_0ii.constprop.0
   fun:call_init.part.0
   fun:call_init
   fun:_dl_init
   obj:/usr/lib/x86_64-linux-gnu/ld-linux-x86-64.so.2
}
{
   <insert_a_suppression_name_here>
   Memcheck:Leak
   match-leak-kinds: reachable
   fun:malloc
   fun:_ZN4llvm3sys11RWMutexImplC1Ev
   fun:_ZN4llvm14object_creatorINS_12PassRegistryEE4callEv
   fun:_ZNK4llvm17ManagedStaticBase21RegisterManagedStaticEPFPvvEPFvS1_E
   fun:_ZN4llvm12PassRegistry15getPassRegistryEv
   fun:_ZN4llvm14PassNameParserC1ERNS_2cl6OptionE
   fun:_Z41__static_initialization_and_destruction_0ii.constprop.403
   fun:call_init.part.0
   fun:call_init
   fun:_dl_init
   obj:/usr/lib/x86_64-linux-gnu/ld-linux-x86-64.so.2
}
{
   <insert_a_suppression_name_here>
   Memcheck:Leak
   match-leak-kinds: reachable
   fun:malloc
   fun:_ZN4llvm11safe_mallocEm
   fun:_ZN4llvm9StringMapIPNS_2cl6OptionENS_15MallocAllocatorEE11try_emplaceIIS3_EEESt4pairINS_17StringMapIteratorIS3_EEbENS_9StringRefEDpOT_
   fun:_ZN12_GLOBAL__N_117CommandLineParser9addOptionEPN4llvm2cl6OptionEPNS2_10SubCommandE.constprop.393
   fun:_ZN12_GLOBAL__N_117CommandLineParser9addOptionEPN4llvm2cl6OptionEb
   fun:_ZN4llvm2cl6Option11addArgumentEv
   fun:_ZN4llvm2cl3optIjLb0ENS0_6parserIjEEEC1IIA41_cNS0_12OptionHiddenENS0_4descENS0_11initializerIiEEEEEDpRKT_
   fun:_GLOBAL__sub_I_CallSiteSplitting.cpp
   fun:call_init.part.0
   fun:call_init
   fun:_dl_init
   obj:/usr/lib/x86_64-linux-gnu/ld-linux-x86-64.so.2
}
{
   <insert_a_suppression_name_here>
   Memcheck:Leak
   match-leak-kinds: reachable
   fun:_Znwm
   fun:_ZNSs4_Rep9_S_createEmmRKSaIcE
   fun:_ZNSs12_S_constructIPKcEEPcT_S3_RKSaIcESt20forward_iterator_tag
   fun:_ZNSsC1EPKcRKSaIcE
   fun:_GLOBAL__sub_I_alloc_cpu.cpp
   fun:call_init.part.0
   fun:call_init
   fun:_dl_init
   obj:/usr/lib/x86_64-linux-gnu/ld-linux-x86-64.so.2
}
{
   <insert_a_suppression_name_here>
   Memcheck:Leak
   match-leak-kinds: reachable
   fun:_Znwm
   fun:_ZNSs4_Rep9_S_createEmmRKSaIcE
   fun:_ZNSs12_S_constructIPKcEEPcT_S3_RKSaIcESt20forward_iterator_tag
   fun:_ZNSsC1EPKcRKSaIcE
   fun:_GLOBAL__sub_I_passes.cpp
   fun:call_init.part.0
   fun:call_init
   fun:_dl_init
   obj:/usr/lib/x86_64-linux-gnu/ld-linux-x86-64.so.2
}
{
   <insert_a_suppression_name_here>
   Memcheck:Leak
   match-leak-kinds: reachable
   fun:malloc
   fun:_ZN4llvm11safe_mallocEm
   fun:_ZN4llvm9StringMapIPNS_2cl6OptionENS_15MallocAllocatorEE11try_emplaceIIS3_EEESt4pairINS_17StringMapIteratorIS3_EEbENS_9StringRefEDpOT_
   fun:_ZN12_GLOBAL__N_117CommandLineParser9addOptionEPN4llvm2cl6OptionEPNS2_10SubCommandE.constprop.393
   fun:_ZN12_GLOBAL__N_117CommandLineParser9addOptionEPN4llvm2cl6OptionEb
   fun:_ZN4llvm2cl6Option11addArgumentEv
   fun:_GLOBAL__sub_I_GlobalsModRef.cpp
   fun:call_init.part.0
   fun:call_init
   fun:_dl_init
   obj:/usr/lib/x86_64-linux-gnu/ld-linux-x86-64.so.2
}
{
   <insert_a_suppression_name_here>
   Memcheck:Leak
   match-leak-kinds: reachable
   fun:_Znwm
   fun:_ZNSs4_Rep9_S_createEmmRKSaIcE
   fun:_ZNSs12_S_constructIPKcEEPcT_S3_RKSaIcESt20forward_iterator_tag
   fun:_ZNSsC1EPKcRKSaIcE
   fun:_GLOBAL__sub_I_llvm_codegen.cpp
   fun:call_init.part.0
   fun:call_init
   fun:_dl_init
   obj:/usr/lib/x86_64-linux-gnu/ld-linux-x86-64.so.2
}
{
   <insert_a_suppression_name_here>
   Memcheck:Leak
   match-leak-kinds: reachable
   fun:_Znwm
   fun:_ZNSs4_Rep9_S_createEmmRKSaIcE
   fun:_ZNSs12_S_constructIPKcEEPcT_S3_RKSaIcESt20forward_iterator_tag
   fun:_ZNSsC1EPKcRKSaIcE
   fun:_GLOBAL__sub_I_interface.cpp
   fun:call_init.part.0
   fun:call_init
   fun:_dl_init
   obj:/usr/lib/x86_64-linux-gnu/ld-linux-x86-64.so.2
}
{
   <insert_a_suppression_name_here>
   Memcheck:Leak
   match-leak-kinds: reachable
   fun:_Znwm
   fun:_ZNSs4_Rep9_S_createEmmRKSaIcE
   fun:_ZNSs12_S_constructIPKcEEPcT_S3_RKSaIcESt20forward_iterator_tag
   fun:_ZNSsC1EPKcmRKSaIcE
   fun:_ZNK4llvm9StringRef3strEv
   fun:_GLOBAL__sub_I_PartiallyInlineLibCalls.cpp
   fun:call_init.part.0
   fun:call_init
   fun:_dl_init
   obj:/usr/lib/x86_64-linux-gnu/ld-linux-x86-64.so.2
}
{
   <insert_a_suppression_name_here>
   Memcheck:Leak
   match-leak-kinds: reachable
   fun:_Znwm
   fun:_ZNSs4_Rep9_S_createEmmRKSaIcE
   fun:_ZNSs12_S_constructIPKcEEPcT_S3_RKSaIcESt20forward_iterator_tag
   fun:_ZNSsC1EPKcRKSaIcE
   fun:_ZN3c108demangleEPKc
   fun:_ZN3c1013demangle_typeIN5torch3jit25SROperatorFunctor_aten_mmEEEPKcv
   fun:_Z41__static_initialization_and_destruction_0ii.constprop.0
   fun:call_init.part.0
   fun:call_init
   fun:_dl_init
   obj:/usr/lib/x86_64-linux-gnu/ld-linux-x86-64.so.2
}
{
   <insert_a_suppression_name_here>
   Memcheck:Leak
   match-leak-kinds: reachable
   fun:_Znwm
   fun:_ZNSs4_Rep9_S_createEmmRKSaIcE
   fun:_ZNSs12_S_constructIPKcEEPcT_S3_RKSaIcESt20forward_iterator_tag
   fun:_ZNSsC1EPKcRKSaIcE
   fun:_ZN3c108demangleEPKc
   fun:_ZN3c1013demangle_typeIN5torch3jit25SROperatorFunctor_aten_mvEEEPKcv
   fun:_Z41__static_initialization_and_destruction_0ii.constprop.0
   fun:call_init.part.0
   fun:call_init
   fun:_dl_init
   obj:/usr/lib/x86_64-linux-gnu/ld-linux-x86-64.so.2
}
{
   <insert_a_suppression_name_here>
   Memcheck:Leak
   match-leak-kinds: reachable
   fun:_Znwm
   fun:_ZNSs4_Rep9_S_createEmmRKSaIcE
   fun:_ZNSs12_S_constructIPKcEEPcT_S3_RKSaIcESt20forward_iterator_tag
   fun:_ZNSsC1EPKcRKSaIcE
   fun:_ZN3c108demangleEPKc
   fun:_ZN3c1013demangle_typeIN5torch3jit25SROperatorFunctor_aten_eqEEEPKcv
   fun:_Z41__static_initialization_and_destruction_0ii.constprop.0
   fun:call_init.part.0
   fun:call_init
   fun:_dl_init
   obj:/usr/lib/x86_64-linux-gnu/ld-linux-x86-64.so.2
}
{
   <insert_a_suppression_name_here>
   Memcheck:Leak
   match-leak-kinds: reachable
   fun:_Znwm
   fun:_ZNSs4_Rep9_S_createEmmRKSaIcE
   fun:_ZNSs12_S_constructIPKcEEPcT_S3_RKSaIcESt20forward_iterator_tag
   fun:_ZNSsC1EPKcRKSaIcE
   fun:_ZN3c108demangleEPKc
   fun:_ZN3c1013demangle_typeIN5torch3jit25SROperatorFunctor_aten_neEEEPKcv
   fun:_Z41__static_initialization_and_destruction_0ii.constprop.0
   fun:call_init.part.0
   fun:call_init
   fun:_dl_init
   obj:/usr/lib/x86_64-linux-gnu/ld-linux-x86-64.so.2
}
{
   <insert_a_suppression_name_here>
   Memcheck:Leak
   match-leak-kinds: reachable
   fun:_Znwm
   fun:_ZNSs4_Rep9_S_createEmmRKSaIcE
   fun:_ZNSs12_S_constructIPKcEEPcT_S3_RKSaIcESt20forward_iterator_tag
   fun:_ZNSsC1EPKcRKSaIcE
   fun:_ZN3c108demangleEPKc
   fun:_ZN3c1013demangle_typeIN5torch3jit25SROperatorFunctor_aten_geEEEPKcv
   fun:_Z41__static_initialization_and_destruction_0ii.constprop.0
   fun:call_init.part.0
   fun:call_init
   fun:_dl_init
   obj:/usr/lib/x86_64-linux-gnu/ld-linux-x86-64.so.2
}
{
   <insert_a_suppression_name_here>
   Memcheck:Leak
   match-leak-kinds: reachable
   fun:_Znwm
   fun:_ZNSs4_Rep9_S_createEmmRKSaIcE
   fun:_ZNSs12_S_constructIPKcEEPcT_S3_RKSaIcESt20forward_iterator_tag
   fun:_ZNSsC1EPKcRKSaIcE
   fun:_ZN3c108demangleEPKc
   fun:_ZN3c1013demangle_typeIN5torch3jit25SROperatorFunctor_aten_leEEEPKcv
   fun:_Z41__static_initialization_and_destruction_0ii.constprop.0
   fun:call_init.part.0
   fun:call_init
   fun:_dl_init
   obj:/usr/lib/x86_64-linux-gnu/ld-linux-x86-64.so.2
}
{
   <insert_a_suppression_name_here>
   Memcheck:Leak
   match-leak-kinds: reachable
   fun:_Znwm
   fun:_ZNSs4_Rep9_S_createEmmRKSaIcE
   fun:_ZNSs12_S_constructIPKcEEPcT_S3_RKSaIcESt20forward_iterator_tag
   fun:_ZNSsC1EPKcRKSaIcE
   fun:_ZN3c108demangleEPKc
   fun:_ZN3c1013demangle_typeIN5torch3jit25SROperatorFunctor_aten_gtEEEPKcv
   fun:_Z41__static_initialization_and_destruction_0ii.constprop.0
   fun:call_init.part.0
   fun:call_init
   fun:_dl_init
   obj:/usr/lib/x86_64-linux-gnu/ld-linux-x86-64.so.2
}
{
   <insert_a_suppression_name_here>
   Memcheck:Leak
   match-leak-kinds: reachable
   fun:_Znwm
   fun:_ZNSs4_Rep9_S_createEmmRKSaIcE
   fun:_ZNSs12_S_constructIPKcEEPcT_S3_RKSaIcESt20forward_iterator_tag
   fun:_ZNSsC1EPKcRKSaIcE
   fun:_ZN3c108demangleEPKc
   fun:_ZN3c1013demangle_typeIN5torch3jit25SROperatorFunctor_aten_ltEEEPKcv
   fun:_Z41__static_initialization_and_destruction_0ii.constprop.0
   fun:call_init.part.0
   fun:call_init
   fun:_dl_init
   obj:/usr/lib/x86_64-linux-gnu/ld-linux-x86-64.so.2
}
{
   <insert_a_suppression_name_here>
   Memcheck:Leak
   match-leak-kinds: reachable
   fun:_Znwm
   fun:_ZNSs4_Rep9_S_createEmmRKSaIcE
   fun:_ZNSs12_S_constructIPKcEEPcT_S3_RKSaIcESt20forward_iterator_tag
   fun:_ZNSsC1EPKcRKSaIcE
   fun:_ZN3c108demangleEPKc
   fun:_ZN3c1013demangle_typeIN5torch3jit25SROperatorFunctor_aten_i0EEEPKcv
   fun:_Z41__static_initialization_and_destruction_0ii.constprop.0
   fun:call_init.part.0
   fun:call_init
   fun:_dl_init
   obj:/usr/lib/x86_64-linux-gnu/ld-linux-x86-64.so.2
}
{
   <insert_a_suppression_name_here>
   Memcheck:Leak
   match-leak-kinds: reachable
   fun:_Znwm
   fun:_ZNSs4_Rep9_S_createEmmRKSaIcE
   fun:_ZNSs12_S_constructIPKcEEPcT_S3_RKSaIcESt20forward_iterator_tag
   fun:_ZNSsC1EPKcRKSaIcE
   fun:_ZN3c108demangleEPKc
   fun:_GLOBAL__sub_I_reducer.cpp
   fun:call_init.part.0
   fun:call_init
   fun:_dl_init
   obj:/usr/lib/x86_64-linux-gnu/ld-linux-x86-64.so.2
}
{
   <insert_a_suppression_name_here>
   Memcheck:Leak
   match-leak-kinds: reachable
   fun:_Znwm
   fun:_ZNSs4_Rep9_S_createEmmRKSaIcE
   fun:_ZNSs12_S_constructIPKcEEPcT_S3_RKSaIcESt20forward_iterator_tag
   fun:_ZNSsC1EPKcRKSaIcE
   fun:_GLOBAL__sub_I_reducer.cpp
   fun:call_init.part.0
   fun:call_init
   fun:_dl_init
   obj:/usr/lib/x86_64-linux-gnu/ld-linux-x86-64.so.2
}
{
   <insert_a_suppression_name_here>
   Memcheck:Leak
   match-leak-kinds: reachable
   fun:_Znwm
   fun:_ZNSs4_Rep9_S_createEmmRKSaIcE
   fun:_ZNSs12_S_constructIPKcEEPcT_S3_RKSaIcESt20forward_iterator_tag
   fun:_ZNSsC1EPKcRKSaIcE
   fun:_ZN3c108demangleEPKc
   fun:_ZN3c1013demangle_typeIN5torch3jit26SROperatorFunctor_aten_sgnEEEPKcv
   fun:_Z41__static_initialization_and_destruction_0ii.constprop.0
   fun:call_init.part.0
   fun:call_init
   fun:_dl_init
   obj:/usr/lib/x86_64-linux-gnu/ld-linux-x86-64.so.2
}
{
   <insert_a_suppression_name_here>
   Memcheck:Leak
   match-leak-kinds: reachable
   fun:_Znwm
   fun:_ZNSs4_Rep9_S_createEmmRKSaIcE
   fun:_ZNSs12_S_constructIPKcEEPcT_S3_RKSaIcESt20forward_iterator_tag
   fun:_ZNSsC1EPKcRKSaIcE
   fun:_ZN3c108demangleEPKc
   fun:_ZN3c1013demangle_typeIN5torch3jit26SROperatorFunctor_aten_cosEEEPKcv
   fun:_Z41__static_initialization_and_destruction_0ii.constprop.0
   fun:call_init.part.0
   fun:call_init
   fun:_dl_init
   obj:/usr/lib/x86_64-linux-gnu/ld-linux-x86-64.so.2
}
{
   <insert_a_suppression_name_here>
   Memcheck:Leak
   match-leak-kinds: reachable
   fun:_Znwm
   fun:_ZNSs4_Rep9_S_createEmmRKSaIcE
   fun:_ZNSs12_S_constructIPKcEEPcT_S3_RKSaIcESt20forward_iterator_tag
   fun:_ZNSsC1EPKcRKSaIcE
   fun:_ZN3c108demangleEPKc
   fun:_ZN3c1013demangle_typeIN5torch3jit26SROperatorFunctor_aten_dotEEEPKcv
   fun:_Z41__static_initialization_and_destruction_0ii.constprop.0
   fun:call_init.part.0
   fun:call_init
   fun:_dl_init
   obj:/usr/lib/x86_64-linux-gnu/ld-linux-x86-64.so.2
}
{
   <insert_a_suppression_name_here>
   Memcheck:Leak
   match-leak-kinds: reachable
   fun:_Znwm
   fun:_ZNSs4_Rep9_S_createEmmRKSaIcE
   fun:_ZNSs12_S_constructIPKcEEPcT_S3_RKSaIcESt20forward_iterator_tag
   fun:_ZNSsC1EPKcRKSaIcE
   fun:_ZN3c108demangleEPKc
   fun:_ZN3c1013demangle_typeIN5torch3jit26SROperatorFunctor_aten_erfEEEPKcv
   fun:_Z41__static_initialization_and_destruction_0ii.constprop.0
   fun:call_init.part.0
   fun:call_init
   fun:_dl_init
   obj:/usr/lib/x86_64-linux-gnu/ld-linux-x86-64.so.2
}
{
   <insert_a_suppression_name_here>
   Memcheck:Leak
   match-leak-kinds: reachable
   fun:_Znwm
   fun:_ZNSs4_Rep9_S_createEmmRKSaIcE
   fun:_ZNSs12_S_constructIPKcEEPcT_S3_RKSaIcESt20forward_iterator_tag
   fun:_ZNSsC1EPKcRKSaIcE
   fun:_ZN3c108demangleEPKc
   fun:_ZN3c1013demangle_typeIN5torch3jit26SROperatorFunctor_aten_expEEEPKcv
   fun:_Z41__static_initialization_and_destruction_0ii.constprop.0
   fun:call_init.part.0
   fun:call_init
   fun:_dl_init
   obj:/usr/lib/x86_64-linux-gnu/ld-linux-x86-64.so.2
}
{
   <insert_a_suppression_name_here>
   Memcheck:Leak
   match-leak-kinds: reachable
   fun:_Znwm
   fun:_ZNSs4_Rep9_S_createEmmRKSaIcE
   fun:_ZNSs12_S_constructIPKcEEPcT_S3_RKSaIcESt20forward_iterator_tag
   fun:_ZNSsC1EPKcRKSaIcE
   fun:_ZN3c108demangleEPKc
   fun:_ZN3c1013demangle_typeIN5torch3jit26SROperatorFunctor_aten_gcdEEEPKcv
   fun:_Z41__static_initialization_and_destruction_0ii.constprop.0
   fun:call_init.part.0
   fun:call_init
   fun:_dl_init
   obj:/usr/lib/x86_64-linux-gnu/ld-linux-x86-64.so.2
}
{
   <insert_a_suppression_name_here>
   Memcheck:Leak
   match-leak-kinds: reachable
   fun:_Znwm
   fun:_ZNSs4_Rep9_S_createEmmRKSaIcE
   fun:_ZNSs12_S_constructIPKcEEPcT_S3_RKSaIcESt20forward_iterator_tag
   fun:_ZNSsC1EPKcRKSaIcE
   fun:_ZN3c108demangleEPKc
   fun:_ZN3c1013demangle_typeIN5torch3jit26SROperatorFunctor_aten_lcmEEEPKcv
   fun:_Z41__static_initialization_and_destruction_0ii.constprop.0
   fun:call_init.part.0
   fun:call_init
   fun:_dl_init
   obj:/usr/lib/x86_64-linux-gnu/ld-linux-x86-64.so.2
}
{
   <insert_a_suppression_name_here>
   Memcheck:Leak
   match-leak-kinds: reachable
   fun:_Znwm
   fun:_ZNSs4_Rep9_S_createEmmRKSaIcE
   fun:_ZNSs12_S_constructIPKcEEPcT_S3_RKSaIcESt20forward_iterator_tag
   fun:_ZNSsC1EPKcRKSaIcE
   fun:_ZN3c108demangleEPKc
   fun:_ZN3c1013demangle_typeIN5torch3jit26SROperatorFunctor_aten_negEEEPKcv
   fun:_Z41__static_initialization_and_destruction_0ii.constprop.0
   fun:call_init.part.0
   fun:call_init
   fun:_dl_init
   obj:/usr/lib/x86_64-linux-gnu/ld-linux-x86-64.so.2
}
{
   <insert_a_suppression_name_here>
   Memcheck:Leak
   match-leak-kinds: reachable
   fun:_Znwm
   fun:_ZNSs4_Rep9_S_createEmmRKSaIcE
   fun:_ZNSs12_S_constructIPKcEEPcT_S3_RKSaIcESt20forward_iterator_tag
   fun:_ZNSsC1EPKcRKSaIcE
   fun:_ZN3c108demangleEPKc
   fun:_ZN3c1013demangle_typeIN5torch3jit26SROperatorFunctor_aten_sinEEEPKcv
   fun:_Z41__static_initialization_and_destruction_0ii.constprop.0
   fun:call_init.part.0
   fun:call_init
   fun:_dl_init
   obj:/usr/lib/x86_64-linux-gnu/ld-linux-x86-64.so.2
}
{
   <insert_a_suppression_name_here>
   Memcheck:Leak
   match-leak-kinds: reachable
   fun:_Znwm
   fun:_ZNSs4_Rep9_S_createEmmRKSaIcE
   fun:_ZNSs12_S_constructIPKcEEPcT_S3_RKSaIcESt20forward_iterator_tag
   fun:_ZNSsC1EPKcRKSaIcE
   fun:_ZN3c108demangleEPKc
   fun:_ZN3c1013demangle_typeIN5torch3jit26SROperatorFunctor_aten_tanEEEPKcv
   fun:_Z41__static_initialization_and_destruction_0ii.constprop.0
   fun:call_init.part.0
   fun:call_init
   fun:_dl_init
   obj:/usr/lib/x86_64-linux-gnu/ld-linux-x86-64.so.2
}
{
   <insert_a_suppression_name_here>
   Memcheck:Leak
   match-leak-kinds: reachable
   fun:_Znwm
   fun:_ZNSs4_Rep9_S_createEmmRKSaIcE
   fun:_ZNSs12_S_constructIPKcEEPcT_S3_RKSaIcESt20forward_iterator_tag
   fun:_ZNSsC1EPKcRKSaIcE
   fun:_ZN3c108demangleEPKc
   fun:_ZN3c1013demangle_typeIN5torch3jit26SROperatorFunctor_aten_fixEEEPKcv
   fun:_Z41__static_initialization_and_destruction_0ii.constprop.0
   fun:call_init.part.0
   fun:call_init
   fun:_dl_init
   obj:/usr/lib/x86_64-linux-gnu/ld-linux-x86-64.so.2
}
{
   <insert_a_suppression_name_here>
   Memcheck:Leak
   match-leak-kinds: reachable
   fun:_Znwm
   fun:_ZNSs4_Rep9_S_createEmmRKSaIcE
   fun:_ZNSs12_S_constructIPKcEEPcT_S3_RKSaIcESt20forward_iterator_tag
   fun:_ZNSsC1EPKcRKSaIcE
   fun:_ZN3c108demangleEPKc
   fun:_ZN3c1013demangle_typeIN5torch3jit26SROperatorFunctor_aten_minEEEPKcv
   fun:_Z41__static_initialization_and_destruction_0ii.constprop.0
   fun:call_init.part.0
   fun:call_init
   fun:_dl_init
   obj:/usr/lib/x86_64-linux-gnu/ld-linux-x86-64.so.2
}
{
   <insert_a_suppression_name_here>
   Memcheck:Leak
   match-leak-kinds: reachable
   fun:_Znwm
   fun:_ZNSs4_Rep9_S_createEmmRKSaIcE
   fun:_ZNSs12_S_constructIPKcEEPcT_S3_RKSaIcESt20forward_iterator_tag
   fun:_ZNSsC1EPKcRKSaIcE
   fun:_ZN3c108demangleEPKc
   fun:_ZN3c1013demangle_typeIN5torch3jit26SROperatorFunctor_aten_eluEEEPKcv
   fun:_Z41__static_initialization_and_destruction_0ii.constprop.0
   fun:call_init.part.0
   fun:call_init
   fun:_dl_init
   obj:/usr/lib/x86_64-linux-gnu/ld-linux-x86-64.so.2
}
{
   <insert_a_suppression_name_here>
   Memcheck:Leak
   match-leak-kinds: reachable
   fun:_Znwm
   fun:_ZNSs4_Rep9_S_createEmmRKSaIcE
   fun:_ZNSs12_S_constructIPKcEEPcT_S3_RKSaIcESt20forward_iterator_tag
   fun:_ZNSsC1EPKcRKSaIcE
   fun:_ZN3c108demangleEPKc
   fun:_ZN3c1013demangle_typeIN5torch3jit26SROperatorFunctor_aten_gluEEEPKcv
   fun:_Z41__static_initialization_and_destruction_0ii.constprop.0
   fun:call_init.part.0
   fun:call_init
   fun:_dl_init
   obj:/usr/lib/x86_64-linux-gnu/ld-linux-x86-64.so.2
}
{
   <insert_a_suppression_name_here>
   Memcheck:Leak
   match-leak-kinds: reachable
   fun:_Znwm
   fun:_ZNSs4_Rep9_S_createEmmRKSaIcE
   fun:_ZNSs12_S_constructIPKcEEPcT_S3_RKSaIcESt20forward_iterator_tag
   fun:_ZNSsC1EPKcRKSaIcE
   fun:_ZN3c108demangleEPKc
   fun:_ZN3c1013demangle_typeIN5torch3jit26SROperatorFunctor_aten_absEEEPKcv
   fun:_Z41__static_initialization_and_destruction_0ii.constprop.0
   fun:call_init.part.0
   fun:call_init
   fun:_dl_init
   obj:/usr/lib/x86_64-linux-gnu/ld-linux-x86-64.so.2
}
{
   <insert_a_suppression_name_here>
   Memcheck:Leak
   match-leak-kinds: reachable
   fun:_Znwm
   fun:_ZNSs4_Rep9_S_createEmmRKSaIcE
   fun:_ZNSs12_S_constructIPKcEEPcT_S3_RKSaIcESt20forward_iterator_tag
   fun:_ZNSsC1EPKcRKSaIcE
   fun:_ZN3c108demangleEPKc
   fun:_ZN3c1013demangle_typeIN5torch3jit26SROperatorFunctor_aten_mulEEEPKcv
   fun:_Z41__static_initialization_and_destruction_0ii.constprop.0
   fun:call_init.part.0
   fun:call_init
   fun:_dl_init
   obj:/usr/lib/x86_64-linux-gnu/ld-linux-x86-64.so.2
}
{
   <insert_a_suppression_name_here>
   Memcheck:Leak
   match-leak-kinds: reachable
   fun:_Znwm
   fun:_ZNSs4_Rep9_S_createEmmRKSaIcE
   fun:_ZNSs12_S_constructIPKcEEPcT_S3_RKSaIcESt20forward_iterator_tag
   fun:_ZNSsC1EPKcRKSaIcE
   fun:_ZN3c108demangleEPKc
   fun:_ZN3c1013demangle_typeIN5torch3jit26SROperatorFunctor_aten_bmmEEEPKcv
   fun:_Z41__static_initialization_and_destruction_0ii.constprop.0
   fun:call_init.part.0
   fun:call_init
   fun:_dl_init
   obj:/usr/lib/x86_64-linux-gnu/ld-linux-x86-64.so.2
}
{
   <insert_a_suppression_name_here>
   Memcheck:Leak
   match-leak-kinds: reachable
   fun:_Znwm
   fun:_ZNSs4_Rep9_S_createEmmRKSaIcE
   fun:_ZNSs12_S_constructIPKcEEPcT_S3_RKSaIcESt20forward_iterator_tag
   fun:_ZNSsC1EPKcRKSaIcE
   fun:_ZN3c108demangleEPKc
   fun:_ZN3c1013demangle_typeIN5torch3jit26SROperatorFunctor_aten_powEEEPKcv
   fun:_Z41__static_initialization_and_destruction_0ii.constprop.0
   fun:call_init.part.0
   fun:call_init
   fun:_dl_init
   obj:/usr/lib/x86_64-linux-gnu/ld-linux-x86-64.so.2
}
{
   <insert_a_suppression_name_here>
   Memcheck:Leak
   match-leak-kinds: reachable
   fun:_Znwm
   fun:_ZNSs4_Rep9_S_createEmmRKSaIcE
   fun:_ZNSs12_S_constructIPKcEEPcT_S3_RKSaIcESt20forward_iterator_tag
   fun:_ZNSsC1EPKcRKSaIcE
   fun:_ZN3c108demangleEPKc
   fun:_ZN3c1013demangle_typeIN5torch3jit26SROperatorFunctor_aten_sumEEEPKcv
   fun:_Z41__static_initialization_and_destruction_0ii.constprop.0
   fun:call_init.part.0
   fun:call_init
   fun:_dl_init
   obj:/usr/lib/x86_64-linux-gnu/ld-linux-x86-64.so.2
}
{
   <insert_a_suppression_name_here>
   Memcheck:Leak
   match-leak-kinds: reachable
   fun:_Znwm
   fun:_ZNSs4_Rep9_S_createEmmRKSaIcE
   fun:_ZNSs12_S_constructIPKcEEPcT_S3_RKSaIcESt20forward_iterator_tag
   fun:_ZNSsC1EPKcRKSaIcE
   fun:_ZN3c108demangleEPKc
   fun:_ZN3c1013demangle_typeIN5torch3jit26SROperatorFunctor_aten_maxEEEPKcv
   fun:_Z41__static_initialization_and_destruction_0ii.constprop.0
   fun:call_init.part.0
   fun:call_init
   fun:_dl_init
   obj:/usr/lib/x86_64-linux-gnu/ld-linux-x86-64.so.2
}
{
   <insert_a_suppression_name_here>
   Memcheck:Leak
   match-leak-kinds: reachable
   fun:_Znwm
   fun:_ZNSs4_Rep9_S_createEmmRKSaIcE
   fun:_ZNSs12_S_constructIPKcEEPcT_S3_RKSaIcESt20forward_iterator_tag
   fun:_ZNSsC1EPKcRKSaIcE
   fun:_ZN3c108demangleEPKc
   fun:_ZN3c1013demangle_typeIN5torch3jit26SROperatorFunctor_aten_divEEEPKcv
   fun:_Z41__static_initialization_and_destruction_0ii.constprop.0
   fun:call_init.part.0
   fun:call_init
   fun:_dl_init
   obj:/usr/lib/x86_64-linux-gnu/ld-linux-x86-64.so.2
}
{
   <insert_a_suppression_name_here>
   Memcheck:Leak
   match-leak-kinds: reachable
   fun:_Znwm
   fun:_ZNSs4_Rep9_S_createEmmRKSaIcE
   fun:_ZNSs12_S_constructIPKcEEPcT_S3_RKSaIcESt20forward_iterator_tag
   fun:_ZNSsC1EPKcRKSaIcE
   fun:_ZN3c108demangleEPKc
   fun:_ZN3c1013demangle_typeIN5torch3jit26SROperatorFunctor_aten_logEEEPKcv
   fun:_Z41__static_initialization_and_destruction_0ii.constprop.0
   fun:call_init.part.0
   fun:call_init
   fun:_dl_init
   obj:/usr/lib/x86_64-linux-gnu/ld-linux-x86-64.so.2
}
{
   <insert_a_suppression_name_here>
   Memcheck:Leak
   match-leak-kinds: reachable
   fun:_Znwm
   fun:_ZNSs4_Rep9_S_createEmmRKSaIcE
   fun:_ZNSs12_S_constructIPKcEEPcT_S3_RKSaIcESt20forward_iterator_tag
   fun:_ZNSsC1EPKcRKSaIcE
   fun:_ZN3c108demangleEPKc
   fun:_ZN3c1013demangle_typeIN5torch3jit26SROperatorFunctor_aten_subEEEPKcv
   fun:_Z41__static_initialization_and_destruction_0ii.constprop.0
   fun:call_init.part.0
   fun:call_init
   fun:_dl_init
   obj:/usr/lib/x86_64-linux-gnu/ld-linux-x86-64.so.2
}
{
   <insert_a_suppression_name_here>
   Memcheck:Leak
   match-leak-kinds: reachable
   fun:_Znwm
   fun:_ZNSs4_Rep9_S_createEmmRKSaIcE
   fun:_ZNSs12_S_constructIPKcEEPcT_S3_RKSaIcESt20forward_iterator_tag
   fun:_ZNSsC1EPKcRKSaIcE
   fun:_ZN3c108demangleEPKc
   fun:_ZN3c1013demangle_typeIN5torch3jit26SROperatorFunctor_aten_catEEEPKcv
   fun:_Z41__static_initialization_and_destruction_0ii.constprop.0
   fun:call_init.part.0
   fun:call_init
   fun:_dl_init
   obj:/usr/lib/x86_64-linux-gnu/ld-linux-x86-64.so.2
}
{
   <insert_a_suppression_name_here>
   Memcheck:Leak
   match-leak-kinds: reachable
   fun:_Znwm
   fun:_ZNSs4_Rep9_S_createEmmRKSaIcE
   fun:_ZNSs12_S_constructIPKcEEPcT_S3_RKSaIcESt20forward_iterator_tag
   fun:_ZNSsC1EPKcRKSaIcE
   fun:_ZN3c108demangleEPKc
   fun:_ZN3c1013demangle_typeIN5torch3jit27SROperatorFunctor_aten_acosEEEPKcv
   fun:_Z41__static_initialization_and_destruction_0ii.constprop.0
   fun:call_init.part.0
   fun:call_init
   fun:_dl_init
   obj:/usr/lib/x86_64-linux-gnu/ld-linux-x86-64.so.2
}
{
   <insert_a_suppression_name_here>
   Memcheck:Leak
   match-leak-kinds: reachable
   fun:_Znwm
   fun:_ZNSs4_Rep9_S_createEmmRKSaIcE
   fun:_ZNSs12_S_constructIPKcEEPcT_S3_RKSaIcESt20forward_iterator_tag
   fun:_ZNSsC1EPKcRKSaIcE
   fun:_ZN3c108demangleEPKc
   fun:_ZN3c1013demangle_typeIN5torch3jit27SROperatorFunctor_aten_addrEEEPKcv
   fun:_Z41__static_initialization_and_destruction_0ii.constprop.0
   fun:call_init.part.0
   fun:call_init
   fun:_dl_init
   obj:/usr/lib/x86_64-linux-gnu/ld-linux-x86-64.so.2
}
{
   <insert_a_suppression_name_here>
   Memcheck:Leak
   match-leak-kinds: reachable
   fun:_Znwm
   fun:_ZNSs4_Rep9_S_createEmmRKSaIcE
   fun:_ZNSs12_S_constructIPKcEEPcT_S3_RKSaIcESt20forward_iterator_tag
   fun:_ZNSsC1EPKcRKSaIcE
   fun:_ZN3c108demangleEPKc
   fun:_ZN3c1013demangle_typeIN5torch3jit27SROperatorFunctor_aten_asinEEEPKcv
   fun:_Z41__static_initialization_and_destruction_0ii.constprop.0
   fun:call_init.part.0
   fun:call_init
   fun:_dl_init
   obj:/usr/lib/x86_64-linux-gnu/ld-linux-x86-64.so.2
}
{
   <insert_a_suppression_name_here>
   Memcheck:Leak
   match-leak-kinds: reachable
   fun:_Znwm
   fun:_ZNSs4_Rep9_S_createEmmRKSaIcE
   fun:_ZNSs12_S_constructIPKcEEPcT_S3_RKSaIcESt20forward_iterator_tag
   fun:_ZNSsC1EPKcRKSaIcE
   fun:_ZN3c108demangleEPKc
   fun:_ZN3c1013demangle_typeIN5torch3jit27SROperatorFunctor_aten_atanEEEPKcv
   fun:_Z41__static_initialization_and_destruction_0ii.constprop.0
   fun:call_init.part.0
   fun:call_init
   fun:_dl_init
   obj:/usr/lib/x86_64-linux-gnu/ld-linux-x86-64.so.2
}
{
   <insert_a_suppression_name_here>
   Memcheck:Leak
   match-leak-kinds: reachable
   fun:_Znwm
   fun:_ZNSs4_Rep9_S_createEmmRKSaIcE
   fun:_ZNSs12_S_constructIPKcEEPcT_S3_RKSaIcESt20forward_iterator_tag
   fun:_ZNSsC1EPKcRKSaIcE
   fun:_ZN3c108demangleEPKc
   fun:_ZN3c1013demangle_typeIN5torch3jit27SROperatorFunctor_aten_ceilEEEPKcv
   fun:_Z41__static_initialization_and_destruction_0ii.constprop.0
   fun:call_init.part.0
   fun:call_init
   fun:_dl_init
   obj:/usr/lib/x86_64-linux-gnu/ld-linux-x86-64.so.2
}
{
   <insert_a_suppression_name_here>
   Memcheck:Leak
   match-leak-kinds: reachable
   fun:_Znwm
   fun:_ZNSs4_Rep9_S_createEmmRKSaIcE
   fun:_ZNSs12_S_constructIPKcEEPcT_S3_RKSaIcESt20forward_iterator_tag
   fun:_ZNSsC1EPKcRKSaIcE
   fun:_ZN3c108demangleEPKc
   fun:_ZN3c1013demangle_typeIN5torch3jit27SROperatorFunctor_aten_clipEEEPKcv
   fun:_Z41__static_initialization_and_destruction_0ii.constprop.0
   fun:call_init.part.0
   fun:call_init
   fun:_dl_init
   obj:/usr/lib/x86_64-linux-gnu/ld-linux-x86-64.so.2
}
{
   <insert_a_suppression_name_here>
   Memcheck:Leak
   match-leak-kinds: reachable
   fun:_Znwm
   fun:_ZNSs4_Rep9_S_createEmmRKSaIcE
   fun:_ZNSs12_S_constructIPKcEEPcT_S3_RKSaIcESt20forward_iterator_tag
   fun:_ZNSsC1EPKcRKSaIcE
   fun:_ZN3c108demangleEPKc
   fun:_ZN3c1013demangle_typeIN5torch3jit27SROperatorFunctor_aten_coshEEEPKcv
   fun:_Z41__static_initialization_and_destruction_0ii.constprop.0
   fun:call_init.part.0
   fun:call_init
   fun:_dl_init
   obj:/usr/lib/x86_64-linux-gnu/ld-linux-x86-64.so.2
}
{
   <insert_a_suppression_name_here>
   Memcheck:Leak
   match-leak-kinds: reachable
   fun:_Znwm
   fun:_ZNSs4_Rep9_S_createEmmRKSaIcE
   fun:_ZNSs12_S_constructIPKcEEPcT_S3_RKSaIcESt20forward_iterator_tag
   fun:_ZNSsC1EPKcRKSaIcE
   fun:_ZN3c108demangleEPKc
   fun:_ZN3c1013demangle_typeIN5torch3jit27SROperatorFunctor_aten_diffEEEPKcv
   fun:_Z41__static_initialization_and_destruction_0ii.constprop.0
   fun:call_init.part.0
   fun:call_init
   fun:_dl_init
   obj:/usr/lib/x86_64-linux-gnu/ld-linux-x86-64.so.2
}
{
   <insert_a_suppression_name_here>
   Memcheck:Leak
   match-leak-kinds: reachable
   fun:_Znwm
   fun:_ZNSs4_Rep9_S_createEmmRKSaIcE
   fun:_ZNSs12_S_constructIPKcEEPcT_S3_RKSaIcESt20forward_iterator_tag
   fun:_ZNSsC1EPKcRKSaIcE
   fun:_ZN3c108demangleEPKc
   fun:_ZN3c1013demangle_typeIN5torch3jit27SROperatorFunctor_aten_vdotEEEPKcv
   fun:_Z41__static_initialization_and_destruction_0ii.constprop.0
   fun:call_init.part.0
   fun:call_init
   fun:_dl_init
   obj:/usr/lib/x86_64-linux-gnu/ld-linux-x86-64.so.2
}
{
   <insert_a_suppression_name_here>
   Memcheck:Leak
   match-leak-kinds: reachable
   fun:_Znwm
   fun:_ZNSs4_Rep9_S_createEmmRKSaIcE
   fun:_ZNSs12_S_constructIPKcEEPcT_S3_RKSaIcESt20forward_iterator_tag
   fun:_ZNSsC1EPKcRKSaIcE
   fun:_ZN3c108demangleEPKc
   fun:_ZN3c1013demangle_typeIN5torch3jit27SROperatorFunctor_aten_erfcEEEPKcv
   fun:_Z41__static_initialization_and_destruction_0ii.constprop.0
   fun:call_init.part.0
   fun:call_init
   fun:_dl_init
   obj:/usr/lib/x86_64-linux-gnu/ld-linux-x86-64.so.2
}
{
   <insert_a_suppression_name_here>
   Memcheck:Leak
   match-leak-kinds: reachable
   fun:_Znwm
   fun:_ZNSs4_Rep9_S_createEmmRKSaIcE
   fun:_ZNSs12_S_constructIPKcEEPcT_S3_RKSaIcESt20forward_iterator_tag
   fun:_ZNSsC1EPKcRKSaIcE
   fun:_ZN3c108demangleEPKc
   fun:_ZN3c1013demangle_typeIN5torch3jit27SROperatorFunctor_aten_exp2EEEPKcv
   fun:_Z41__static_initialization_and_destruction_0ii.constprop.0
   fun:call_init.part.0
   fun:call_init
   fun:_dl_init
   obj:/usr/lib/x86_64-linux-gnu/ld-linux-x86-64.so.2
}
{
   <insert_a_suppression_name_here>
   Memcheck:Leak
   match-leak-kinds: reachable
   fun:_Znwm
   fun:_ZNSs4_Rep9_S_createEmmRKSaIcE
   fun:_ZNSs12_S_constructIPKcEEPcT_S3_RKSaIcESt20forward_iterator_tag
   fun:_ZNSsC1EPKcRKSaIcE
   fun:_ZN3c108demangleEPKc
   fun:_ZN3c1013demangle_typeIN5torch3jit27SROperatorFunctor_aten_fracEEEPKcv
   fun:_Z41__static_initialization_and_destruction_0ii.constprop.0
   fun:call_init.part.0
   fun:call_init
   fun:_dl_init
   obj:/usr/lib/x86_64-linux-gnu/ld-linux-x86-64.so.2
}
{
   <insert_a_suppression_name_here>
   Memcheck:Leak
   match-leak-kinds: reachable
   fun:_Znwm
   fun:_ZNSs4_Rep9_S_createEmmRKSaIcE
   fun:_ZNSs12_S_constructIPKcEEPcT_S3_RKSaIcESt20forward_iterator_tag
   fun:_ZNSsC1EPKcRKSaIcE
   fun:_ZN3c108demangleEPKc
   fun:_ZN3c1013demangle_typeIN5torch3jit27SROperatorFunctor_aten_isinEEEPKcv
   fun:_Z41__static_initialization_and_destruction_0ii.constprop.0
   fun:call_init.part.0
   fun:call_init
   fun:_dl_init
   obj:/usr/lib/x86_64-linux-gnu/ld-linux-x86-64.so.2
}
{
   <insert_a_suppression_name_here>
   Memcheck:Leak
   match-leak-kinds: reachable
   fun:_Znwm
   fun:_ZNSs4_Rep9_S_createEmmRKSaIcE
   fun:_ZNSs12_S_constructIPKcEEPcT_S3_RKSaIcESt20forward_iterator_tag
   fun:_ZNSsC1EPKcRKSaIcE
   fun:_ZN3c108demangleEPKc
   fun:_ZN3c1013demangle_typeIN5torch3jit27SROperatorFunctor_aten_kronEEEPKcv
   fun:_Z41__static_initialization_and_destruction_0ii.constprop.0
   fun:call_init.part.0
   fun:call_init
   fun:_dl_init
   obj:/usr/lib/x86_64-linux-gnu/ld-linux-x86-64.so.2
}
{
   <insert_a_suppression_name_here>
   Memcheck:Leak
   match-leak-kinds: reachable
   fun:_Znwm
   fun:_ZNSs4_Rep9_S_createEmmRKSaIcE
   fun:_ZNSs12_S_constructIPKcEEPcT_S3_RKSaIcESt20forward_iterator_tag
   fun:_ZNSsC1EPKcRKSaIcE
   fun:_ZN3c108demangleEPKc
   fun:_ZN3c1013demangle_typeIN5torch3jit27SROperatorFunctor_aten_log2EEEPKcv
   fun:_Z41__static_initialization_and_destruction_0ii.constprop.0
   fun:call_init.part.0
   fun:call_init
   fun:_dl_init
   obj:/usr/lib/x86_64-linux-gnu/ld-linux-x86-64.so.2
}
{
   <insert_a_suppression_name_here>
   Memcheck:Leak
   match-leak-kinds: reachable
   fun:_Znwm
   fun:_ZNSs4_Rep9_S_createEmmRKSaIcE
   fun:_ZNSs12_S_constructIPKcEEPcT_S3_RKSaIcESt20forward_iterator_tag
   fun:_ZNSsC1EPKcRKSaIcE
   fun:_ZN3c108demangleEPKc
   fun:_ZN3c1013demangle_typeIN5torch3jit27SROperatorFunctor_aten_geluEEEPKcv
   fun:_Z41__static_initialization_and_destruction_0ii.constprop.0
   fun:call_init.part.0
   fun:call_init
   fun:_dl_init
   obj:/usr/lib/x86_64-linux-gnu/ld-linux-x86-64.so.2
}
{
   <insert_a_suppression_name_here>
   Memcheck:Leak
   match-leak-kinds: reachable
   fun:_Znwm
   fun:_ZNSs4_Rep9_S_createEmmRKSaIcE
   fun:_ZNSs12_S_constructIPKcEEPcT_S3_RKSaIcESt20forward_iterator_tag
   fun:_ZNSsC1EPKcRKSaIcE
   fun:_ZN3c108demangleEPKc
   fun:_ZN3c1013demangle_typeIN5torch3jit27SROperatorFunctor_aten_siluEEEPKcv
   fun:_Z41__static_initialization_and_destruction_0ii.constprop.0
   fun:call_init.part.0
   fun:call_init
   fun:_dl_init
   obj:/usr/lib/x86_64-linux-gnu/ld-linux-x86-64.so.2
}
{
   <insert_a_suppression_name_here>
   Memcheck:Leak
   match-leak-kinds: reachable
   fun:_Znwm
   fun:_ZNSs4_Rep9_S_createEmmRKSaIcE
   fun:_ZNSs12_S_constructIPKcEEPcT_S3_RKSaIcESt20forward_iterator_tag
   fun:_ZNSsC1EPKcRKSaIcE
   fun:_ZN3c108demangleEPKc
   fun:_ZN3c1013demangle_typeIN5torch3jit27SROperatorFunctor_aten_mishEEEPKcv
   fun:_Z41__static_initialization_and_destruction_0ii.constprop.0
   fun:call_init.part.0
   fun:call_init
   fun:_dl_init
   obj:/usr/lib/x86_64-linux-gnu/ld-linux-x86-64.so.2
}
{
   <insert_a_suppression_name_here>
   Memcheck:Leak
   match-leak-kinds: reachable
   fun:_Znwm
   fun:_ZNSs4_Rep9_S_createEmmRKSaIcE
   fun:_ZNSs12_S_constructIPKcEEPcT_S3_RKSaIcESt20forward_iterator_tag
   fun:_ZNSsC1EPKcRKSaIcE
   fun:_ZN3c108demangleEPKc
   fun:_ZN3c1013demangle_typeIN5torch3jit27SROperatorFunctor_aten_sincEEEPKcv
   fun:_Z41__static_initialization_and_destruction_0ii.constprop.0
   fun:call_init.part.0
   fun:call_init
   fun:_dl_init
   obj:/usr/lib/x86_64-linux-gnu/ld-linux-x86-64.so.2
}
{
   <insert_a_suppression_name_here>
   Memcheck:Leak
   match-leak-kinds: reachable
   fun:_Znwm
   fun:_ZNSs4_Rep9_S_createEmmRKSaIcE
   fun:_ZNSs12_S_constructIPKcEEPcT_S3_RKSaIcESt20forward_iterator_tag
   fun:_ZNSsC1EPKcRKSaIcE
   fun:_ZN3c108demangleEPKc
   fun:_ZN3c1013demangle_typeIN5torch3jit27SROperatorFunctor_aten_sinhEEEPKcv
   fun:_Z41__static_initialization_and_destruction_0ii.constprop.0
   fun:call_init.part.0
   fun:call_init
   fun:_dl_init
   obj:/usr/lib/x86_64-linux-gnu/ld-linux-x86-64.so.2
}
{
   <insert_a_suppression_name_here>
   Memcheck:Leak
   match-leak-kinds: reachable
   fun:_Znwm
   fun:_ZNSs4_Rep9_S_createEmmRKSaIcE
   fun:_ZNSs12_S_constructIPKcEEPcT_S3_RKSaIcESt20forward_iterator_tag
   fun:_ZNSsC1EPKcRKSaIcE
   fun:_ZN3c108demangleEPKc
   fun:_ZN3c1013demangle_typeIN5torch3jit27SROperatorFunctor_aten_sqrtEEEPKcv
   fun:_Z41__static_initialization_and_destruction_0ii.constprop.0
   fun:call_init.part.0
   fun:call_init
   fun:_dl_init
   obj:/usr/lib/x86_64-linux-gnu/ld-linux-x86-64.so.2
}
{
   <insert_a_suppression_name_here>
   Memcheck:Leak
   match-leak-kinds: reachable
   fun:_Znwm
   fun:_ZNSs4_Rep9_S_createEmmRKSaIcE
   fun:_ZNSs12_S_constructIPKcEEPcT_S3_RKSaIcESt20forward_iterator_tag
   fun:_ZNSsC1EPKcRKSaIcE
   fun:_ZN3c108demangleEPKc
   fun:_ZN3c1013demangle_typeIN5torch3jit27SROperatorFunctor_aten_prodEEEPKcv
   fun:_Z41__static_initialization_and_destruction_0ii.constprop.0
   fun:call_init.part.0
   fun:call_init
   fun:_dl_init
   obj:/usr/lib/x86_64-linux-gnu/ld-linux-x86-64.so.2
}
{
   <insert_a_suppression_name_here>
   Memcheck:Leak
   match-leak-kinds: reachable
   fun:_Znwm
   fun:_ZNSs4_Rep9_S_createEmmRKSaIcE
   fun:_ZNSs12_S_constructIPKcEEPcT_S3_RKSaIcESt20forward_iterator_tag
   fun:_ZNSsC1EPKcRKSaIcE
   fun:_ZN3c108demangleEPKc
   fun:_ZN3c1013demangle_typeIN5torch3jit27SROperatorFunctor_aten_trilEEEPKcv
   fun:_Z41__static_initialization_and_destruction_0ii.constprop.0
   fun:call_init.part.0
   fun:call_init
   fun:_dl_init
   obj:/usr/lib/x86_64-linux-gnu/ld-linux-x86-64.so.2
}
{
   <insert_a_suppression_name_here>
   Memcheck:Leak
   match-leak-kinds: reachable
   fun:_Znwm
   fun:_ZNSs4_Rep9_S_createEmmRKSaIcE
   fun:_ZNSs12_S_constructIPKcEEPcT_S3_RKSaIcESt20forward_iterator_tag
   fun:_ZNSsC1EPKcRKSaIcE
   fun:_ZN3c108demangleEPKc
   fun:_ZN3c1013demangle_typeIN5torch3jit27SROperatorFunctor_aten_triuEEEPKcv
   fun:_Z41__static_initialization_and_destruction_0ii.constprop.0
   fun:call_init.part.0
   fun:call_init
   fun:_dl_init
   obj:/usr/lib/x86_64-linux-gnu/ld-linux-x86-64.so.2
}
{
   <insert_a_suppression_name_here>
   Memcheck:Leak
   match-leak-kinds: reachable
   fun:_Znwm
   fun:_ZNSs4_Rep9_S_createEmmRKSaIcE
   fun:_ZNSs12_S_constructIPKcEEPcT_S3_RKSaIcESt20forward_iterator_tag
   fun:_ZNSsC1EPKcRKSaIcE
   fun:_ZN3c108demangleEPKc
   fun:_ZN3c1013demangle_typeIN5torch3jit27SROperatorFunctor_aten_lerpEEEPKcv
   fun:_Z41__static_initialization_and_destruction_0ii.constprop.0
   fun:call_init.part.0
   fun:call_init
   fun:_dl_init
   obj:/usr/lib/x86_64-linux-gnu/ld-linux-x86-64.so.2
}
{
   <insert_a_suppression_name_here>
   Memcheck:Leak
   match-leak-kinds: reachable
   fun:_Znwm
   fun:_ZNSs4_Rep9_S_createEmmRKSaIcE
   fun:_ZNSs12_S_constructIPKcEEPcT_S3_RKSaIcESt20forward_iterator_tag
   fun:_ZNSsC1EPKcRKSaIcE
   fun:_ZN3c108demangleEPKc
   fun:_ZN3c1013demangle_typeIN5torch3jit27SROperatorFunctor_aten_takeEEEPKcv
   fun:_Z41__static_initialization_and_destruction_0ii.constprop.0
   fun:call_init.part.0
   fun:call_init
   fun:_dl_init
   obj:/usr/lib/x86_64-linux-gnu/ld-linux-x86-64.so.2
}
{
   <insert_a_suppression_name_here>
   Memcheck:Leak
   match-leak-kinds: reachable
   fun:_Znwm
   fun:_ZNSs4_Rep9_S_createEmmRKSaIcE
   fun:_ZNSs12_S_constructIPKcEEPcT_S3_RKSaIcESt20forward_iterator_tag
   fun:_ZNSsC1EPKcRKSaIcE
   fun:_ZN3c108demangleEPKc
   fun:_ZN3c1013demangle_typeIN5torch3jit27SROperatorFunctor_aten_fminEEEPKcv
   fun:_Z41__static_initialization_and_destruction_0ii.constprop.0
   fun:call_init.part.0
   fun:call_init
   fun:_dl_init
   obj:/usr/lib/x86_64-linux-gnu/ld-linux-x86-64.so.2
}
{
   <insert_a_suppression_name_here>
   Memcheck:Leak
   match-leak-kinds: reachable
   fun:_Znwm
   fun:_ZNSs4_Rep9_S_createEmmRKSaIcE
   fun:_ZNSs12_S_constructIPKcEEPcT_S3_RKSaIcESt20forward_iterator_tag
   fun:_ZNSsC1EPKcRKSaIcE
   fun:_ZN3c108demangleEPKc
   fun:_ZN3c1013demangle_typeIN5torch3jit27SROperatorFunctor_aten_fmaxEEEPKcv
   fun:_Z41__static_initialization_and_destruction_0ii.constprop.0
   fun:call_init.part.0
   fun:call_init
   fun:_dl_init
   obj:/usr/lib/x86_64-linux-gnu/ld-linux-x86-64.so.2
}
{
   <insert_a_suppression_name_here>
   Memcheck:Leak
   match-leak-kinds: reachable
   fun:_Znwm
   fun:_ZNSs4_Rep9_S_createEmmRKSaIcE
   fun:_ZNSs12_S_constructIPKcEEPcT_S3_RKSaIcESt20forward_iterator_tag
   fun:_ZNSsC1EPKcRKSaIcE
   fun:_ZN3c108demangleEPKc
   fun:_ZN3c1013demangle_typeIN5torch3jit27SROperatorFunctor_aten_reluEEEPKcv
   fun:_Z41__static_initialization_and_destruction_0ii.constprop.0
   fun:call_init.part.0
   fun:call_init
   fun:_dl_init
   obj:/usr/lib/x86_64-linux-gnu/ld-linux-x86-64.so.2
}
{
   <insert_a_suppression_name_here>
   Memcheck:Leak
   match-leak-kinds: reachable
   fun:_Znwm
   fun:_ZNSs4_Rep9_S_createEmmRKSaIcE
   fun:_ZNSs12_S_constructIPKcEEPcT_S3_RKSaIcESt20forward_iterator_tag
   fun:_ZNSsC1EPKcRKSaIcE
   fun:_ZN3c108demangleEPKc
   fun:_ZN3c1013demangle_typeIN5torch3jit27SROperatorFunctor_aten_tanhEEEPKcv
   fun:_Z41__static_initialization_and_destruction_0ii.constprop.0
   fun:call_init.part.0
   fun:call_init
   fun:_dl_init
   obj:/usr/lib/x86_64-linux-gnu/ld-linux-x86-64.so.2
}
{
   <insert_a_suppression_name_here>
   Memcheck:Leak
   match-leak-kinds: reachable
   fun:_Znwm
   fun:_ZNSs4_Rep9_S_createEmmRKSaIcE
   fun:_ZNSs12_S_constructIPKcEEPcT_S3_RKSaIcESt20forward_iterator_tag
   fun:_ZNSsC1EPKcRKSaIcE
   fun:_ZN3c108demangleEPKc
   fun:_ZN3c1013demangle_typeIN5torch3jit27SROperatorFunctor_aten_meanEEEPKcv
   fun:_Z41__static_initialization_and_destruction_0ii.constprop.0
   fun:call_init.part.0
   fun:call_init
   fun:_dl_init
   obj:/usr/lib/x86_64-linux-gnu/ld-linux-x86-64.so.2
}
{
   <insert_a_suppression_name_here>
   Memcheck:Leak
   match-leak-kinds: reachable
   fun:_Znwm
   fun:_ZNSs4_Rep9_S_createEmmRKSaIcE
   fun:_ZNSs12_S_constructIPKcEEPcT_S3_RKSaIcESt20forward_iterator_tag
   fun:_ZNSsC1EPKcRKSaIcE
   fun:_ZN3c108demangleEPKc
   fun:_ZN3c1013demangle_typeIN5torch3jit27SROperatorFunctor_aten_signEEEPKcv
   fun:_Z41__static_initialization_and_destruction_0ii.constprop.0
   fun:call_init.part.0
   fun:call_init
   fun:_dl_init
   obj:/usr/lib/x86_64-linux-gnu/ld-linux-x86-64.so.2
}
{
   <insert_a_suppression_name_here>
   Memcheck:Leak
   match-leak-kinds: reachable
   fun:_Znwm
   fun:_ZNSs4_Rep9_S_createEmmRKSaIcE
   fun:_ZNSs12_S_constructIPKcEEPcT_S3_RKSaIcESt20forward_iterator_tag
   fun:_ZNSsC1EPKcRKSaIcE
   fun:_ZN3c108demangleEPKc
   fun:_ZN3c1013demangle_typeIN5torch3jit27SROperatorFunctor_aten_normEEEPKcv
   fun:_Z41__static_initialization_and_destruction_0ii.constprop.0
   fun:call_init.part.0
   fun:call_init
   fun:_dl_init
   obj:/usr/lib/x86_64-linux-gnu/ld-linux-x86-64.so.2
}
{
   <insert_a_suppression_name_here>
   Memcheck:Leak
   match-leak-kinds: reachable
   fun:_Znwm
   fun:_ZNSs4_Rep9_S_createEmmRKSaIcE
   fun:_ZNSs12_S_constructIPKcEEPcT_S3_RKSaIcESt20forward_iterator_tag
   fun:_ZNSsC1EPKcRKSaIcE
   fun:_ZN3c108demangleEPKc
   fun:_ZN3c1013demangle_typeIN5torch3jit27SROperatorFunctor_aten_fullEEEPKcv
   fun:_Z41__static_initialization_and_destruction_0ii.constprop.0
   fun:call_init.part.0
   fun:call_init
   fun:_dl_init
   obj:/usr/lib/x86_64-linux-gnu/ld-linux-x86-64.so.2
}
{
   <insert_a_suppression_name_here>
   Memcheck:Leak
   match-leak-kinds: reachable
   fun:_Znwm
   fun:_ZNSs4_Rep9_S_createEmmRKSaIcE
   fun:_ZNSs12_S_constructIPKcEEPcT_S3_RKSaIcESt20forward_iterator_tag
   fun:_ZNSsC1EPKcRKSaIcE
   fun:_ZN3c108demangleEPKc
   fun:_ZN3c1013demangle_typeIN5torch3jit27SROperatorFunctor_aten_onesEEEPKcv
   fun:_Z41__static_initialization_and_destruction_0ii.constprop.0
   fun:call_init.part.0
   fun:call_init
   fun:_dl_init
   obj:/usr/lib/x86_64-linux-gnu/ld-linux-x86-64.so.2
}
{
   <insert_a_suppression_name_here>
   Memcheck:Leak
   match-leak-kinds: reachable
   fun:_Znwm
   fun:_ZN6google8protobuf8internal13OnShutdownRunEPFvPKvES3_
   fun:_ZN6google8protobuf8internal11InitSCCImplEPNS1_11SCCInfoBaseE
   fun:_ZN6google8protobuf12_GLOBAL__N_118AddDescriptorsImplEPKNS0_8internal15DescriptorTableE
   fun:call_init.part.0
   fun:call_init
   fun:_dl_init
   obj:/usr/lib/x86_64-linux-gnu/ld-linux-x86-64.so.2
}
{
   <insert_a_suppression_name_here>
   Memcheck:Leak
   match-leak-kinds: reachable
   fun:_Znwm
   fun:_ZNSs4_Rep9_S_createEmmRKSaIcE
   fun:_ZNSs12_S_constructIPKcEEPcT_S3_RKSaIcESt20forward_iterator_tag
   fun:_ZNSsC1EPKcRKSaIcE
   fun:_ZN3c108demangleEPKc
   fun:_ZN3c1013demangle_typeIN5torch3jit28SROperatorFunctor_aten_angleEEEPKcv
   fun:_Z41__static_initialization_and_destruction_0ii.constprop.0
   fun:call_init.part.0
   fun:call_init
   fun:_dl_init
   obj:/usr/lib/x86_64-linux-gnu/ld-linux-x86-64.so.2
}
{
   <insert_a_suppression_name_here>
   Memcheck:Leak
   match-leak-kinds: reachable
   fun:_Znwm
   fun:_ZNSs4_Rep9_S_createEmmRKSaIcE
   fun:_ZNSs12_S_constructIPKcEEPcT_S3_RKSaIcESt20forward_iterator_tag
   fun:_ZNSsC1EPKcRKSaIcE
   fun:_ZN3c108demangleEPKc
   fun:_ZN3c1013demangle_typeIN5torch3jit28SROperatorFunctor_aten_addmvEEEPKcv
   fun:_Z41__static_initialization_and_destruction_0ii.constprop.0
   fun:call_init.part.0
   fun:call_init
   fun:_dl_init
   obj:/usr/lib/x86_64-linux-gnu/ld-linux-x86-64.so.2
}
{
   <insert_a_suppression_name_here>
   Memcheck:Leak
   match-leak-kinds: reachable
   fun:_Znwm
   fun:_ZNSs4_Rep9_S_createEmmRKSaIcE
   fun:_ZNSs12_S_constructIPKcEEPcT_S3_RKSaIcESt20forward_iterator_tag
   fun:_ZNSsC1EPKcRKSaIcE
   fun:_ZN3c108demangleEPKc
   fun:_ZN3c1013demangle_typeIN5torch3jit28SROperatorFunctor_aten_acoshEEEPKcv
   fun:_Z41__static_initialization_and_destruction_0ii.constprop.0
   fun:call_init.part.0
   fun:call_init
   fun:_dl_init
   obj:/usr/lib/x86_64-linux-gnu/ld-linux-x86-64.so.2
}
{
   <insert_a_suppression_name_here>
   Memcheck:Leak
   match-leak-kinds: reachable
   fun:_Znwm
   fun:_ZNSs4_Rep9_S_createEmmRKSaIcE
   fun:_ZNSs12_S_constructIPKcEEPcT_S3_RKSaIcESt20forward_iterator_tag
   fun:_ZNSsC1EPKcRKSaIcE
   fun:_ZN3c108demangleEPKc
   fun:_ZN3c1013demangle_typeIN5torch3jit28SROperatorFunctor_aten_asinhEEEPKcv
   fun:_Z41__static_initialization_and_destruction_0ii.constprop.0
   fun:call_init.part.0
   fun:call_init
   fun:_dl_init
   obj:/usr/lib/x86_64-linux-gnu/ld-linux-x86-64.so.2
}
{
   <insert_a_suppression_name_here>
   Memcheck:Leak
   match-leak-kinds: reachable
   fun:_Znwm
   fun:_ZNSs4_Rep9_S_createEmmRKSaIcE
   fun:_ZNSs12_S_constructIPKcEEPcT_S3_RKSaIcESt20forward_iterator_tag
   fun:_ZNSsC1EPKcRKSaIcE
   fun:_ZN3c108demangleEPKc
   fun:_ZN3c1013demangle_typeIN5torch3jit28SROperatorFunctor_aten_atanhEEEPKcv
   fun:_Z41__static_initialization_and_destruction_0ii.constprop.0
   fun:call_init.part.0
   fun:call_init
   fun:_dl_init
   obj:/usr/lib/x86_64-linux-gnu/ld-linux-x86-64.so.2
}
{
   <insert_a_suppression_name_here>
   Memcheck:Leak
   match-leak-kinds: reachable
   fun:_Znwm
   fun:_ZNSs4_Rep9_S_createEmmRKSaIcE
   fun:_ZNSs12_S_constructIPKcEEPcT_S3_RKSaIcESt20forward_iterator_tag
   fun:_ZNSsC1EPKcRKSaIcE
   fun:_ZN3c108demangleEPKc
   fun:_ZN3c1013demangle_typeIN5torch3jit28SROperatorFunctor_aten_polarEEEPKcv
   fun:_Z41__static_initialization_and_destruction_0ii.constprop.0
   fun:call_init.part.0
   fun:call_init
   fun:_dl_init
   obj:/usr/lib/x86_64-linux-gnu/ld-linux-x86-64.so.2
}
{
   <insert_a_suppression_name_here>
   Memcheck:Leak
   match-leak-kinds: reachable
   fun:_Znwm
   fun:_ZNSs4_Rep9_S_createEmmRKSaIcE
   fun:_ZNSs12_S_constructIPKcEEPcT_S3_RKSaIcESt20forward_iterator_tag
   fun:_ZNSsC1EPKcRKSaIcE
   fun:_ZN3c108demangleEPKc
   fun:_ZN3c1013demangle_typeIN5torch3jit28SROperatorFunctor_aten_expm1EEEPKcv
   fun:_Z41__static_initialization_and_destruction_0ii.constprop.0
   fun:call_init.part.0
   fun:call_init
   fun:_dl_init
   obj:/usr/lib/x86_64-linux-gnu/ld-linux-x86-64.so.2
}
{
   <insert_a_suppression_name_here>
   Memcheck:Leak
   match-leak-kinds: reachable
   fun:_Znwm
   fun:_ZNSs4_Rep9_S_createEmmRKSaIcE
   fun:_ZNSs12_S_constructIPKcEEPcT_S3_RKSaIcESt20forward_iterator_tag
   fun:_ZNSsC1EPKcRKSaIcE
   fun:_ZN3c108demangleEPKc
   fun:_ZN3c1013demangle_typeIN5torch3jit28SROperatorFunctor_aten_floorEEEPKcv
   fun:_Z41__static_initialization_and_destruction_0ii.constprop.0
   fun:call_init.part.0
   fun:call_init
   fun:_dl_init
   obj:/usr/lib/x86_64-linux-gnu/ld-linux-x86-64.so.2
}
{
   <insert_a_suppression_name_here>
   Memcheck:Leak
   match-leak-kinds: reachable
   fun:_Znwm
   fun:_ZNSs4_Rep9_S_createEmmRKSaIcE
   fun:_ZNSs12_S_constructIPKcEEPcT_S3_RKSaIcESt20forward_iterator_tag
   fun:_ZNSsC1EPKcRKSaIcE
   fun:_ZN3c108demangleEPKc
   fun:_ZN3c1013demangle_typeIN5torch3jit28SROperatorFunctor_aten_ldexpEEEPKcv
   fun:_Z41__static_initialization_and_destruction_0ii.constprop.0
   fun:call_init.part.0
   fun:call_init
   fun:_dl_init
   obj:/usr/lib/x86_64-linux-gnu/ld-linux-x86-64.so.2
}
{
   <insert_a_suppression_name_here>
   Memcheck:Leak
   match-leak-kinds: reachable
   fun:_Znwm
   fun:_ZNSs4_Rep9_S_createEmmRKSaIcE
   fun:_ZNSs12_S_constructIPKcEEPcT_S3_RKSaIcESt20forward_iterator_tag
   fun:_ZNSsC1EPKcRKSaIcE
   fun:_ZN3c108demangleEPKc
   fun:_ZN3c1013demangle_typeIN5torch3jit28SROperatorFunctor_aten_log10EEEPKcv
   fun:_Z41__static_initialization_and_destruction_0ii.constprop.0
   fun:call_init.part.0
   fun:call_init
   fun:_dl_init
   obj:/usr/lib/x86_64-linux-gnu/ld-linux-x86-64.so.2
}
{
   <insert_a_suppression_name_here>
   Memcheck:Leak
   match-leak-kinds: reachable
   fun:_Znwm
   fun:_ZNSs4_Rep9_S_createEmmRKSaIcE
   fun:_ZNSs12_S_constructIPKcEEPcT_S3_RKSaIcESt20forward_iterator_tag
   fun:_ZNSsC1EPKcRKSaIcE
   fun:_ZN3c108demangleEPKc
   fun:_ZN3c1013demangle_typeIN5torch3jit28SROperatorFunctor_aten_log1pEEEPKcv
   fun:_Z41__static_initialization_and_destruction_0ii.constprop.0
   fun:call_init.part.0
   fun:call_init
   fun:_dl_init
   obj:/usr/lib/x86_64-linux-gnu/ld-linux-x86-64.so.2
}
{
   <insert_a_suppression_name_here>
   Memcheck:Leak
   match-leak-kinds: reachable
   fun:_Znwm
   fun:_ZNSs4_Rep9_S_createEmmRKSaIcE
   fun:_ZNSs12_S_constructIPKcEEPcT_S3_RKSaIcESt20forward_iterator_tag
   fun:_ZNSsC1EPKcRKSaIcE
   fun:_ZN3c108demangleEPKc
   fun:_ZN3c1013demangle_typeIN5torch3jit28SROperatorFunctor_aten_xlogyEEEPKcv
   fun:_Z41__static_initialization_and_destruction_0ii.constprop.0
   fun:call_init.part.0
   fun:call_init
   fun:_dl_init
   obj:/usr/lib/x86_64-linux-gnu/ld-linux-x86-64.so.2
}
{
   <insert_a_suppression_name_here>
   Memcheck:Leak
   match-leak-kinds: reachable
   fun:_Znwm
   fun:_ZNSs4_Rep9_S_createEmmRKSaIcE
   fun:_ZNSs12_S_constructIPKcEEPcT_S3_RKSaIcESt20forward_iterator_tag
   fun:_ZNSsC1EPKcRKSaIcE
   fun:_ZN3c108demangleEPKc
   fun:_ZN3c1013demangle_typeIN5torch3jit28SROperatorFunctor_aten_roundEEEPKcv
   fun:_Z41__static_initialization_and_destruction_0ii.constprop.0
   fun:call_init.part.0
   fun:call_init
   fun:_dl_init
   obj:/usr/lib/x86_64-linux-gnu/ld-linux-x86-64.so.2
}
{
   <insert_a_suppression_name_here>
   Memcheck:Leak
   match-leak-kinds: reachable
   fun:_Znwm
   fun:_ZNSs4_Rep9_S_createEmmRKSaIcE
   fun:_ZNSs12_S_constructIPKcEEPcT_S3_RKSaIcESt20forward_iterator_tag
   fun:_ZNSsC1EPKcRKSaIcE
   fun:_ZN3c108demangleEPKc
   fun:_ZN3c1013demangle_typeIN5torch3jit28SROperatorFunctor_aten_rsqrtEEEPKcv
   fun:_Z41__static_initialization_and_destruction_0ii.constprop.0
   fun:call_init.part.0
   fun:call_init
   fun:_dl_init
   obj:/usr/lib/x86_64-linux-gnu/ld-linux-x86-64.so.2
}
{
   <insert_a_suppression_name_here>
   Memcheck:Leak
   match-leak-kinds: reachable
   fun:_Znwm
   fun:_ZNSs4_Rep9_S_createEmmRKSaIcE
   fun:_ZNSs12_S_constructIPKcEEPcT_S3_RKSaIcESt20forward_iterator_tag
   fun:_ZNSsC1EPKcRKSaIcE
   fun:_ZN3c108demangleEPKc
   fun:_ZN3c1013demangle_typeIN5torch3jit28SROperatorFunctor_aten_truncEEEPKcv
   fun:_Z41__static_initialization_and_destruction_0ii.constprop.0
   fun:call_init.part.0
   fun:call_init
   fun:_dl_init
   obj:/usr/lib/x86_64-linux-gnu/ld-linux-x86-64.so.2
}
{
   <insert_a_suppression_name_here>
   Memcheck:Leak
   match-leak-kinds: reachable
   fun:_Znwm
   fun:_ZNSs4_Rep9_S_createEmmRKSaIcE
   fun:_ZNSs12_S_constructIPKcEEPcT_S3_RKSaIcESt20forward_iterator_tag
   fun:_ZNSsC1EPKcRKSaIcE
   fun:_ZN3c108demangleEPKc
   fun:_ZN3c1013demangle_typeIN5torch3jit28SROperatorFunctor_aten_crossEEEPKcv
   fun:_Z41__static_initialization_and_destruction_0ii.constprop.0
   fun:call_init.part.0
   fun:call_init
   fun:_dl_init
   obj:/usr/lib/x86_64-linux-gnu/ld-linux-x86-64.so.2
}
{
   <insert_a_suppression_name_here>
   Memcheck:Leak
   match-leak-kinds: reachable
   fun:_Znwm
   fun:_ZNSs4_Rep9_S_createEmmRKSaIcE
   fun:_ZNSs12_S_constructIPKcEEPcT_S3_RKSaIcESt20forward_iterator_tag
   fun:_ZNSsC1EPKcRKSaIcE
   fun:_ZN3c108demangleEPKc
   fun:_ZN3c1013demangle_typeIN5torch3jit28SROperatorFunctor_aten_orgqrEEEPKcv
   fun:_Z41__static_initialization_and_destruction_0ii.constprop.0
   fun:call_init.part.0
   fun:call_init
   fun:_dl_init
   obj:/usr/lib/x86_64-linux-gnu/ld-linux-x86-64.so.2
}
{
   <insert_a_suppression_name_here>
   Memcheck:Leak
   match-leak-kinds: reachable
   fun:_Znwm
   fun:_ZNSs4_Rep9_S_createEmmRKSaIcE
   fun:_ZNSs12_S_constructIPKcEEPcT_S3_RKSaIcESt20forward_iterator_tag
   fun:_ZNSsC1EPKcRKSaIcE
   fun:_ZN3c108demangleEPKc
   fun:_ZN3c1013demangle_typeIN5torch3jit28SROperatorFunctor_aten_ormqrEEEPKcv
   fun:_Z41__static_initialization_and_destruction_0ii.constprop.0
   fun:call_init.part.0
   fun:call_init
   fun:_dl_init
   obj:/usr/lib/x86_64-linux-gnu/ld-linux-x86-64.so.2
}
{
   <insert_a_suppression_name_here>
   Memcheck:Leak
   match-leak-kinds: reachable
   fun:_Znwm
   fun:_ZNSs4_Rep9_S_createEmmRKSaIcE
   fun:_ZNSs12_S_constructIPKcEEPcT_S3_RKSaIcESt20forward_iterator_tag
   fun:_ZNSsC1EPKcRKSaIcE
   fun:_ZN3c108demangleEPKc
   fun:_ZN3c1013demangle_typeIN5torch3jit28SROperatorFunctor_aten_atan2EEEPKcv
   fun:_Z41__static_initialization_and_destruction_0ii.constprop.0
   fun:call_init.part.0
   fun:call_init
   fun:_dl_init
   obj:/usr/lib/x86_64-linux-gnu/ld-linux-x86-64.so.2
}
{
   <insert_a_suppression_name_here>
   Memcheck:Leak
   match-leak-kinds: reachable
   fun:_Znwm
   fun:_ZNSs4_Rep9_S_createEmmRKSaIcE
   fun:_ZNSs12_S_constructIPKcEEPcT_S3_RKSaIcESt20forward_iterator_tag
   fun:_ZNSsC1EPKcRKSaIcE
   fun:_ZN3c108demangleEPKc
   fun:_ZN3c1013demangle_typeIN5torch3jit28SROperatorFunctor_aten_histcEEEPKcv
   fun:_Z41__static_initialization_and_destruction_0ii.constprop.0
   fun:call_init.part.0
   fun:call_init
   fun:_dl_init
   obj:/usr/lib/x86_64-linux-gnu/ld-linux-x86-64.so.2
}
{
   <insert_a_suppression_name_here>
   Memcheck:Leak
   match-leak-kinds: reachable
   fun:_Znwm
   fun:_ZNSs4_Rep9_S_createEmmRKSaIcE
   fun:_ZNSs12_S_constructIPKcEEPcT_S3_RKSaIcESt20forward_iterator_tag
   fun:_ZNSsC1EPKcRKSaIcE
   fun:_ZN3c108demangleEPKc
   fun:_ZN3c1013demangle_typeIN5torch3jit28SROperatorFunctor_aten_hypotEEEPKcv
   fun:_Z41__static_initialization_and_destruction_0ii.constprop.0
   fun:call_init.part.0
   fun:call_init
   fun:_dl_init
   obj:/usr/lib/x86_64-linux-gnu/ld-linux-x86-64.so.2
}
{
   <insert_a_suppression_name_here>
   Memcheck:Leak
   match-leak-kinds: reachable
   fun:_Znwm
   fun:_ZNSs4_Rep9_S_createEmmRKSaIcE
   fun:_ZNSs12_S_constructIPKcEEPcT_S3_RKSaIcESt20forward_iterator_tag
   fun:_ZNSsC1EPKcRKSaIcE
   fun:_ZN3c108demangleEPKc
   fun:_ZN3c1013demangle_typeIN5torch3jit28SROperatorFunctor_aten_msortEEEPKcv
   fun:_Z41__static_initialization_and_destruction_0ii.constprop.0
   fun:call_init.part.0
   fun:call_init
   fun:_dl_init
   obj:/usr/lib/x86_64-linux-gnu/ld-linux-x86-64.so.2
}
{
   <insert_a_suppression_name_here>
   Memcheck:Leak
   match-leak-kinds: reachable
   fun:_Znwm
   fun:_ZNSs4_Rep9_S_createEmmRKSaIcE
   fun:_ZNSs12_S_constructIPKcEEPcT_S3_RKSaIcESt20forward_iterator_tag
   fun:_ZNSsC1EPKcRKSaIcE
   fun:_ZN3c108demangleEPKc
   fun:_ZN3c1013demangle_typeIN5torch3jit28SROperatorFunctor_aten_innerEEEPKcv
   fun:_Z41__static_initialization_and_destruction_0ii.constprop.0
   fun:call_init.part.0
   fun:call_init
   fun:_dl_init
   obj:/usr/lib/x86_64-linux-gnu/ld-linux-x86-64.so.2
}
{
   <insert_a_suppression_name_here>
   Memcheck:Leak
   match-leak-kinds: reachable
   fun:_Znwm
   fun:_ZNSs4_Rep9_S_createEmmRKSaIcE
   fun:_ZNSs12_S_constructIPKcEEPcT_S3_RKSaIcESt20forward_iterator_tag
   fun:_ZNSsC1EPKcRKSaIcE
   fun:_ZN3c108demangleEPKc
   fun:_ZN3c1013demangle_typeIN5torch3jit28SROperatorFunctor_aten_outerEEEPKcv
   fun:_Z41__static_initialization_and_destruction_0ii.constprop.0
   fun:call_init.part.0
   fun:call_init
   fun:_dl_init
   obj:/usr/lib/x86_64-linux-gnu/ld-linux-x86-64.so.2
}
{
   <insert_a_suppression_name_here>
   Memcheck:Leak
   match-leak-kinds: reachable
   fun:_Znwm
   fun:_ZNSs4_Rep9_S_createEmmRKSaIcE
   fun:_ZNSs12_S_constructIPKcEEPcT_S3_RKSaIcESt20forward_iterator_tag
   fun:_ZNSsC1EPKcRKSaIcE
   fun:_ZN3c108demangleEPKc
   fun:_ZN3c1013demangle_typeIN5torch3jit28SROperatorFunctor_aten_addmmEEEPKcv
   fun:_Z41__static_initialization_and_destruction_0ii.constprop.0
   fun:call_init.part.0
   fun:call_init
   fun:_dl_init
   obj:/usr/lib/x86_64-linux-gnu/ld-linux-x86-64.so.2
}
{
   <insert_a_suppression_name_here>
   Memcheck:Leak
   match-leak-kinds: reachable
   fun:_Znwm
   fun:_ZNSs4_Rep9_S_createEmmRKSaIcE
   fun:_ZNSs12_S_constructIPKcEEPcT_S3_RKSaIcESt20forward_iterator_tag
   fun:_ZNSsC1EPKcRKSaIcE
   fun:_ZN3c108demangleEPKc
   fun:_ZN3c1013demangle_typeIN5torch3jit28SROperatorFunctor_aten_clampEEEPKcv
   fun:_Z41__static_initialization_and_destruction_0ii.constprop.0
   fun:call_init.part.0
   fun:call_init
   fun:_dl_init
   obj:/usr/lib/x86_64-linux-gnu/ld-linux-x86-64.so.2
}
{
   <insert_a_suppression_name_here>
   Memcheck:Leak
   match-leak-kinds: reachable
   fun:_Znwm
   fun:_ZNSs4_Rep9_S_createEmmRKSaIcE
   fun:_ZNSs12_S_constructIPKcEEPcT_S3_RKSaIcESt20forward_iterator_tag
   fun:_ZNSsC1EPKcRKSaIcE
   fun:_ZN3c108demangleEPKc
   fun:_ZN3c1013demangle_typeIN5torch3jit28SROperatorFunctor_aten_stackEEEPKcv
   fun:_Z41__static_initialization_and_destruction_0ii.constprop.0
   fun:call_init.part.0
   fun:call_init
   fun:_dl_init
   obj:/usr/lib/x86_64-linux-gnu/ld-linux-x86-64.so.2
}
{
   <insert_a_suppression_name_here>
   Memcheck:Leak
   match-leak-kinds: reachable
   fun:_Znwm
   fun:_ZNSs4_Rep9_S_createEmmRKSaIcE
   fun:_ZNSs12_S_constructIPKcEEPcT_S3_RKSaIcESt20forward_iterator_tag
   fun:_ZNSsC1EPKcRKSaIcE
   fun:_ZN3c108demangleEPKc
   fun:_ZN3c1013demangle_typeIN5torch3jit28SROperatorFunctor_aten_logitEEEPKcv
   fun:_Z41__static_initialization_and_destruction_0ii.constprop.0
   fun:call_init.part.0
   fun:call_init
   fun:_dl_init
   obj:/usr/lib/x86_64-linux-gnu/ld-linux-x86-64.so.2
}
{
   <insert_a_suppression_name_here>
   Memcheck:Leak
   match-leak-kinds: reachable
   fun:_Znwm
   fun:_ZNSs4_Rep9_S_createEmmRKSaIcE
   fun:_ZNSs12_S_constructIPKcEEPcT_S3_RKSaIcESt20forward_iterator_tag
   fun:_ZNSsC1EPKcRKSaIcE
   fun:_ZN3c108demangleEPKc
   fun:_ZN3c1013demangle_typeIN5torch3jit28SROperatorFunctor_aten_cloneEEEPKcv
   fun:_Z41__static_initialization_and_destruction_0ii.constprop.0
   fun:call_init.part.0
   fun:call_init
   fun:_dl_init
   obj:/usr/lib/x86_64-linux-gnu/ld-linux-x86-64.so.2
}
{
   <insert_a_suppression_name_here>
   Memcheck:Leak
   match-leak-kinds: reachable
   fun:_Znwm
   fun:_ZNSs4_Rep9_S_createEmmRKSaIcE
   fun:_ZNSs12_S_constructIPKcEEPcT_S3_RKSaIcESt20forward_iterator_tag
   fun:_ZNSsC1EPKcRKSaIcE
   fun:_ZN3c108demangleEPKc
   fun:_ZN3c1013demangle_typeIN5torch3jit28SROperatorFunctor_aten_indexEEEPKcv
   fun:_Z41__static_initialization_and_destruction_0ii.constprop.0
   fun:call_init.part.0
   fun:call_init
   fun:_dl_init
   obj:/usr/lib/x86_64-linux-gnu/ld-linux-x86-64.so.2
}
{
   <insert_a_suppression_name_here>
   Memcheck:Leak
   match-leak-kinds: reachable
   fun:_Znwm
   fun:_ZNSs4_Rep9_S_createEmmRKSaIcE
   fun:_ZNSs12_S_constructIPKcEEPcT_S3_RKSaIcESt20forward_iterator_tag
   fun:_ZNSsC1EPKcRKSaIcE
   fun:_ZN3c108demangleEPKc
   fun:_ZN3c1013demangle_typeIN5torch3jit28SROperatorFunctor_aten_zerosEEEPKcv
   fun:_Z41__static_initialization_and_destruction_0ii.constprop.0
   fun:call_init.part.0
   fun:call_init
   fun:_dl_init
   obj:/usr/lib/x86_64-linux-gnu/ld-linux-x86-64.so.2
}
{
   <insert_a_suppression_name_here>
   Memcheck:Leak
   match-leak-kinds: reachable
   fun:_Znwm
   fun:_ZNSs4_Rep9_S_createEmmRKSaIcE
   fun:_ZNSs12_S_constructIPKcEEPcT_S3_RKSaIcESt20forward_iterator_tag
   fun:_ZNSsC1EPKcRKSaIcE
   fun:_ZN3c108demangleEPKc
   fun:_ZN3c1013demangle_typeIN5torch3jit28SROperatorFunctor_aten_whereEEEPKcv
   fun:_Z41__static_initialization_and_destruction_0ii.constprop.0
   fun:call_init.part.0
   fun:call_init
   fun:_dl_init
   obj:/usr/lib/x86_64-linux-gnu/ld-linux-x86-64.so.2
}
{
   <insert_a_suppression_name_here>
   Memcheck:Leak
   match-leak-kinds: reachable
   fun:_Znwm
   fun:_ZNSs4_Rep9_S_createEmmRKSaIcE
   fun:_ZNSs12_S_constructIPKcEEPcT_S3_RKSaIcESt20forward_iterator_tag
   fun:_ZNSsC1EPKcRKSaIcE
   fun:_GLOBAL__sub_I_interpreter.cpp
   fun:call_init.part.0
   fun:call_init
   fun:_dl_init
   obj:/usr/lib/x86_64-linux-gnu/ld-linux-x86-64.so.2
}
{
   <insert_a_suppression_name_here>
   Memcheck:Leak
   match-leak-kinds: reachable
   fun:_Znwm
   fun:_ZNSs4_Rep9_S_createEmmRKSaIcE
   fun:_ZNSs12_S_constructIPKcEEPcT_S3_RKSaIcESt20forward_iterator_tag
   fun:_ZNSsC1EPKcRKSaIcE
   fun:_ZN3c108demangleEPKc
   fun:_ZN3c1013demangle_typeIN5torch3jit29SROperatorFunctor_aten_arccosEEEPKcv
   fun:_Z41__static_initialization_and_destruction_0ii.constprop.0
   fun:call_init.part.0
   fun:call_init
   fun:_dl_init
   obj:/usr/lib/x86_64-linux-gnu/ld-linux-x86-64.so.2
}
{
   <insert_a_suppression_name_here>
   Memcheck:Leak
   match-leak-kinds: reachable
   fun:_Znwm
   fun:_ZNSs4_Rep9_S_createEmmRKSaIcE
   fun:_ZNSs12_S_constructIPKcEEPcT_S3_RKSaIcESt20forward_iterator_tag
   fun:_ZNSsC1EPKcRKSaIcE
   fun:_ZN3c108demangleEPKc
   fun:_ZN3c1013demangle_typeIN5torch3jit29SROperatorFunctor_aten_argmaxEEEPKcv
   fun:_Z41__static_initialization_and_destruction_0ii.constprop.0
   fun:call_init.part.0
   fun:call_init
   fun:_dl_init
   obj:/usr/lib/x86_64-linux-gnu/ld-linux-x86-64.so.2
}
{
   <insert_a_suppression_name_here>
   Memcheck:Leak
   match-leak-kinds: reachable
   fun:_Znwm
   fun:_ZNSs4_Rep9_S_createEmmRKSaIcE
   fun:_ZNSs12_S_constructIPKcEEPcT_S3_RKSaIcESt20forward_iterator_tag
   fun:_ZNSsC1EPKcRKSaIcE
   fun:_ZN3c108demangleEPKc
   fun:_ZN3c1013demangle_typeIN5torch3jit29SROperatorFunctor_aten_arcsinEEEPKcv
   fun:_Z41__static_initialization_and_destruction_0ii.constprop.0
   fun:call_init.part.0
   fun:call_init
   fun:_dl_init
   obj:/usr/lib/x86_64-linux-gnu/ld-linux-x86-64.so.2
}
{
   <insert_a_suppression_name_here>
   Memcheck:Leak
   match-leak-kinds: reachable
   fun:_Znwm
   fun:_ZNSs4_Rep9_S_createEmmRKSaIcE
   fun:_ZNSs12_S_constructIPKcEEPcT_S3_RKSaIcESt20forward_iterator_tag
   fun:_ZNSsC1EPKcRKSaIcE
   fun:_ZN3c108demangleEPKc
   fun:_ZN3c1013demangle_typeIN5torch3jit29SROperatorFunctor_aten_arctanEEEPKcv
   fun:_Z41__static_initialization_and_destruction_0ii.constprop.0
   fun:call_init.part.0
   fun:call_init
   fun:_dl_init
   obj:/usr/lib/x86_64-linux-gnu/ld-linux-x86-64.so.2
}
{
   <insert_a_suppression_name_here>
   Memcheck:Leak
   match-leak-kinds: reachable
   fun:_Znwm
   fun:_ZNSs4_Rep9_S_createEmmRKSaIcE
   fun:_ZNSs12_S_constructIPKcEEPcT_S3_RKSaIcESt20forward_iterator_tag
   fun:_ZNSsC1EPKcRKSaIcE
   fun:_ZN3c108demangleEPKc
   fun:_ZN3c1013demangle_typeIN5torch3jit29SROperatorFunctor_aten_divideEEEPKcv
   fun:_Z41__static_initialization_and_destruction_0ii.constprop.0
   fun:call_init.part.0
   fun:call_init
   fun:_dl_init
   obj:/usr/lib/x86_64-linux-gnu/ld-linux-x86-64.so.2
}
{
   <insert_a_suppression_name_here>
   Memcheck:Leak
   match-leak-kinds: reachable
   fun:_Znwm
   fun:_ZNSs4_Rep9_S_createEmmRKSaIcE
   fun:_ZNSs12_S_constructIPKcEEPcT_S3_RKSaIcESt20forward_iterator_tag
   fun:_ZNSsC1EPKcRKSaIcE
   fun:_ZN3c108demangleEPKc
   fun:_ZN3c1013demangle_typeIN5torch3jit29SROperatorFunctor_aten_squareEEEPKcv
   fun:_Z41__static_initialization_and_destruction_0ii.constprop.0
   fun:call_init.part.0
   fun:call_init
   fun:_dl_init
   obj:/usr/lib/x86_64-linux-gnu/ld-linux-x86-64.so.2
}
{
   <insert_a_suppression_name_here>
   Memcheck:Leak
   match-leak-kinds: reachable
   fun:_Znwm
   fun:_ZNSs4_Rep9_S_createEmmRKSaIcE
   fun:_ZNSs12_S_constructIPKcEEPcT_S3_RKSaIcESt20forward_iterator_tag
   fun:_ZNSsC1EPKcRKSaIcE
   fun:_ZN3c108demangleEPKc
   fun:_ZN3c1013demangle_typeIN5torch3jit29SROperatorFunctor_aten_addbmmEEEPKcv
   fun:_Z41__static_initialization_and_destruction_0ii.constprop.0
   fun:call_init.part.0
   fun:call_init
   fun:_dl_init
   obj:/usr/lib/x86_64-linux-gnu/ld-linux-x86-64.so.2
}
{
   <insert_a_suppression_name_here>
   Memcheck:Leak
   match-leak-kinds: reachable
   fun:_Znwm
   fun:_ZNSs4_Rep9_S_createEmmRKSaIcE
   fun:_ZNSs12_S_constructIPKcEEPcT_S3_RKSaIcESt20forward_iterator_tag
   fun:_ZNSsC1EPKcRKSaIcE
   fun:_ZN3c108demangleEPKc
   fun:_ZN3c1013demangle_typeIN5torch3jit29SROperatorFunctor_aten_gatherEEEPKcv
   fun:_Z41__static_initialization_and_destruction_0ii.constprop.0
   fun:call_init.part.0
   fun:call_init
   fun:_dl_init
   obj:/usr/lib/x86_64-linux-gnu/ld-linux-x86-64.so.2
}
{
   <insert_a_suppression_name_here>
   Memcheck:Leak
   match-leak-kinds: reachable
   fun:_Znwm
   fun:_ZNSs4_Rep9_S_createEmmRKSaIcE
   fun:_ZNSs12_S_constructIPKcEEPcT_S3_RKSaIcESt20forward_iterator_tag
   fun:_ZNSsC1EPKcRKSaIcE
   fun:_ZN3c108demangleEPKc
   fun:_ZN3c1013demangle_typeIN5torch3jit29SROperatorFunctor_aten_lgammaEEEPKcv
   fun:_Z41__static_initialization_and_destruction_0ii.constprop.0
   fun:call_init.part.0
   fun:call_init
   fun:_dl_init
   obj:/usr/lib/x86_64-linux-gnu/ld-linux-x86-64.so.2
}
{
   <insert_a_suppression_name_here>
   Memcheck:Leak
   match-leak-kinds: reachable
   fun:_Znwm
   fun:_ZNSs4_Rep9_S_createEmmRKSaIcE
   fun:_ZNSs12_S_constructIPKcEEPcT_S3_RKSaIcESt20forward_iterator_tag
   fun:_ZNSsC1EPKcRKSaIcE
   fun:_ZN3c108demangleEPKc
   fun:_ZN3c1013demangle_typeIN5torch3jit29SROperatorFunctor_aten_erfinvEEEPKcv
   fun:_Z41__static_initialization_and_destruction_0ii.constprop.0
   fun:call_init.part.0
   fun:call_init
   fun:_dl_init
   obj:/usr/lib/x86_64-linux-gnu/ld-linux-x86-64.so.2
}
{
   <insert_a_suppression_name_here>
   Memcheck:Leak
   match-leak-kinds: reachable
   fun:_Znwm
   fun:_ZNSs4_Rep9_S_createEmmRKSaIcE
   fun:_ZNSs12_S_constructIPKcEEPcT_S3_RKSaIcESt20forward_iterator_tag
   fun:_ZNSsC1EPKcRKSaIcE
   fun:_ZN3c108demangleEPKc
   fun:_ZN3c1013demangle_typeIN5torch3jit29SROperatorFunctor_aten_igammaEEEPKcv
   fun:_Z41__static_initialization_and_destruction_0ii.constprop.0
   fun:call_init.part.0
   fun:call_init
   fun:_dl_init
   obj:/usr/lib/x86_64-linux-gnu/ld-linux-x86-64.so.2
}
{
   <insert_a_suppression_name_here>
   Memcheck:Leak
   match-leak-kinds: reachable
   fun:_Znwm
   fun:_ZNSs4_Rep9_S_createEmmRKSaIcE
   fun:_ZNSs12_S_constructIPKcEEPcT_S3_RKSaIcESt20forward_iterator_tag
   fun:_ZNSsC1EPKcRKSaIcE
   fun:_ZN3c108demangleEPKc
   fun:_ZN3c1013demangle_typeIN5torch3jit29SROperatorFunctor_aten_renormEEEPKcv
   fun:_Z41__static_initialization_and_destruction_0ii.constprop.0
   fun:call_init.part.0
   fun:call_init
   fun:_dl_init
   obj:/usr/lib/x86_64-linux-gnu/ld-linux-x86-64.so.2
}
{
   <insert_a_suppression_name_here>
   Memcheck:Leak
   match-leak-kinds: reachable
   fun:_Znwm
   fun:_ZNSs4_Rep9_S_createEmmRKSaIcE
   fun:_ZNSs12_S_constructIPKcEEPcT_S3_RKSaIcESt20forward_iterator_tag
   fun:_ZNSsC1EPKcRKSaIcE
   fun:_ZN3c108demangleEPKc
   fun:_ZN3c1013demangle_typeIN5torch3jit29SROperatorFunctor_aten_repeatEEEPKcv
   fun:_Z41__static_initialization_and_destruction_0ii.constprop.0
   fun:call_init.part.0
   fun:call_init
   fun:_dl_init
   obj:/usr/lib/x86_64-linux-gnu/ld-linux-x86-64.so.2
}
{
   <insert_a_suppression_name_here>
   Memcheck:Leak
   match-leak-kinds: reachable
   fun:_Znwm
   fun:_ZNSs4_Rep9_S_createEmmRKSaIcE
   fun:_ZNSs12_S_constructIPKcEEPcT_S3_RKSaIcESt20forward_iterator_tag
   fun:_ZNSsC1EPKcRKSaIcE
   fun:_ZN3c108demangleEPKc
   fun:_ZN3c1013demangle_typeIN5torch3jit29SROperatorFunctor_aten_argminEEEPKcv
   fun:_Z41__static_initialization_and_destruction_0ii.constprop.0
   fun:call_init.part.0
   fun:call_init
   fun:_dl_init
   obj:/usr/lib/x86_64-linux-gnu/ld-linux-x86-64.so.2
}
{
   <insert_a_suppression_name_here>
   Memcheck:Leak
   match-leak-kinds: reachable
   fun:_Znwm
   fun:_ZNSs4_Rep9_S_createEmmRKSaIcE
   fun:_ZNSs12_S_constructIPKcEEPcT_S3_RKSaIcESt20forward_iterator_tag
   fun:_ZNSsC1EPKcRKSaIcE
   fun:_ZN3c108demangleEPKc
   fun:_ZN3c1013demangle_typeIN5torch3jit29SROperatorFunctor_aten_matmulEEEPKcv
   fun:_Z41__static_initialization_and_destruction_0ii.constprop.0
   fun:call_init.part.0
   fun:call_init
   fun:_dl_init
   obj:/usr/lib/x86_64-linux-gnu/ld-linux-x86-64.so.2
}
{
   <insert_a_suppression_name_here>
   Memcheck:Leak
   match-leak-kinds: reachable
   fun:_Znwm
   fun:_ZNSs4_Rep9_S_createEmmRKSaIcE
   fun:_ZNSs12_S_constructIPKcEEPcT_S3_RKSaIcESt20forward_iterator_tag
   fun:_ZNSsC1EPKcRKSaIcE
   fun:_ZN3c108demangleEPKc
   fun:_ZN3c1013demangle_typeIN5torch3jit29SROperatorFunctor_aten_linearEEEPKcv
   fun:_Z41__static_initialization_and_destruction_0ii.constprop.0
   fun:call_init.part.0
   fun:call_init
   fun:_dl_init
   obj:/usr/lib/x86_64-linux-gnu/ld-linux-x86-64.so.2
}
{
   <insert_a_suppression_name_here>
   Memcheck:Leak
   match-leak-kinds: reachable
   fun:_Znwm
   fun:_ZNSs4_Rep9_S_createEmmRKSaIcE
   fun:_ZNSs12_S_constructIPKcEEPcT_S3_RKSaIcESt20forward_iterator_tag
   fun:_ZNSsC1EPKcRKSaIcE
   fun:_ZN3c108demangleEPKc
   fun:_ZN3c1013demangle_typeIN5torch3jit29SROperatorFunctor_aten_cumsumEEEPKcv
   fun:_Z41__static_initialization_and_destruction_0ii.constprop.0
   fun:call_init.part.0
   fun:call_init
   fun:_dl_init
   obj:/usr/lib/x86_64-linux-gnu/ld-linux-x86-64.so.2
}
{
   <insert_a_suppression_name_here>
   Memcheck:Leak
   match-leak-kinds: reachable
   fun:_Znwm
   fun:_ZNSs4_Rep9_S_createEmmRKSaIcE
   fun:_ZNSs12_S_constructIPKcEEPcT_S3_RKSaIcESt20forward_iterator_tag
   fun:_ZNSsC1EPKcRKSaIcE
   fun:_ZN3c108demangleEPKc
   fun:_ZN3c1013demangle_typeIN5torch3jit30SROperatorFunctor_aten_arcsinhEEEPKcv
   fun:_Z41__static_initialization_and_destruction_0ii.constprop.0
   fun:call_init.part.0
   fun:call_init
   fun:_dl_init
   obj:/usr/lib/x86_64-linux-gnu/ld-linux-x86-64.so.2
}
{
   <insert_a_suppression_name_here>
   Memcheck:Leak
   match-leak-kinds: reachable
   fun:_Znwm
   fun:_ZNSs4_Rep9_S_createEmmRKSaIcE
   fun:_ZNSs12_S_constructIPKcEEPcT_S3_RKSaIcESt20forward_iterator_tag
   fun:_ZNSsC1EPKcRKSaIcE
   fun:_ZN3c108demangleEPKc
   fun:_ZN3c1013demangle_typeIN5torch3jit30SROperatorFunctor_aten_arctanhEEEPKcv
   fun:_Z41__static_initialization_and_destruction_0ii.constprop.0
   fun:call_init.part.0
   fun:call_init
   fun:_dl_init
   obj:/usr/lib/x86_64-linux-gnu/ld-linux-x86-64.so.2
}
{
   <insert_a_suppression_name_here>
   Memcheck:Leak
   match-leak-kinds: reachable
   fun:_Znwm
   fun:_ZNSs4_Rep9_S_createEmmRKSaIcE
   fun:_ZNSs12_S_constructIPKcEEPcT_S3_RKSaIcESt20forward_iterator_tag
   fun:_ZNSsC1EPKcRKSaIcE
   fun:_ZN3c108demangleEPKc
   fun:_ZN3c1013demangle_typeIN5torch3jit30SROperatorFunctor_aten_baddbmmEEEPKcv
   fun:_Z41__static_initialization_and_destruction_0ii.constprop.0
   fun:call_init.part.0
   fun:call_init
   fun:_dl_init
   obj:/usr/lib/x86_64-linux-gnu/ld-linux-x86-64.so.2
}
{
   <insert_a_suppression_name_here>
   Memcheck:Leak
   match-leak-kinds: reachable
   fun:_Znwm
   fun:_ZNSs4_Rep9_S_createEmmRKSaIcE
   fun:_ZNSs12_S_constructIPKcEEPcT_S3_RKSaIcESt20forward_iterator_tag
   fun:_ZNSsC1EPKcRKSaIcE
   fun:_ZN3c108demangleEPKc
   fun:_ZN3c1013demangle_typeIN5torch3jit30SROperatorFunctor_aten_complexEEEPKcv
   fun:_Z41__static_initialization_and_destruction_0ii.constprop.0
   fun:call_init.part.0
   fun:call_init
   fun:_dl_init
   obj:/usr/lib/x86_64-linux-gnu/ld-linux-x86-64.so.2
}
{
   <insert_a_suppression_name_here>
   Memcheck:Leak
   match-leak-kinds: reachable
   fun:_Znwm
   fun:_ZNSs4_Rep9_S_createEmmRKSaIcE
   fun:_ZNSs12_S_constructIPKcEEPcT_S3_RKSaIcESt20forward_iterator_tag
   fun:_ZNSsC1EPKcRKSaIcE
   fun:_ZN3c108demangleEPKc
   fun:_ZN3c1013demangle_typeIN5torch3jit30SROperatorFunctor_aten_cumprodEEEPKcv
   fun:_Z41__static_initialization_and_destruction_0ii.constprop.0
   fun:call_init.part.0
   fun:call_init
   fun:_dl_init
   obj:/usr/lib/x86_64-linux-gnu/ld-linux-x86-64.so.2
}
{
   <insert_a_suppression_name_here>
   Memcheck:Leak
   match-leak-kinds: reachable
   fun:_Znwm
   fun:_ZNSs4_Rep9_S_createEmmRKSaIcE
   fun:_ZNSs12_S_constructIPKcEEPcT_S3_RKSaIcESt20forward_iterator_tag
   fun:_ZNSsC1EPKcRKSaIcE
   fun:_ZN3c108demangleEPKc
   fun:_ZN3c1013demangle_typeIN5torch3jit30SROperatorFunctor_aten_rad2degEEEPKcv
   fun:_Z41__static_initialization_and_destruction_0ii.constprop.0
   fun:call_init.part.0
   fun:call_init
   fun:_dl_init
   obj:/usr/lib/x86_64-linux-gnu/ld-linux-x86-64.so.2
}
{
   <insert_a_suppression_name_here>
   Memcheck:Leak
   match-leak-kinds: reachable
   fun:_Znwm
   fun:_ZNSs4_Rep9_S_createEmmRKSaIcE
   fun:_ZNSs12_S_constructIPKcEEPcT_S3_RKSaIcESt20forward_iterator_tag
   fun:_ZNSsC1EPKcRKSaIcE
   fun:_ZN3c108demangleEPKc
   fun:_ZN3c1013demangle_typeIN5torch3jit30SROperatorFunctor_aten_deg2radEEEPKcv
   fun:_Z41__static_initialization_and_destruction_0ii.constprop.0
   fun:call_init.part.0
   fun:call_init
   fun:_dl_init
   obj:/usr/lib/x86_64-linux-gnu/ld-linux-x86-64.so.2
}
{
   <insert_a_suppression_name_here>
   Memcheck:Leak
   match-leak-kinds: reachable
   fun:_Znwm
   fun:_ZNSs4_Rep9_S_createEmmRKSaIcE
   fun:_ZNSs12_S_constructIPKcEEPcT_S3_RKSaIcESt20forward_iterator_tag
   fun:_ZNSsC1EPKcRKSaIcE
   fun:_ZN3c108demangleEPKc
   fun:_ZN3c1013demangle_typeIN5torch3jit30SROperatorFunctor_aten_scatterEEEPKcv
   fun:_Z41__static_initialization_and_destruction_0ii.constprop.0
   fun:call_init.part.0
   fun:call_init
   fun:_dl_init
   obj:/usr/lib/x86_64-linux-gnu/ld-linux-x86-64.so.2
}
{
   <insert_a_suppression_name_here>
   Memcheck:Leak
   match-leak-kinds: reachable
   fun:_Znwm
   fun:_ZNSs4_Rep9_S_createEmmRKSaIcE
   fun:_ZNSs12_S_constructIPKcEEPcT_S3_RKSaIcESt20forward_iterator_tag
   fun:_ZNSsC1EPKcRKSaIcE
   fun:_ZN3c108demangleEPKc
   fun:_ZN3c1013demangle_typeIN5torch3jit30SROperatorFunctor_aten_digammaEEEPKcv
   fun:_Z41__static_initialization_and_destruction_0ii.constprop.0
   fun:call_init.part.0
   fun:call_init
   fun:_dl_init
   obj:/usr/lib/x86_64-linux-gnu/ld-linux-x86-64.so.2
}
{
   <insert_a_suppression_name_here>
   Memcheck:Leak
   match-leak-kinds: reachable
   fun:_Znwm
   fun:_ZNSs4_Rep9_S_createEmmRKSaIcE
   fun:_ZNSs12_S_constructIPKcEEPcT_S3_RKSaIcESt20forward_iterator_tag
   fun:_ZNSsC1EPKcRKSaIcE
   fun:_ZN3c108demangleEPKc
   fun:_ZN3c1013demangle_typeIN5torch3jit30SROperatorFunctor_aten_addcmulEEEPKcv
   fun:_Z41__static_initialization_and_destruction_0ii.constprop.0
   fun:call_init.part.0
   fun:call_init
   fun:_dl_init
   obj:/usr/lib/x86_64-linux-gnu/ld-linux-x86-64.so.2
}
{
   <insert_a_suppression_name_here>
   Memcheck:Leak
   match-leak-kinds: reachable
   fun:_Znwm
   fun:_ZNSs4_Rep9_S_createEmmRKSaIcE
   fun:_ZNSs12_S_constructIPKcEEPcT_S3_RKSaIcESt20forward_iterator_tag
   fun:_ZNSsC1EPKcRKSaIcE
   fun:_ZN3c108demangleEPKc
   fun:_ZN3c1013demangle_typeIN5torch3jit30SROperatorFunctor_aten_addcdivEEEPKcv
   fun:_Z41__static_initialization_and_destruction_0ii.constprop.0
   fun:call_init.part.0
   fun:call_init
   fun:_dl_init
   obj:/usr/lib/x86_64-linux-gnu/ld-linux-x86-64.so.2
}
{
   <insert_a_suppression_name_here>
   Memcheck:Leak
   match-leak-kinds: reachable
   fun:_Znwm
   fun:_ZNSs4_Rep9_S_createEmmRKSaIcE
   fun:_ZNSs12_S_constructIPKcEEPcT_S3_RKSaIcESt20forward_iterator_tag
   fun:_ZNSsC1EPKcRKSaIcE
   fun:_ZN3c108demangleEPKc
   fun:_ZN3c1013demangle_typeIN5torch3jit30SROperatorFunctor_aten_signbitEEEPKcv
   fun:_Z41__static_initialization_and_destruction_0ii.constprop.0
   fun:call_init.part.0
   fun:call_init
   fun:_dl_init
   obj:/usr/lib/x86_64-linux-gnu/ld-linux-x86-64.so.2
}
{
   <insert_a_suppression_name_here>
   Memcheck:Leak
   match-leak-kinds: reachable
   fun:_Znwm
   fun:_ZNSs4_Rep9_S_createEmmRKSaIcE
   fun:_ZNSs12_S_constructIPKcEEPcT_S3_RKSaIcESt20forward_iterator_tag
   fun:_ZNSsC1EPKcRKSaIcE
   fun:_ZN3c108demangleEPKc
   fun:_ZN3c1013demangle_typeIN5torch3jit30SROperatorFunctor_aten_arctan2EEEPKcv
   fun:_Z41__static_initialization_and_destruction_0ii.constprop.0
   fun:call_init.part.0
   fun:call_init
   fun:_dl_init
   obj:/usr/lib/x86_64-linux-gnu/ld-linux-x86-64.so.2
}
{
   <insert_a_suppression_name_here>
   Memcheck:Leak
   match-leak-kinds: reachable
   fun:_Znwm
   fun:_ZNSs4_Rep9_S_createEmmRKSaIcE
   fun:_ZNSs12_S_constructIPKcEEPcT_S3_RKSaIcESt20forward_iterator_tag
   fun:_ZNSsC1EPKcRKSaIcE
   fun:_ZN3c108demangleEPKc
   fun:_ZN3c1013demangle_typeIN5torch3jit30SROperatorFunctor_aten_igammacEEEPKcv
   fun:_Z41__static_initialization_and_destruction_0ii.constprop.0
   fun:call_init.part.0
   fun:call_init
   fun:_dl_init
   obj:/usr/lib/x86_64-linux-gnu/ld-linux-x86-64.so.2
}
{
   <insert_a_suppression_name_here>
   Memcheck:Leak
   match-leak-kinds: reachable
   fun:_Znwm
   fun:_ZNSs4_Rep9_S_createEmmRKSaIcE
   fun:_ZNSs12_S_constructIPKcEEPcT_S3_RKSaIcESt20forward_iterator_tag
   fun:_ZNSsC1EPKcRKSaIcE
   fun:_ZN3c108demangleEPKc
   fun:_ZN3c1013demangle_typeIN5torch3jit30SROperatorFunctor_aten_maximumEEEPKcv
   fun:_Z41__static_initialization_and_destruction_0ii.constprop.0
   fun:call_init.part.0
   fun:call_init
   fun:_dl_init
   obj:/usr/lib/x86_64-linux-gnu/ld-linux-x86-64.so.2
}
{
   <insert_a_suppression_name_here>
   Memcheck:Leak
   match-leak-kinds: reachable
   fun:_Znwm
   fun:_ZNSs4_Rep9_S_createEmmRKSaIcE
   fun:_ZNSs12_S_constructIPKcEEPcT_S3_RKSaIcESt20forward_iterator_tag
   fun:_ZNSsC1EPKcRKSaIcE
   fun:_ZN3c108demangleEPKc
   fun:_ZN3c1013demangle_typeIN5torch3jit30SROperatorFunctor_aten_minimumEEEPKcv
   fun:_Z41__static_initialization_and_destruction_0ii.constprop.0
   fun:call_init.part.0
   fun:call_init
   fun:_dl_init
   obj:/usr/lib/x86_64-linux-gnu/ld-linux-x86-64.so.2
}
{
   <insert_a_suppression_name_here>
   Memcheck:Leak
   match-leak-kinds: reachable
   fun:_Znwm
   fun:_ZNSs4_Rep9_S_createEmmRKSaIcE
   fun:_ZNSs12_S_constructIPKcEEPcT_S3_RKSaIcESt20forward_iterator_tag
   fun:_ZNSsC1EPKcRKSaIcE
   fun:_ZN3c108demangleEPKc
   fun:_ZN3c1013demangle_typeIN5torch3jit30SROperatorFunctor_aten_fft_fftEEEPKcv
   fun:_Z41__static_initialization_and_destruction_0ii.constprop.0
   fun:call_init.part.0
   fun:call_init
   fun:_dl_init
   obj:/usr/lib/x86_64-linux-gnu/ld-linux-x86-64.so.2
}
{
   <insert_a_suppression_name_here>
   Memcheck:Leak
   match-leak-kinds: reachable
   fun:_Znwm
   fun:_ZNSs4_Rep9_S_createEmmRKSaIcE
   fun:_ZNSs12_S_constructIPKcEEPcT_S3_RKSaIcESt20forward_iterator_tag
   fun:_ZNSsC1EPKcRKSaIcE
   fun:_ZN3c108demangleEPKc
   fun:_ZN3c1013demangle_typeIN5torch3jit30SROperatorFunctor_aten_inverseEEEPKcv
   fun:_Z41__static_initialization_and_destruction_0ii.constprop.0
   fun:call_init.part.0
   fun:call_init
   fun:_dl_init
   obj:/usr/lib/x86_64-linux-gnu/ld-linux-x86-64.so.2
}
{
   <insert_a_suppression_name_here>
   Memcheck:Leak
   match-leak-kinds: reachable
   fun:_Znwm
   fun:_ZNSs4_Rep9_S_createEmmRKSaIcE
   fun:_ZNSs12_S_constructIPKcEEPcT_S3_RKSaIcESt20forward_iterator_tag
   fun:_ZNSsC1EPKcRKSaIcE
   fun:_ZN3c108demangleEPKc
   fun:_ZN3c1013demangle_typeIN5torch3jit30SRNativeOperatorFunctor_aten_tEEEPKcv
   fun:_Z41__static_initialization_and_destruction_0ii.constprop.0
   fun:call_init.part.0
   fun:call_init
   fun:_dl_init
   obj:/usr/lib/x86_64-linux-gnu/ld-linux-x86-64.so.2
}
{
   <insert_a_suppression_name_here>
   Memcheck:Leak
   match-leak-kinds: reachable
   fun:_Znwm
   fun:_ZNSs4_Rep9_S_createEmmRKSaIcE
   fun:_ZNSs12_S_constructIPKcEEPcT_S3_RKSaIcESt20forward_iterator_tag
   fun:_ZNSsC1EPKcRKSaIcE
   fun:_ZN3c108demangleEPKc
   fun:_ZN3c1013demangle_typeIN5torch3jit30SROperatorFunctor_aten_sigmoidEEEPKcv
   fun:_Z41__static_initialization_and_destruction_0ii.constprop.0
   fun:call_init.part.0
   fun:call_init
   fun:_dl_init
   obj:/usr/lib/x86_64-linux-gnu/ld-linux-x86-64.so.2
}
{
   <insert_a_suppression_name_here>
   Memcheck:Leak
   match-leak-kinds: reachable
   fun:_Znwm
   fun:_ZNSs4_Rep9_S_createEmmRKSaIcE
   fun:_ZNSs12_S_constructIPKcEEPcT_S3_RKSaIcESt20forward_iterator_tag
   fun:_ZNSsC1EPKcRKSaIcE
   fun:_ZN3c108demangleEPKc
   fun:_ZN3c1013demangle_typeIN5torch3jit30SROperatorFunctor_aten_reshapeEEEPKcv
   fun:_Z41__static_initialization_and_destruction_0ii.constprop.0
   fun:call_init.part.0
   fun:call_init
   fun:_dl_init
   obj:/usr/lib/x86_64-linux-gnu/ld-linux-x86-64.so.2
}
{
   <insert_a_suppression_name_here>
   Memcheck:Leak
   match-leak-kinds: reachable
   fun:_Znwm
   fun:_ZNSs4_Rep9_S_createEmmRKSaIcE
   fun:_ZNSs12_S_constructIPKcEEPcT_S3_RKSaIcESt20forward_iterator_tag
   fun:_ZNSsC1EPKcRKSaIcE
   fun:_ZN3c108demangleEPKc
   fun:_ZN3c1013demangle_typeIN5torch3jit30SROperatorFunctor_aten_flattenEEEPKcv
   fun:_Z41__static_initialization_and_destruction_0ii.constprop.0
   fun:call_init.part.0
   fun:call_init
   fun:_dl_init
   obj:/usr/lib/x86_64-linux-gnu/ld-linux-x86-64.so.2
}
{
   <insert_a_suppression_name_here>
   Memcheck:Leak
   match-leak-kinds: reachable
   fun:_Znwm
   fun:_ZNSs4_Rep9_S_createEmmRKSaIcE
   fun:_ZNSs12_S_constructIPKcEEPcT_S3_RKSaIcESt20forward_iterator_tag
   fun:_ZNSsC1EPKcRKSaIcE
   fun:_ZN3c108demangleEPKc
   fun:_ZN3c1013demangle_typeIN5torch3jit30SROperatorFunctor_aten_softmaxEEEPKcv
   fun:_Z41__static_initialization_and_destruction_0ii.constprop.0
   fun:call_init.part.0
   fun:call_init
   fun:_dl_init
   obj:/usr/lib/x86_64-linux-gnu/ld-linux-x86-64.so.2
}
{
   <insert_a_suppression_name_here>
   Memcheck:Leak
   match-leak-kinds: reachable
   fun:_Znwm
   fun:_ZNSs4_Rep9_S_createEmmRKSaIcE
   fun:_ZNSs12_S_constructIPKcEEPcT_S3_RKSaIcESt20forward_iterator_tag
   fun:_ZNSsC1EPKcRKSaIcE
   fun:_ZN3c108demangleEPKc
   fun:_ZN3c1013demangle_typeIN5torch3jit30SROperatorFunctor_aten_nonzeroEEEPKcv
   fun:_Z41__static_initialization_and_destruction_0ii.constprop.0
   fun:call_init.part.0
   fun:call_init
   fun:_dl_init
   obj:/usr/lib/x86_64-linux-gnu/ld-linux-x86-64.so.2
}
{
   <insert_a_suppression_name_here>
   Memcheck:Leak
   match-leak-kinds: reachable
   fun:_Znwm
   fun:_ZNSs4_Rep9_S_createEmmRKSaIcE
   fun:_ZNSs12_S_constructIPKcEEPcT_S3_RKSaIcESt20forward_iterator_tag
   fun:_ZNSsC1EPKcRKSaIcE
   fun:_ZN3c108demangleEPKc
   fun:_ZN3c1013demangle_typeIN5torch3jit31SROperatorFunctor_aten_absoluteEEEPKcv
   fun:_Z41__static_initialization_and_destruction_0ii.constprop.0
   fun:call_init.part.0
   fun:call_init
   fun:_dl_init
   obj:/usr/lib/x86_64-linux-gnu/ld-linux-x86-64.so.2
}
{
   <insert_a_suppression_name_here>
   Memcheck:Leak
   match-leak-kinds: reachable
   fun:_Znwm
   fun:_ZNSs4_Rep9_S_createEmmRKSaIcE
   fun:_ZNSs12_S_constructIPKcEEPcT_S3_RKSaIcESt20forward_iterator_tag
   fun:_ZNSsC1EPKcRKSaIcE
   fun:_ZN3c108demangleEPKc
   fun:_ZN3c1013demangle_typeIN5torch3jit31SROperatorFunctor_aten_copysignEEEPKcv
   fun:_Z41__static_initialization_and_destruction_0ii.constprop.0
   fun:call_init.part.0
   fun:call_init
   fun:_dl_init
   obj:/usr/lib/x86_64-linux-gnu/ld-linux-x86-64.so.2
}
{
   <insert_a_suppression_name_here>
   Memcheck:Leak
   match-leak-kinds: reachable
   fun:_Znwm
   fun:_ZNSs4_Rep9_S_createEmmRKSaIcE
   fun:_ZNSs12_S_constructIPKcEEPcT_S3_RKSaIcESt20forward_iterator_tag
   fun:_ZNSsC1EPKcRKSaIcE
   fun:_ZN3c108demangleEPKc
   fun:_ZN3c1013demangle_typeIN5torch3jit31SROperatorFunctor_aten_multiplyEEEPKcv
   fun:_Z41__static_initialization_and_destruction_0ii.constprop.0
   fun:call_init.part.0
   fun:call_init
   fun:_dl_init
   obj:/usr/lib/x86_64-linux-gnu/ld-linux-x86-64.so.2
}
{
   <insert_a_suppression_name_here>
   Memcheck:Leak
   match-leak-kinds: reachable
   fun:_Znwm
   fun:_ZNSs4_Rep9_S_createEmmRKSaIcE
   fun:_ZNSs12_S_constructIPKcEEPcT_S3_RKSaIcESt20forward_iterator_tag
   fun:_ZNSsC1EPKcRKSaIcE
   fun:_ZN3c108demangleEPKc
   fun:_ZN3c1013demangle_typeIN5torch3jit31SROperatorFunctor_aten_mvlgammaEEEPKcv
   fun:_Z41__static_initialization_and_destruction_0ii.constprop.0
   fun:call_init.part.0
   fun:call_init
   fun:_dl_init
   obj:/usr/lib/x86_64-linux-gnu/ld-linux-x86-64.so.2
}
{
   <insert_a_suppression_name_here>
   Memcheck:Leak
   match-leak-kinds: reachable
   fun:_Znwm
   fun:_ZNSs4_Rep9_S_createEmmRKSaIcE
   fun:_ZNSs12_S_constructIPKcEEPcT_S3_RKSaIcESt20forward_iterator_tag
   fun:_ZNSsC1EPKcRKSaIcE
   fun:_ZN3c108demangleEPKc
   fun:_ZN3c1013demangle_typeIN5torch3jit31SROperatorFunctor_aten_negativeEEEPKcv
   fun:_Z41__static_initialization_and_destruction_0ii.constprop.0
   fun:call_init.part.0
   fun:call_init
   fun:_dl_init
   obj:/usr/lib/x86_64-linux-gnu/ld-linux-x86-64.so.2
}
{
   <insert_a_suppression_name_here>
   Memcheck:Leak
   match-leak-kinds: reachable
   fun:_Znwm
   fun:_ZNSs4_Rep9_S_createEmmRKSaIcE
   fun:_ZNSs12_S_constructIPKcEEPcT_S3_RKSaIcESt20forward_iterator_tag
   fun:_ZNSsC1EPKcRKSaIcE
   fun:_ZN3c108demangleEPKc
   fun:_ZN3c1013demangle_typeIN5torch3jit31SROperatorFunctor_aten__softmaxEEEPKcv
   fun:_Z41__static_initialization_and_destruction_0ii.constprop.0
   fun:call_init.part.0
   fun:call_init
   fun:_dl_init
   obj:/usr/lib/x86_64-linux-gnu/ld-linux-x86-64.so.2
}
{
   <insert_a_suppression_name_here>
   Memcheck:Leak
   match-leak-kinds: reachable
   fun:_Znwm
   fun:_ZNSs4_Rep9_S_createEmmRKSaIcE
   fun:_ZNSs12_S_constructIPKcEEPcT_S3_RKSaIcESt20forward_iterator_tag
   fun:_ZNSsC1EPKcRKSaIcE
   fun:_ZN3c108demangleEPKc
   fun:_ZN3c1013demangle_typeIN5torch3jit31SROperatorFunctor_aten_subtractEEEPKcv
   fun:_Z41__static_initialization_and_destruction_0ii.constprop.0
   fun:call_init.part.0
   fun:call_init
   fun:_dl_init
   obj:/usr/lib/x86_64-linux-gnu/ld-linux-x86-64.so.2
}
{
   <insert_a_suppression_name_here>
   Memcheck:Leak
   match-leak-kinds: reachable
   fun:_Znwm
   fun:_ZNSs4_Rep9_S_createEmmRKSaIcE
   fun:_ZNSs12_S_constructIPKcEEPcT_S3_RKSaIcESt20forward_iterator_tag
   fun:_ZNSsC1EPKcRKSaIcE
   fun:_ZN3c108demangleEPKc
   fun:_ZN3c1013demangle_typeIN5torch3jit31SROperatorFunctor_aten_quantileEEEPKcv
   fun:_Z41__static_initialization_and_destruction_0ii.constprop.0
   fun:call_init.part.0
   fun:call_init
   fun:_dl_init
   obj:/usr/lib/x86_64-linux-gnu/ld-linux-x86-64.so.2
}
{
   <insert_a_suppression_name_here>
   Memcheck:Leak
   match-leak-kinds: reachable
   fun:_Znwm
   fun:_ZNSs4_Rep9_S_createEmmRKSaIcE
   fun:_ZNSs12_S_constructIPKcEEPcT_S3_RKSaIcESt20forward_iterator_tag
   fun:_ZNSsC1EPKcRKSaIcE
   fun:_ZN3c108demangleEPKc
   fun:_ZN3c1013demangle_typeIN5torch3jit31SROperatorFunctor_aten_mse_lossEEEPKcv
   fun:_Z41__static_initialization_and_destruction_0ii.constprop.0
   fun:call_init.part.0
   fun:call_init
   fun:_dl_init
   obj:/usr/lib/x86_64-linux-gnu/ld-linux-x86-64.so.2
}
{
   <insert_a_suppression_name_here>
   Memcheck:Leak
   match-leak-kinds: reachable
   fun:_Znwm
   fun:_ZNSs4_Rep9_S_createEmmRKSaIcE
   fun:_ZNSs12_S_constructIPKcEEPcT_S3_RKSaIcESt20forward_iterator_tag
   fun:_ZNSsC1EPKcRKSaIcE
   fun:_ZN3c108demangleEPKc
   fun:_ZN3c1013demangle_typeIN5torch3jit31SROperatorFunctor_aten_hardtanhEEEPKcv
   fun:_Z41__static_initialization_and_destruction_0ii.constprop.0
   fun:call_init.part.0
   fun:call_init
   fun:_dl_init
   obj:/usr/lib/x86_64-linux-gnu/ld-linux-x86-64.so.2
}
{
   <insert_a_suppression_name_here>
   Memcheck:Leak
   match-leak-kinds: reachable
   fun:_Znwm
   fun:_ZNSs4_Rep9_S_createEmmRKSaIcE
   fun:_ZNSs12_S_constructIPKcEEPcT_S3_RKSaIcESt20forward_iterator_tag
   fun:_ZNSsC1EPKcRKSaIcE
   fun:_ZN3c108demangleEPKc
   fun:_ZN3c1013demangle_typeIN5torch3jit31SROperatorFunctor_aten_softplusEEEPKcv
   fun:_Z41__static_initialization_and_destruction_0ii.constprop.0
   fun:call_init.part.0
   fun:call_init
   fun:_dl_init
   obj:/usr/lib/x86_64-linux-gnu/ld-linux-x86-64.so.2
}
{
   <insert_a_suppression_name_here>
   Memcheck:Leak
   match-leak-kinds: reachable
   fun:_Znwm
   fun:_ZNSs4_Rep9_S_createEmmRKSaIcE
   fun:_ZNSs12_S_constructIPKcEEPcT_S3_RKSaIcESt20forward_iterator_tag
   fun:_ZNSsC1EPKcRKSaIcE
   fun:_ZN3c108demangleEPKc
   fun:_ZN3c1013demangle_typeIN5torch3jit31SROperatorFunctor_aten_isposinfEEEPKcv
   fun:_Z41__static_initialization_and_destruction_0ii.constprop.0
   fun:call_init.part.0
   fun:call_init
   fun:_dl_init
   obj:/usr/lib/x86_64-linux-gnu/ld-linux-x86-64.so.2
}
{
   <insert_a_suppression_name_here>
   Memcheck:Leak
   match-leak-kinds: reachable
   fun:_Znwm
   fun:_ZNSs4_Rep9_S_createEmmRKSaIcE
   fun:_ZNSs12_S_constructIPKcEEPcT_S3_RKSaIcESt20forward_iterator_tag
   fun:_ZNSsC1EPKcRKSaIcE
   fun:_ZN3c108demangleEPKc
   fun:_ZN3c1013demangle_typeIN5torch3jit31SROperatorFunctor_aten_isneginfEEEPKcv
   fun:_Z41__static_initialization_and_destruction_0ii.constprop.0
   fun:call_init.part.0
   fun:call_init
   fun:_dl_init
   obj:/usr/lib/x86_64-linux-gnu/ld-linux-x86-64.so.2
}
{
   <insert_a_suppression_name_here>
   Memcheck:Leak
   match-leak-kinds: reachable
   fun:_Znwm
   fun:_ZNSs4_Rep9_S_createEmmRKSaIcE
   fun:_ZNSs12_S_constructIPKcEEPcT_S3_RKSaIcESt20forward_iterator_tag
   fun:_ZNSsC1EPKcRKSaIcE
   fun:_ZN3c108demangleEPKc
   fun:_ZN3c1013demangle_typeIN5torch3jit31SROperatorFunctor_aten_fft_ifftEEEPKcv
   fun:_Z41__static_initialization_and_destruction_0ii.constprop.0
   fun:call_init.part.0
   fun:call_init
   fun:_dl_init
   obj:/usr/lib/x86_64-linux-gnu/ld-linux-x86-64.so.2
}
{
   <insert_a_suppression_name_here>
   Memcheck:Leak
   match-leak-kinds: reachable
   fun:_Znwm
   fun:_ZNSs4_Rep9_S_createEmmRKSaIcE
   fun:_ZNSs12_S_constructIPKcEEPcT_S3_RKSaIcESt20forward_iterator_tag
   fun:_ZNSsC1EPKcRKSaIcE
   fun:_ZN3c108demangleEPKc
   fun:_ZN3c1013demangle_typeIN5torch3jit31SROperatorFunctor_aten_fft_rfftEEEPKcv
   fun:_Z41__static_initialization_and_destruction_0ii.constprop.0
   fun:call_init.part.0
   fun:call_init
   fun:_dl_init
   obj:/usr/lib/x86_64-linux-gnu/ld-linux-x86-64.so.2
}
{
   <insert_a_suppression_name_here>
   Memcheck:Leak
   match-leak-kinds: reachable
   fun:_Znwm
   fun:_ZNSs4_Rep9_S_createEmmRKSaIcE
   fun:_ZNSs12_S_constructIPKcEEPcT_S3_RKSaIcESt20forward_iterator_tag
   fun:_ZNSsC1EPKcRKSaIcE
   fun:_ZN3c108demangleEPKc
   fun:_ZN3c1013demangle_typeIN5torch3jit31SROperatorFunctor_aten_fft_hfftEEEPKcv
   fun:_Z41__static_initialization_and_destruction_0ii.constprop.0
   fun:call_init.part.0
   fun:call_init
   fun:_dl_init
   obj:/usr/lib/x86_64-linux-gnu/ld-linux-x86-64.so.2
}
{
   <insert_a_suppression_name_here>
   Memcheck:Leak
   match-leak-kinds: reachable
   fun:_Znwm
   fun:_ZNSs4_Rep9_S_createEmmRKSaIcE
   fun:_ZNSs12_S_constructIPKcEEPcT_S3_RKSaIcESt20forward_iterator_tag
   fun:_ZNSsC1EPKcRKSaIcE
   fun:_ZN3c108demangleEPKc
   fun:_ZN3c1013demangle_typeIN5torch3jit31SRNativeOperatorFunctor_aten_mTEEEPKcv
   fun:_Z41__static_initialization_and_destruction_0ii.constprop.0
   fun:call_init.part.0
   fun:call_init
   fun:_dl_init
   obj:/usr/lib/x86_64-linux-gnu/ld-linux-x86-64.so.2
}
{
   <insert_a_suppression_name_here>
   Memcheck:Leak
   match-leak-kinds: reachable
   fun:_Znwm
   fun:_ZNSs4_Rep9_S_createEmmRKSaIcE
   fun:_ZNSs12_S_constructIPKcEEPcT_S3_RKSaIcESt20forward_iterator_tag
   fun:_ZNSsC1EPKcRKSaIcE
   fun:_ZN3c108demangleEPKc
   fun:_ZN3c1013demangle_typeIN5torch3jit31SRNativeOperatorFunctor_aten_mHEEEPKcv
   fun:_Z41__static_initialization_and_destruction_0ii.constprop.0
   fun:call_init.part.0
   fun:call_init
   fun:_dl_init
   obj:/usr/lib/x86_64-linux-gnu/ld-linux-x86-64.so.2
}
{
   <insert_a_suppression_name_here>
   Memcheck:Leak
   match-leak-kinds: reachable
   fun:_Znwm
   fun:_ZNSs4_Rep9_S_createEmmRKSaIcE
   fun:_ZNSs12_S_constructIPKcEEPcT_S3_RKSaIcESt20forward_iterator_tag
   fun:_ZNSsC1EPKcRKSaIcE
   fun:_ZN3c108demangleEPKc
   fun:_ZN3c1013demangle_typeIN5torch3jit31SRNativeOperatorFunctor_aten_toEEEPKcv
   fun:_Z41__static_initialization_and_destruction_0ii.constprop.0
   fun:call_init.part.0
   fun:call_init
   fun:_dl_init
   obj:/usr/lib/x86_64-linux-gnu/ld-linux-x86-64.so.2
}
{
   <insert_a_suppression_name_here>
   Memcheck:Leak
   match-leak-kinds: reachable
   fun:_Znwm
   fun:_ZNSs4_Rep9_S_createEmmRKSaIcE
   fun:_ZNSs12_S_constructIPKcEEPcT_S3_RKSaIcESt20forward_iterator_tag
   fun:_ZNSsC1EPKcRKSaIcE
   fun:_ZN3c108demangleEPKc
   fun:_ZN3c1013demangle_typeIN5torch3jit31SRNativeOperatorFunctor_prim_IfEEEPKcv
   fun:_Z41__static_initialization_and_destruction_0ii.constprop.0
   fun:call_init.part.0
   fun:call_init
   fun:_dl_init
   obj:/usr/lib/x86_64-linux-gnu/ld-linux-x86-64.so.2
}
{
   <insert_a_suppression_name_here>
   Memcheck:Leak
   match-leak-kinds: reachable
   fun:_Znwm
   fun:_ZNSs4_Rep9_S_createEmmRKSaIcE
   fun:_ZNSs12_S_constructIPKcEEPcT_S3_RKSaIcESt20forward_iterator_tag
   fun:_ZNSsC1EPKcRKSaIcE
   fun:_ZN3c108demangleEPKc
   fun:_ZN3c1013demangle_typeIN5torch3jit31SROperatorFunctor_prim_VarStackEEEPKcv
   fun:_Z41__static_initialization_and_destruction_0ii.constprop.0
   fun:call_init.part.0
   fun:call_init
   fun:_dl_init
   obj:/usr/lib/x86_64-linux-gnu/ld-linux-x86-64.so.2
}
{
   <insert_a_suppression_name_here>
   Memcheck:Leak
   match-leak-kinds: reachable
   fun:_Znwm
   fun:_ZNSs4_Rep9_S_createEmmRKSaIcE
   fun:_ZNSs12_S_constructIPKcEEPcT_S3_RKSaIcESt20forward_iterator_tag
   fun:_ZNSsC1EPKcRKSaIcE
   fun:_ZN3c108demangleEPKc
   fun:_ZN3c1013demangle_typeIN5torch3jit32SROperatorFunctor_aten__add_reluEEEPKcv
   fun:_Z41__static_initialization_and_destruction_0ii.constprop.0
   fun:call_init.part.0
   fun:call_init
   fun:_dl_init
   obj:/usr/lib/x86_64-linux-gnu/ld-linux-x86-64.so.2
}
{
   <insert_a_suppression_name_here>
   Memcheck:Leak
   match-leak-kinds: reachable
   fun:_Znwm
   fun:_ZNSs4_Rep9_S_createEmmRKSaIcE
   fun:_ZNSs12_S_constructIPKcEEPcT_S3_RKSaIcESt20forward_iterator_tag
   fun:_ZNSsC1EPKcRKSaIcE
   fun:_ZN3c108demangleEPKc
   fun:_ZN3c1013demangle_typeIN5torch3jit32SROperatorFunctor_aten_clamp_maxEEEPKcv
   fun:_Z41__static_initialization_and_destruction_0ii.constprop.0
   fun:call_init.part.0
   fun:call_init
   fun:_dl_init
   obj:/usr/lib/x86_64-linux-gnu/ld-linux-x86-64.so.2
}
{
   <insert_a_suppression_name_here>
   Memcheck:Leak
   match-leak-kinds: reachable
   fun:_Znwm
   fun:_ZNSs4_Rep9_S_createEmmRKSaIcE
   fun:_ZNSs12_S_constructIPKcEEPcT_S3_RKSaIcESt20forward_iterator_tag
   fun:_ZNSsC1EPKcRKSaIcE
   fun:_ZN3c108demangleEPKc
   fun:_ZN3c1013demangle_typeIN5torch3jit32SROperatorFunctor_aten_logaddexpEEEPKcv
   fun:_Z41__static_initialization_and_destruction_0ii.constprop.0
   fun:call_init.part.0
   fun:call_init
   fun:_dl_init
   obj:/usr/lib/x86_64-linux-gnu/ld-linux-x86-64.so.2
}
{
   <insert_a_suppression_name_here>
   Memcheck:Leak
   match-leak-kinds: reachable
   fun:_Znwm
   fun:_ZNSs4_Rep9_S_createEmmRKSaIcE
   fun:_ZNSs12_S_constructIPKcEEPcT_S3_RKSaIcESt20forward_iterator_tag
   fun:_ZNSsC1EPKcRKSaIcE
   fun:_ZN3c108demangleEPKc
   fun:_ZN3c1013demangle_typeIN5torch3jit32SROperatorFunctor_aten_thresholdEEEPKcv
   fun:_Z41__static_initialization_and_destruction_0ii.constprop.0
   fun:call_init.part.0
   fun:call_init
   fun:_dl_init
   obj:/usr/lib/x86_64-linux-gnu/ld-linux-x86-64.so.2
}
{
   <insert_a_suppression_name_here>
   Memcheck:Leak
   match-leak-kinds: reachable
   fun:_Znwm
   fun:_ZNSs4_Rep9_S_createEmmRKSaIcE
   fun:_ZNSs12_S_constructIPKcEEPcT_S3_RKSaIcESt20forward_iterator_tag
   fun:_ZNSsC1EPKcRKSaIcE
   fun:_ZN3c108demangleEPKc
   fun:_ZN3c1013demangle_typeIN5torch3jit32SROperatorFunctor_aten_heavisideEEEPKcv
   fun:_Z41__static_initialization_and_destruction_0ii.constprop.0
   fun:call_init.part.0
   fun:call_init
   fun:_dl_init
   obj:/usr/lib/x86_64-linux-gnu/ld-linux-x86-64.so.2
}
{
   <insert_a_suppression_name_here>
   Memcheck:Leak
   match-leak-kinds: reachable
   fun:_Znwm
   fun:_ZNSs4_Rep9_S_createEmmRKSaIcE
   fun:_ZNSs12_S_constructIPKcEEPcT_S3_RKSaIcESt20forward_iterator_tag
   fun:_ZNSsC1EPKcRKSaIcE
   fun:_ZN3c108demangleEPKc
   fun:_ZN3c1013demangle_typeIN5torch3jit32SROperatorFunctor_aten_index_addEEEPKcv
   fun:_Z41__static_initialization_and_destruction_0ii.constprop.0
   fun:call_init.part.0
   fun:call_init
   fun:_dl_init
   obj:/usr/lib/x86_64-linux-gnu/ld-linux-x86-64.so.2
}
{
   <insert_a_suppression_name_here>
   Memcheck:Leak
   match-leak-kinds: reachable
   fun:_Znwm
   fun:_ZNSs4_Rep9_S_createEmmRKSaIcE
   fun:_ZNSs12_S_constructIPKcEEPcT_S3_RKSaIcESt20forward_iterator_tag
   fun:_ZNSsC1EPKcRKSaIcE
   fun:_ZN3c108demangleEPKc
   fun:_ZN3c1013demangle_typeIN5torch3jit32SROperatorFunctor_aten_polygammaEEEPKcv
   fun:_Z41__static_initialization_and_destruction_0ii.constprop.0
   fun:call_init.part.0
   fun:call_init
   fun:_dl_init
   obj:/usr/lib/x86_64-linux-gnu/ld-linux-x86-64.so.2
}
{
   <insert_a_suppression_name_here>
   Memcheck:Leak
   match-leak-kinds: reachable
   fun:_Znwm
   fun:_ZNSs4_Rep9_S_createEmmRKSaIcE
   fun:_ZNSs12_S_constructIPKcEEPcT_S3_RKSaIcESt20forward_iterator_tag
   fun:_ZNSsC1EPKcRKSaIcE
   fun:_ZN3c108demangleEPKc
   fun:_ZN3c1013demangle_typeIN5torch3jit32SROperatorFunctor_aten_nextafterEEEPKcv
   fun:_Z41__static_initialization_and_destruction_0ii.constprop.0
   fun:call_init.part.0
   fun:call_init
   fun:_dl_init
   obj:/usr/lib/x86_64-linux-gnu/ld-linux-x86-64.so.2
}
{
   <insert_a_suppression_name_here>
   Memcheck:Leak
   match-leak-kinds: reachable
   fun:_Znwm
   fun:_ZNSs4_Rep9_S_createEmmRKSaIcE
   fun:_ZNSs12_S_constructIPKcEEPcT_S3_RKSaIcESt20forward_iterator_tag
   fun:_ZNSsC1EPKcRKSaIcE
   fun:_ZN3c108demangleEPKc
   fun:_ZN3c1013demangle_typeIN5torch3jit32SROperatorFunctor_aten_hardswishEEEPKcv
   fun:_Z41__static_initialization_and_destruction_0ii.constprop.0
   fun:call_init.part.0
   fun:call_init
   fun:_dl_init
   obj:/usr/lib/x86_64-linux-gnu/ld-linux-x86-64.so.2
}
{
   <insert_a_suppression_name_here>
   Memcheck:Leak
   match-leak-kinds: reachable
   fun:_Znwm
   fun:_ZNSs4_Rep9_S_createEmmRKSaIcE
   fun:_ZNSs12_S_constructIPKcEEPcT_S3_RKSaIcESt20forward_iterator_tag
   fun:_ZNSsC1EPKcRKSaIcE
   fun:_ZN3c108demangleEPKc
   fun:_ZN3c1013demangle_typeIN5torch3jit32SROperatorFunctor_aten_fft_irfftEEEPKcv
   fun:_Z41__static_initialization_and_destruction_0ii.constprop.0
   fun:call_init.part.0
   fun:call_init
   fun:_dl_init
   obj:/usr/lib/x86_64-linux-gnu/ld-linux-x86-64.so.2
}
{
   <insert_a_suppression_name_here>
   Memcheck:Leak
   match-leak-kinds: reachable
   fun:_Znwm
   fun:_ZNSs4_Rep9_S_createEmmRKSaIcE
   fun:_ZNSs12_S_constructIPKcEEPcT_S3_RKSaIcESt20forward_iterator_tag
   fun:_ZNSsC1EPKcRKSaIcE
   fun:_ZN3c108demangleEPKc
   fun:_ZN3c1013demangle_typeIN5torch3jit32SROperatorFunctor_aten_fft_ihfftEEEPKcv
   fun:_Z41__static_initialization_and_destruction_0ii.constprop.0
   fun:call_init.part.0
   fun:call_init
   fun:_dl_init
   obj:/usr/lib/x86_64-linux-gnu/ld-linux-x86-64.so.2
}
{
   <insert_a_suppression_name_here>
   Memcheck:Leak
   match-leak-kinds: reachable
   fun:_Znwm
   fun:_ZNSs4_Rep9_S_createEmmRKSaIcE
   fun:_ZNSs12_S_constructIPKcEEPcT_S3_RKSaIcESt20forward_iterator_tag
   fun:_ZNSsC1EPKcRKSaIcE
   fun:_ZN3c108demangleEPKc
   fun:_ZN3c1013demangle_typeIN5torch3jit32SRNativeOperatorFunctor_aten_cpuEEEPKcv
   fun:_Z41__static_initialization_and_destruction_0ii.constprop.0
   fun:call_init.part.0
   fun:call_init
   fun:_dl_init
   obj:/usr/lib/x86_64-linux-gnu/ld-linux-x86-64.so.2
}
{
   <insert_a_suppression_name_here>
   Memcheck:Leak
   match-leak-kinds: reachable
   fun:_Znwm
   fun:_ZNSs4_Rep9_S_createEmmRKSaIcE
   fun:_ZNSs12_S_constructIPKcEEPcT_S3_RKSaIcESt20forward_iterator_tag
   fun:_ZNSsC1EPKcRKSaIcE
   fun:_ZN3c108demangleEPKc
   fun:_ZN3c1013demangle_typeIN5torch3jit32SRNativeOperatorFunctor_aten_mulEEEPKcv
   fun:_Z41__static_initialization_and_destruction_0ii.constprop.0
   fun:call_init.part.0
   fun:call_init
   fun:_dl_init
   obj:/usr/lib/x86_64-linux-gnu/ld-linux-x86-64.so.2
}
{
   <insert_a_suppression_name_here>
   Memcheck:Leak
   match-leak-kinds: reachable
   fun:_Znwm
   fun:_ZNSs4_Rep9_S_createEmmRKSaIcE
   fun:_ZNSs12_S_constructIPKcEEPcT_S3_RKSaIcESt20forward_iterator_tag
   fun:_ZNSsC1EPKcRKSaIcE
   fun:_ZN3c108demangleEPKc
   fun:_ZN3c1013demangle_typeIN5torch3jit32SRNativeOperatorFunctor_aten_subEEEPKcv
   fun:_Z41__static_initialization_and_destruction_0ii.constprop.0
   fun:call_init.part.0
   fun:call_init
   fun:_dl_init
   obj:/usr/lib/x86_64-linux-gnu/ld-linux-x86-64.so.2
}
{
   <insert_a_suppression_name_here>
   Memcheck:Leak
   match-leak-kinds: reachable
   fun:_Znwm
   fun:_ZNSs4_Rep9_S_createEmmRKSaIcE
   fun:_ZNSs12_S_constructIPKcEEPcT_S3_RKSaIcESt20forward_iterator_tag
   fun:_ZNSsC1EPKcRKSaIcE
   fun:_ZN3c108demangleEPKc
   fun:_ZN3c1013demangle_typeIN5torch3jit32SRNativeOperatorFunctor_aten_addEEEPKcv
   fun:_Z41__static_initialization_and_destruction_0ii.constprop.0
   fun:call_init.part.0
   fun:call_init
   fun:_dl_init
   obj:/usr/lib/x86_64-linux-gnu/ld-linux-x86-64.so.2
}
{
   <insert_a_suppression_name_here>
   Memcheck:Leak
   match-leak-kinds: reachable
   fun:_Znwm
   fun:_ZNSs4_Rep9_S_createEmmRKSaIcE
   fun:_ZNSs12_S_constructIPKcEEPcT_S3_RKSaIcESt20forward_iterator_tag
   fun:_ZNSsC1EPKcRKSaIcE
   fun:_ZN3c108demangleEPKc
   fun:_ZN3c1013demangle_typeIN5torch3jit32SRNativeOperatorFunctor_aten_IntEEEPKcv
   fun:_Z41__static_initialization_and_destruction_0ii.constprop.0
   fun:call_init.part.0
   fun:call_init
   fun:_dl_init
   obj:/usr/lib/x86_64-linux-gnu/ld-linux-x86-64.so.2
}
{
   <insert_a_suppression_name_here>
   Memcheck:Leak
   match-leak-kinds: reachable
   fun:_Znwm
   fun:_ZNSs4_Rep9_S_createEmmRKSaIcE
   fun:_ZNSs12_S_constructIPKcEEPcT_S3_RKSaIcESt20forward_iterator_tag
   fun:_ZNSsC1EPKcRKSaIcE
   fun:_ZN3c108demangleEPKc
   fun:_ZN3c1013demangle_typeIN5torch3jit32SRNativeOperatorFunctor_aten_dimEEEPKcv
   fun:_Z41__static_initialization_and_destruction_0ii.constprop.0
   fun:call_init.part.0
   fun:call_init
   fun:_dl_init
   obj:/usr/lib/x86_64-linux-gnu/ld-linux-x86-64.so.2
}
{
   <insert_a_suppression_name_here>
   Memcheck:Leak
   match-leak-kinds: reachable
   fun:_Znwm
   fun:_ZNSs4_Rep9_S_createEmmRKSaIcE
   fun:_ZNSs12_S_constructIPKcEEPcT_S3_RKSaIcESt20forward_iterator_tag
   fun:_ZNSsC1EPKcRKSaIcE
   fun:_ZN3c108demangleEPKc
   fun:_ZN3c1013demangle_typeIN5torch3jit32SRNativeOperatorFunctor_aten_notEEEPKcv
   fun:_Z41__static_initialization_and_destruction_0ii.constprop.0
   fun:call_init.part.0
   fun:call_init
   fun:_dl_init
   obj:/usr/lib/x86_64-linux-gnu/ld-linux-x86-64.so.2
}
{
   <insert_a_suppression_name_here>
   Memcheck:Leak
   match-leak-kinds: reachable
   fun:_Znwm
   fun:_ZNSs4_Rep9_S_createEmmRKSaIcE
   fun:_ZNSs12_S_constructIPKcEEPcT_S3_RKSaIcESt20forward_iterator_tag
   fun:_ZNSsC1EPKcRKSaIcE
   fun:_ZN3c108demangleEPKc
   fun:_ZN3c1013demangle_typeIN5torch3jit32SRNativeOperatorFunctor_aten_lenEEEPKcv
   fun:_Z41__static_initialization_and_destruction_0ii.constprop.0
   fun:call_init.part.0
   fun:call_init
   fun:_dl_init
   obj:/usr/lib/x86_64-linux-gnu/ld-linux-x86-64.so.2
}
{
   <insert_a_suppression_name_here>
   Memcheck:Leak
   match-leak-kinds: reachable
   fun:_Znwm
   fun:_ZNSs4_Rep9_S_createEmmRKSaIcE
   fun:_ZNSs12_S_constructIPKcEEPcT_S3_RKSaIcESt20forward_iterator_tag
   fun:_ZNSsC1EPKcRKSaIcE
   fun:_ZN3c108demangleEPKc
   fun:_ZN3c1013demangle_typeIN5torch3jit32SROperatorFunctor_aten_clamp_minEEEPKcv
   fun:_Z41__static_initialization_and_destruction_0ii.constprop.0
   fun:call_init.part.0
   fun:call_init
   fun:_dl_init
   obj:/usr/lib/x86_64-linux-gnu/ld-linux-x86-64.so.2
}
{
   <insert_a_suppression_name_here>
   Memcheck:Leak
   match-leak-kinds: reachable
   fun:_Znwm
   fun:_ZNSs4_Rep9_S_createEmmRKSaIcE
   fun:_ZNSs12_S_constructIPKcEEPcT_S3_RKSaIcESt20forward_iterator_tag
   fun:_ZNSsC1EPKcRKSaIcE
   fun:_ZN3c108demangleEPKc
   fun:_ZN3c1013demangle_typeIN5torch3jit32SROperatorFunctor_aten_full_likeEEEPKcv
   fun:_Z41__static_initialization_and_destruction_0ii.constprop.0
   fun:call_init.part.0
   fun:call_init
   fun:_dl_init
   obj:/usr/lib/x86_64-linux-gnu/ld-linux-x86-64.so.2
}
{
   <insert_a_suppression_name_here>
   Memcheck:Leak
   match-leak-kinds: reachable
   fun:_Znwm
   fun:_ZNSs4_Rep9_S_createEmmRKSaIcE
   fun:_ZNSs12_S_constructIPKcEEPcT_S3_RKSaIcESt20forward_iterator_tag
   fun:_ZNSsC1EPKcRKSaIcE
   fun:_ZN3c108demangleEPKc
   fun:_ZN3c1013demangle_typeIN5torch3jit32SROperatorFunctor_aten_ones_likeEEEPKcv
   fun:_Z41__static_initialization_and_destruction_0ii.constprop.0
   fun:call_init.part.0
   fun:call_init
   fun:_dl_init
   obj:/usr/lib/x86_64-linux-gnu/ld-linux-x86-64.so.2
}
{
   <insert_a_suppression_name_here>
   Memcheck:Leak
   match-leak-kinds: reachable
   fun:_Znwm
   fun:_ZNSs4_Rep9_S_createEmmRKSaIcE
   fun:_ZNSs12_S_constructIPKcEEPcT_S3_RKSaIcESt20forward_iterator_tag
   fun:_ZNSsC1EPKcRKSaIcE
   fun:_ZN3c108demangleEPKc
   fun:_ZN3c1013demangle_typeIN5torch3jit32SROperatorFunctor_prim_VarConcatEEEPKcv
   fun:_Z41__static_initialization_and_destruction_0ii.constprop.0
   fun:call_init.part.0
   fun:call_init
   fun:_dl_init
   obj:/usr/lib/x86_64-linux-gnu/ld-linux-x86-64.so.2
}
{
   <insert_a_suppression_name_here>
   Memcheck:Leak
   match-leak-kinds: reachable
   fun:_Znwm
   fun:_ZNSs4_Rep9_S_createEmmRKSaIcE
   fun:_ZNSs12_S_constructIPKcEEPcT_S3_RKSaIcESt20forward_iterator_tag
   fun:_ZNSsC1EPKcRKSaIcE
   fun:_ZN3c108demangleEPKc
   fun:_ZN3c1013demangle_typeIN5torch3jit32SROperatorFunctor_aten_remainderEEEPKcv
   fun:_Z41__static_initialization_and_destruction_0ii.constprop.0
   fun:call_init.part.0
   fun:call_init
   fun:_dl_init
   obj:/usr/lib/x86_64-linux-gnu/ld-linux-x86-64.so.2
}
{
   <insert_a_suppression_name_here>
   Memcheck:Leak
   match-leak-kinds: reachable
   fun:_Znwm
   fun:_ZNSs4_Rep9_S_createEmmRKSaIcE
   fun:_ZNSs12_S_constructIPKcEEPcT_S3_RKSaIcESt20forward_iterator_tag
   fun:_ZNSsC1EPKcRKSaIcE
   fun:_ZN3c108demangleEPKc
   fun:_ZN3c1013demangle_typeIN5torch3jit33SROperatorFunctor_aten_logical_orEEEPKcv
   fun:_Z41__static_initialization_and_destruction_0ii.constprop.0
   fun:call_init.part.0
   fun:call_init
   fun:_dl_init
   obj:/usr/lib/x86_64-linux-gnu/ld-linux-x86-64.so.2
}
{
   <insert_a_suppression_name_here>
   Memcheck:Leak
   match-leak-kinds: reachable
   fun:_Znwm
   fun:_ZNSs4_Rep9_S_createEmmRKSaIcE
   fun:_ZNSs12_S_constructIPKcEEPcT_S3_RKSaIcESt20forward_iterator_tag
   fun:_ZNSsC1EPKcRKSaIcE
   fun:_ZN3c108demangleEPKc
   fun:_ZN3c1013demangle_typeIN5torch3jit33SROperatorFunctor_aten_index_copyEEEPKcv
   fun:_Z41__static_initialization_and_destruction_0ii.constprop.0
   fun:call_init.part.0
   fun:call_init
   fun:_dl_init
   obj:/usr/lib/x86_64-linux-gnu/ld-linux-x86-64.so.2
}
{
   <insert_a_suppression_name_here>
   Memcheck:Leak
   match-leak-kinds: reachable
   fun:_Znwm
   fun:_ZNSs4_Rep9_S_createEmmRKSaIcE
   fun:_ZNSs12_S_constructIPKcEEPcT_S3_RKSaIcESt20forward_iterator_tag
   fun:_ZNSsC1EPKcRKSaIcE
   fun:_ZN3c108demangleEPKc
   fun:_ZN3c1013demangle_typeIN5torch3jit33SROperatorFunctor_aten_logaddexp2EEEPKcv
   fun:_Z41__static_initialization_and_destruction_0ii.constprop.0
   fun:call_init.part.0
   fun:call_init
   fun:_dl_init
   obj:/usr/lib/x86_64-linux-gnu/ld-linux-x86-64.so.2
}
{
   <insert_a_suppression_name_here>
   Memcheck:Leak
   match-leak-kinds: reachable
   fun:_Znwm
   fun:_ZNSs4_Rep9_S_createEmmRKSaIcE
   fun:_ZNSs12_S_constructIPKcEEPcT_S3_RKSaIcESt20forward_iterator_tag
   fun:_ZNSsC1EPKcRKSaIcE
   fun:_ZN3c108demangleEPKc
   fun:_ZN3c1013demangle_typeIN5torch3jit33SROperatorFunctor_aten_reciprocalEEEPKcv
   fun:_Z41__static_initialization_and_destruction_0ii.constprop.0
   fun:call_init.part.0
   fun:call_init
   fun:_dl_init
   obj:/usr/lib/x86_64-linux-gnu/ld-linux-x86-64.so.2
}
{
   <insert_a_suppression_name_here>
   Memcheck:Leak
   match-leak-kinds: reachable
   fun:_Znwm
   fun:_ZNSs4_Rep9_S_createEmmRKSaIcE
   fun:_ZNSs12_S_constructIPKcEEPcT_S3_RKSaIcESt20forward_iterator_tag
   fun:_ZNSsC1EPKcRKSaIcE
   fun:_ZN3c108demangleEPKc
   fun:_ZN3c1013demangle_typeIN5torch3jit33SROperatorFunctor_aten_hardshrinkEEEPKcv
   fun:_Z41__static_initialization_and_destruction_0ii.constprop.0
   fun:call_init.part.0
   fun:call_init
   fun:_dl_init
   obj:/usr/lib/x86_64-linux-gnu/ld-linux-x86-64.so.2
}
{
   <insert_a_suppression_name_here>
   Memcheck:Leak
   match-leak-kinds: reachable
   fun:_Znwm
   fun:_ZNSs4_Rep9_S_createEmmRKSaIcE
   fun:_ZNSs12_S_constructIPKcEEPcT_S3_RKSaIcESt20forward_iterator_tag
   fun:_ZNSsC1EPKcRKSaIcE
   fun:_ZN3c108demangleEPKc
   fun:_ZN3c1013demangle_typeIN5torch3jit33SROperatorFunctor_aten_bitwise_orEEEPKcv
   fun:_Z41__static_initialization_and_destruction_0ii.constprop.0
   fun:call_init.part.0
   fun:call_init
   fun:_dl_init
   obj:/usr/lib/x86_64-linux-gnu/ld-linux-x86-64.so.2
}
{
   <insert_a_suppression_name_here>
   Memcheck:Leak
   match-leak-kinds: reachable
   fun:_Znwm
   fun:_ZNSs4_Rep9_S_createEmmRKSaIcE
   fun:_ZNSs12_S_constructIPKcEEPcT_S3_RKSaIcESt20forward_iterator_tag
   fun:_ZNSsC1EPKcRKSaIcE
   fun:_ZN3c108demangleEPKc
   fun:_ZN3c1013demangle_typeIN5torch3jit33SROperatorFunctor_aten_softshrinkEEEPKcv
   fun:_Z41__static_initialization_and_destruction_0ii.constprop.0
   fun:call_init.part.0
   fun:call_init
   fun:_dl_init
   obj:/usr/lib/x86_64-linux-gnu/ld-linux-x86-64.so.2
}
{
   <insert_a_suppression_name_here>
   Memcheck:Leak
   match-leak-kinds: reachable
   fun:_Znwm
   fun:_ZNSs4_Rep9_S_createEmmRKSaIcE
   fun:_ZNSs12_S_constructIPKcEEPcT_S3_RKSaIcESt20forward_iterator_tag
   fun:_ZNSsC1EPKcRKSaIcE
   fun:_ZN3c108demangleEPKc
   fun:_ZN3c1013demangle_typeIN5torch3jit33SROperatorFunctor_aten_special_i0EEEPKcv
   fun:_Z41__static_initialization_and_destruction_0ii.constprop.0
   fun:call_init.part.0
   fun:call_init
   fun:_dl_init
   obj:/usr/lib/x86_64-linux-gnu/ld-linux-x86-64.so.2
}
{
   <insert_a_suppression_name_here>
   Memcheck:Leak
   match-leak-kinds: reachable
   fun:_Znwm
   fun:_ZNSs4_Rep9_S_createEmmRKSaIcE
   fun:_ZNSs12_S_constructIPKcEEPcT_S3_RKSaIcESt20forward_iterator_tag
   fun:_ZNSsC1EPKcRKSaIcE
   fun:_ZN3c108demangleEPKc
   fun:_ZN3c1013demangle_typeIN5torch3jit33SROperatorFunctor_aten_special_i1EEEPKcv
   fun:_Z41__static_initialization_and_destruction_0ii.constprop.0
   fun:call_init.part.0
   fun:call_init
   fun:_dl_init
   obj:/usr/lib/x86_64-linux-gnu/ld-linux-x86-64.so.2
}
{
   <insert_a_suppression_name_here>
   Memcheck:Leak
   match-leak-kinds: reachable
   fun:_Znwm
   fun:_ZNSs4_Rep9_S_createEmmRKSaIcE
   fun:_ZNSs12_S_constructIPKcEEPcT_S3_RKSaIcESt20forward_iterator_tag
   fun:_ZNSsC1EPKcRKSaIcE
   fun:_ZN3c108demangleEPKc
   fun:_ZN3c1013demangle_typeIN5torch3jit33SROperatorFunctor_aten_linalg_detEEEPKcv
   fun:_Z41__static_initialization_and_destruction_0ii.constprop.0
   fun:call_init.part.0
   fun:call_init
   fun:_dl_init
   obj:/usr/lib/x86_64-linux-gnu/ld-linux-x86-64.so.2
}
{
   <insert_a_suppression_name_here>
   Memcheck:Leak
   match-leak-kinds: reachable
   fun:_Znwm
   fun:_ZNSs4_Rep9_S_createEmmRKSaIcE
   fun:_ZNSs12_S_constructIPKcEEPcT_S3_RKSaIcESt20forward_iterator_tag
   fun:_ZNSsC1EPKcRKSaIcE
   fun:_ZN3c108demangleEPKc
   fun:_ZN3c1013demangle_typeIN5torch3jit33SROperatorFunctor_aten_linalg_invEEEPKcv
   fun:_Z41__static_initialization_and_destruction_0ii.constprop.0
   fun:call_init.part.0
   fun:call_init
   fun:_dl_init
   obj:/usr/lib/x86_64-linux-gnu/ld-linux-x86-64.so.2
}
{
   <insert_a_suppression_name_here>
   Memcheck:Leak
   match-leak-kinds: reachable
   fun:_Znwm
   fun:_ZNSs4_Rep9_S_createEmmRKSaIcE
   fun:_ZNSs12_S_constructIPKcEEPcT_S3_RKSaIcESt20forward_iterator_tag
   fun:_ZNSsC1EPKcRKSaIcE
   fun:_ZN3c108demangleEPKc
   fun:_ZN3c1013demangle_typeIN5torch3jit33SRNativeOperatorFunctor_aten_realEEEPKcv
   fun:_Z41__static_initialization_and_destruction_0ii.constprop.0
   fun:call_init.part.0
   fun:call_init
   fun:_dl_init
   obj:/usr/lib/x86_64-linux-gnu/ld-linux-x86-64.so.2
}
{
   <insert_a_suppression_name_here>
   Memcheck:Leak
   match-leak-kinds: reachable
   fun:_Znwm
   fun:_ZNSs4_Rep9_S_createEmmRKSaIcE
   fun:_ZNSs12_S_constructIPKcEEPcT_S3_RKSaIcESt20forward_iterator_tag
   fun:_ZNSsC1EPKcRKSaIcE
   fun:_ZN3c108demangleEPKc
   fun:_ZN3c1013demangle_typeIN5torch3jit33SRNativeOperatorFunctor_aten_imagEEEPKcv
   fun:_Z41__static_initialization_and_destruction_0ii.constprop.0
   fun:call_init.part.0
   fun:call_init
   fun:_dl_init
   obj:/usr/lib/x86_64-linux-gnu/ld-linux-x86-64.so.2
}
{
   <insert_a_suppression_name_here>
   Memcheck:Leak
   match-leak-kinds: reachable
   fun:_Znwm
   fun:_ZNSs4_Rep9_S_createEmmRKSaIcE
   fun:_ZNSs12_S_constructIPKcEEPcT_S3_RKSaIcESt20forward_iterator_tag
   fun:_ZNSsC1EPKcRKSaIcE
   fun:_ZN3c108demangleEPKc
   fun:_ZN3c1013demangle_typeIN5torch3jit33SRNativeOperatorFunctor_aten_conjEEEPKcv
   fun:_Z41__static_initialization_and_destruction_0ii.constprop.0
   fun:call_init.part.0
   fun:call_init
   fun:_dl_init
   obj:/usr/lib/x86_64-linux-gnu/ld-linux-x86-64.so.2
}
{
   <insert_a_suppression_name_here>
   Memcheck:Leak
   match-leak-kinds: reachable
   fun:_Znwm
   fun:_ZNSs4_Rep9_S_createEmmRKSaIcE
   fun:_ZNSs12_S_constructIPKcEEPcT_S3_RKSaIcESt20forward_iterator_tag
   fun:_ZNSsC1EPKcRKSaIcE
   fun:_ZN3c108demangleEPKc
   fun:_ZN3c1013demangle_typeIN5torch3jit33SRNativeOperatorFunctor_aten_listEEEPKcv
   fun:_Z41__static_initialization_and_destruction_0ii.constprop.0
   fun:call_init.part.0
   fun:call_init
   fun:_dl_init
   obj:/usr/lib/x86_64-linux-gnu/ld-linux-x86-64.so.2
}
{
   <insert_a_suppression_name_here>
   Memcheck:Leak
   match-leak-kinds: reachable
   fun:_Znwm
   fun:_ZNSs4_Rep9_S_createEmmRKSaIcE
   fun:_ZNSs12_S_constructIPKcEEPcT_S3_RKSaIcESt20forward_iterator_tag
   fun:_ZNSsC1EPKcRKSaIcE
   fun:_ZN3c108demangleEPKc
   fun:_ZN3c1013demangle_typeIN5torch3jit33SRNativeOperatorFunctor_aten_itemEEEPKcv
   fun:_Z41__static_initialization_and_destruction_0ii.constprop.0
   fun:call_init.part.0
   fun:call_init
   fun:_dl_init
   obj:/usr/lib/x86_64-linux-gnu/ld-linux-x86-64.so.2
}
{
   <insert_a_suppression_name_here>
   Memcheck:Leak
   match-leak-kinds: reachable
   fun:_Znwm
   fun:_ZNSs4_Rep9_S_createEmmRKSaIcE
   fun:_ZNSs12_S_constructIPKcEEPcT_S3_RKSaIcESt20forward_iterator_tag
   fun:_ZNSsC1EPKcRKSaIcE
   fun:_ZN3c108demangleEPKc
   fun:_ZN3c1013demangle_typeIN5torch3jit33SRNativeOperatorFunctor_aten_viewEEEPKcv
   fun:_Z41__static_initialization_and_destruction_0ii.constprop.0
   fun:call_init.part.0
   fun:call_init
   fun:_dl_init
   obj:/usr/lib/x86_64-linux-gnu/ld-linux-x86-64.so.2
}
{
   <insert_a_suppression_name_here>
   Memcheck:Leak
   match-leak-kinds: reachable
   fun:_Znwm
   fun:_ZNSs4_Rep9_S_createEmmRKSaIcE
   fun:_ZNSs12_S_constructIPKcEEPcT_S3_RKSaIcESt20forward_iterator_tag
   fun:_ZNSsC1EPKcRKSaIcE
   fun:_ZN3c108demangleEPKc
   fun:_ZN3c1013demangle_typeIN5torch3jit33SRNativeOperatorFunctor_aten_sizeEEEPKcv
   fun:_Z41__static_initialization_and_destruction_0ii.constprop.0
   fun:call_init.part.0
   fun:call_init
   fun:_dl_init
   obj:/usr/lib/x86_64-linux-gnu/ld-linux-x86-64.so.2
}
{
   <insert_a_suppression_name_here>
   Memcheck:Leak
   match-leak-kinds: reachable
   fun:_Znwm
   fun:_ZNSs4_Rep9_S_createEmmRKSaIcE
   fun:_ZNSs12_S_constructIPKcEEPcT_S3_RKSaIcESt20forward_iterator_tag
   fun:_ZNSsC1EPKcRKSaIcE
   fun:_ZN3c108demangleEPKc
   fun:_ZN3c1013demangle_typeIN5torch3jit33SRNativeOperatorFunctor_prim_ForkEEEPKcv
   fun:_Z41__static_initialization_and_destruction_0ii.constprop.0
   fun:call_init.part.0
   fun:call_init
   fun:_dl_init
   obj:/usr/lib/x86_64-linux-gnu/ld-linux-x86-64.so.2
}
{
   <insert_a_suppression_name_here>
   Memcheck:Leak
   match-leak-kinds: reachable
   fun:_Znwm
   fun:_ZNSs4_Rep9_S_createEmmRKSaIcE
   fun:_ZNSs12_S_constructIPKcEEPcT_S3_RKSaIcESt20forward_iterator_tag
   fun:_ZNSsC1EPKcRKSaIcE
   fun:_ZN3c108demangleEPKc
   fun:_ZN3c1013demangle_typeIN5torch3jit33SRNativeOperatorFunctor_aten_WaitEEEPKcv
   fun:_Z41__static_initialization_and_destruction_0ii.constprop.0
   fun:call_init.part.0
   fun:call_init
   fun:_dl_init
   obj:/usr/lib/x86_64-linux-gnu/ld-linux-x86-64.so.2
}
{
   <insert_a_suppression_name_here>
   Memcheck:Leak
   match-leak-kinds: reachable
   fun:_Znwm
   fun:_ZNSs4_Rep9_S_createEmmRKSaIcE
   fun:_ZNSs12_S_constructIPKcEEPcT_S3_RKSaIcESt20forward_iterator_tag
   fun:_ZNSsC1EPKcRKSaIcE
   fun:_ZN3c108demangleEPKc
   fun:_ZN3c1013demangle_typeIN5torch3jit33SRNativeOperatorFunctor_prim_LoopEEEPKcv
   fun:_Z41__static_initialization_and_destruction_0ii.constprop.0
   fun:call_init.part.0
   fun:call_init
   fun:_dl_init
   obj:/usr/lib/x86_64-linux-gnu/ld-linux-x86-64.so.2
}
{
   <insert_a_suppression_name_here>
   Memcheck:Leak
   match-leak-kinds: reachable
   fun:_Znwm
   fun:_ZNSs4_Rep9_S_createEmmRKSaIcE
   fun:_ZNSs12_S_constructIPKcEEPcT_S3_RKSaIcESt20forward_iterator_tag
   fun:_ZNSsC1EPKcRKSaIcE
   fun:_ZN3c108demangleEPKc
   fun:_ZN3c1013demangle_typeIN5torch3jit33SRNativeOperatorFunctor_aten_BoolEEEPKcv
   fun:_Z41__static_initialization_and_destruction_0ii.constprop.0
   fun:call_init.part.0
   fun:call_init
   fun:_dl_init
   obj:/usr/lib/x86_64-linux-gnu/ld-linux-x86-64.so.2
}
{
   <insert_a_suppression_name_here>
   Memcheck:Leak
   match-leak-kinds: reachable
   fun:_Znwm
   fun:_ZNSs4_Rep9_S_createEmmRKSaIcE
   fun:_ZNSs12_S_constructIPKcEEPcT_S3_RKSaIcESt20forward_iterator_tag
   fun:_ZNSsC1EPKcRKSaIcE
   fun:_ZN3c108demangleEPKc
   fun:_ZN3c1013demangle_typeIN5torch3jit33SROperatorFunctor_aten_nan_to_numEEEPKcv
   fun:_Z41__static_initialization_and_destruction_0ii.constprop.0
   fun:call_init.part.0
   fun:call_init
   fun:_dl_init
   obj:/usr/lib/x86_64-linux-gnu/ld-linux-x86-64.so.2
}
{
   <insert_a_suppression_name_here>
   Memcheck:Leak
   match-leak-kinds: reachable
   fun:_Znwm
   fun:_ZNSs4_Rep9_S_createEmmRKSaIcE
   fun:_ZNSs12_S_constructIPKcEEPcT_S3_RKSaIcESt20forward_iterator_tag
   fun:_ZNSsC1EPKcRKSaIcE
   fun:_ZN3c108demangleEPKc
   fun:_ZN3c1013demangle_typeIN5torch3jit33SROperatorFunctor_aten_leaky_reluEEEPKcv
   fun:_Z41__static_initialization_and_destruction_0ii.constprop.0
   fun:call_init.part.0
   fun:call_init
   fun:_dl_init
   obj:/usr/lib/x86_64-linux-gnu/ld-linux-x86-64.so.2
}
{
   <insert_a_suppression_name_here>
   Memcheck:Leak
   match-leak-kinds: reachable
   fun:_Znwm
   fun:_ZNSs4_Rep9_S_createEmmRKSaIcE
   fun:_ZNSs12_S_constructIPKcEEPcT_S3_RKSaIcESt20forward_iterator_tag
   fun:_ZNSsC1EPKcRKSaIcE
   fun:_ZN3c108demangleEPKc
   fun:_ZN3c1013demangle_typeIN5torch3jit33SROperatorFunctor_aten_layer_normEEEPKcv
   fun:_Z41__static_initialization_and_destruction_0ii.constprop.0
   fun:call_init.part.0
   fun:call_init
   fun:_dl_init
   obj:/usr/lib/x86_64-linux-gnu/ld-linux-x86-64.so.2
}
{
   <insert_a_suppression_name_here>
   Memcheck:Leak
   match-leak-kinds: reachable
   fun:_Znwm
   fun:_ZNSs4_Rep9_S_createEmmRKSaIcE
   fun:_ZNSs12_S_constructIPKcEEPcT_S3_RKSaIcESt20forward_iterator_tag
   fun:_ZNSsC1EPKcRKSaIcE
   fun:_ZN3c108demangleEPKc
   fun:_ZN3c1013demangle_typeIN5torch3jit34SROperatorFunctor_aten_bitwise_notEEEPKcv
   fun:_Z41__static_initialization_and_destruction_0ii.constprop.0
   fun:call_init.part.0
   fun:call_init
   fun:_dl_init
   obj:/usr/lib/x86_64-linux-gnu/ld-linux-x86-64.so.2
}
{
   <insert_a_suppression_name_here>
   Memcheck:Leak
   match-leak-kinds: reachable
   fun:_Znwm
   fun:_ZNSs4_Rep9_S_createEmmRKSaIcE
   fun:_ZNSs12_S_constructIPKcEEPcT_S3_RKSaIcESt20forward_iterator_tag
   fun:_ZNSsC1EPKcRKSaIcE
   fun:_ZN3c108demangleEPKc
   fun:_ZN3c1013demangle_typeIN5torch3jit34SROperatorFunctor_aten_logical_notEEEPKcv
   fun:_Z41__static_initialization_and_destruction_0ii.constprop.0
   fun:call_init.part.0
   fun:call_init
   fun:_dl_init
   obj:/usr/lib/x86_64-linux-gnu/ld-linux-x86-64.so.2
}
{
   <insert_a_suppression_name_here>
   Memcheck:Leak
   match-leak-kinds: reachable
